Archive member included to satisfy reference by file (symbol)

c:/project/stm32fx_iolib/stm32f4x_iolib/stm32f4x_iolib_168MHz_8MHz.a(startup_stm32f4xx.o)
                              (Reset_Handler)
c:/project/stm32fx_iolib/stm32f4x_iolib/stm32f4x_iolib_168MHz_8MHz.a(system_stm32f4xx.o)
                              c:/project/stm32fx_iolib/stm32f4x_iolib/stm32f4x_iolib_168MHz_8MHz.a(startup_stm32f4xx.o) (SystemInit)
c:/project/stm32fx_iolib/stm32f4x_iolib/stm32f4x_iolib_168MHz_8MHz.a(misc.o)
                              FLASH_RUN/main.o (NVIC_PriorityGroupConfig)
c:/project/stm32fx_iolib/stm32f4x_iolib/stm32f4x_iolib_168MHz_8MHz.a(stm32f4xx_adc.o)
                              FLASH_RUN/adc.o (ADC_Init)
c:/project/stm32fx_iolib/stm32f4x_iolib/stm32f4x_iolib_168MHz_8MHz.a(stm32f4xx_dac.o)
                              FLASH_RUN/dac1.o (DAC_Init)
c:/project/stm32fx_iolib/stm32f4x_iolib/stm32f4x_iolib_168MHz_8MHz.a(stm32f4xx_dma.o)
                              FLASH_RUN/sdio_sdcard.o (DMA_DeInit)
c:/project/stm32fx_iolib/stm32f4x_iolib/stm32f4x_iolib_168MHz_8MHz.a(stm32f4xx_exti.o)
                              FLASH_RUN/rtc.o (EXTI_Init)
c:/project/stm32fx_iolib/stm32f4x_iolib/stm32f4x_iolib_168MHz_8MHz.a(stm32f4xx_flash.o)
                              FLASH_RUN/main.o (FLASH_Unlock)
c:/project/stm32fx_iolib/stm32f4x_iolib/stm32f4x_iolib_168MHz_8MHz.a(stm32f4xx_gpio.o)
                              FLASH_RUN/ext_sram.o (GPIO_Init)
c:/project/stm32fx_iolib/stm32f4x_iolib/stm32f4x_iolib_168MHz_8MHz.a(stm32f4xx_i2c.o)
                              FLASH_RUN/i2c_app.o (I2C_DeInit)
c:/project/stm32fx_iolib/stm32f4x_iolib/stm32f4x_iolib_168MHz_8MHz.a(stm32f4xx_iwdg.o)
                              FLASH_RUN/main.o (IWDG_WriteAccessCmd)
c:/project/stm32fx_iolib/stm32f4x_iolib/stm32f4x_iolib_168MHz_8MHz.a(stm32f4xx_pwr.o)
                              FLASH_RUN/rtc.o (PWR_BackupAccessCmd)
c:/project/stm32fx_iolib/stm32f4x_iolib/stm32f4x_iolib_168MHz_8MHz.a(stm32f4xx_rcc.o)
                              FLASH_RUN/rtc.o (RCC_LSEConfig)
c:/project/stm32fx_iolib/stm32f4x_iolib/stm32f4x_iolib_168MHz_8MHz.a(stm32f4xx_rtc.o)
                              FLASH_RUN/rtc.o (RTC_Init)
c:/project/stm32fx_iolib/stm32f4x_iolib/stm32f4x_iolib_168MHz_8MHz.a(stm32f4xx_sdio.o)
                              FLASH_RUN/sdio_sdcard.o (SDIO_Init)
c:/project/stm32fx_iolib/stm32f4x_iolib/stm32f4x_iolib_168MHz_8MHz.a(stm32f4xx_spi.o)
                              FLASH_RUN/i2s.o (I2S_Init)
c:/project/stm32fx_iolib/stm32f4x_iolib/stm32f4x_iolib_168MHz_8MHz.a(stm32f4xx_tim.o)
                              FLASH_RUN/touch_pad.o (TIM_TimeBaseInit)
c:/project/stm32fx_iolib/stm32f4x_iolib/stm32f4x_iolib_168MHz_8MHz.a(stm32f4xx_usart.o)
                              FLASH_RUN/serial.o (USART_DeInit)
c:/project/stm32fx_iolib/stm32f4x_iolib/stm32f4x_iolib_168MHz_8MHz.a(stm32f4xx_fsmc.o)
                              FLASH_RUN/lcd.o (FSMC_NORSRAMInit)
source/audio_codec/mp3/mp3.a(mp3dec.o)
                              FLASH_RUN/mp3play.o (MP3InitDecoder)
source/audio_codec/mp3/mp3.a(mp3tabs.o)
                              source/audio_codec/mp3/mp3.a(mp3dec.o) (xmp3_samplesPerFrameTab)
source/audio_codec/mp3/mp3.a(scalfact.o)
                              source/audio_codec/mp3/mp3.a(mp3dec.o) (xmp3_UnpackScaleFactors)
source/audio_codec/mp3/mp3.a(subband.o)
                              source/audio_codec/mp3/mp3.a(mp3dec.o) (xmp3_Subband)
source/audio_codec/mp3/mp3.a(trigtabs.o)
                              source/audio_codec/mp3/mp3.a(subband.o) (xmp3_polyCoef)
source/audio_codec/mp3/mp3.a(asmpoly_thumb2.o)
                              source/audio_codec/mp3/mp3.a(subband.o) (xmp3_PolyphaseStereo)
source/audio_codec/mp3/mp3.a(bitstream.o)
                              source/audio_codec/mp3/mp3.a(scalfact.o) (xmp3_SetBitstreamPointer)
source/audio_codec/mp3/mp3.a(buffers.o)
                              source/audio_codec/mp3/mp3.a(mp3dec.o) (xmp3_FreeBuffers)
source/audio_codec/mp3/mp3.a(dct32.o)
                              source/audio_codec/mp3/mp3.a(subband.o) (xmp3_FDCT32)
source/audio_codec/mp3/mp3.a(dequant.o)
                              source/audio_codec/mp3/mp3.a(mp3dec.o) (xmp3_Dequantize)
source/audio_codec/mp3/mp3.a(dqchan.o)
                              source/audio_codec/mp3/mp3.a(dequant.o) (xmp3_DequantChannel)
source/audio_codec/mp3/mp3.a(huffman.o)
                              source/audio_codec/mp3/mp3.a(mp3dec.o) (xmp3_DecodeHuffman)
source/audio_codec/mp3/mp3.a(hufftabs.o)
                              source/audio_codec/mp3/mp3.a(huffman.o) (xmp3_quadTabMaxBits)
source/audio_codec/mp3/mp3.a(imdct.o)
                              source/audio_codec/mp3/mp3.a(mp3dec.o) (xmp3_IMDCT)
source/audio_codec/mp3/mp3.a(stproc.o)
                              source/audio_codec/mp3/mp3.a(dequant.o) (xmp3_MidSideProc)
source/audio_codec/mp3/mp3.a(asmmisc.o)
                              source/audio_codec/mp3/mp3.a(dct32.o) (xmp3_MULSHIFT32)
source/audio_codec/flac/flac.a(flacdecoder.o)
                              FLASH_RUN/flacplay.o (flac_seek_frame)
source/audio_codec/flac/flac.a(tables.o)
                              source/audio_codec/flac/flac.a(flacdecoder.o) (ff_log2_tab)
source/audio_codec/flac/flac.a(bitstreamf.o)
                              source/audio_codec/flac/flac.a(flacdecoder.o) (align_get_bits)
source/audio_codec/ape/ape.a(apedecoder.o)
                              FLASH_RUN/apeplay.o (init_frame_decoder)
source/audio_codec/ape/ape.a(entropy.o)
                              source/audio_codec/ape/ape.a(apedecoder.o) (init_entropy_decoder)
source/audio_codec/ape/ape.a(filter_16_11.o)
                              source/audio_codec/ape/ape.a(apedecoder.o) (init_filter_16_11)
source/audio_codec/ape/ape.a(filter_64_11.o)
                              source/audio_codec/ape/ape.a(apedecoder.o) (init_filter_64_11)
source/audio_codec/ape/ape.a(parser.o)
                              FLASH_RUN/apeplay.o (ape_parseheader)
source/audio_codec/ape/ape.a(predictor.o)
                              source/audio_codec/ape/ape.a(apedecoder.o) (init_predictor_decoder)
source/audio_codec/ape/ape.a(predictor-arm.o)
                              source/audio_codec/ape/ape.a(apedecoder.o) (predictor_decode_stereo)
c:/program files (x86)/arm gnu toolchain arm-none-eabi/12.2 mpacbti-rel1/bin/../lib/gcc/arm-none-eabi/12.2.1/thumb/v7e-m+fp/hard\libc.a(libc_a-abort.o)
                              FLASH_RUN/audio.o (abort)
c:/program files (x86)/arm gnu toolchain arm-none-eabi/12.2 mpacbti-rel1/bin/../lib/gcc/arm-none-eabi/12.2.1/thumb/v7e-m+fp/hard\libc.a(libc_a-malloc.o)
                              FLASH_RUN/diskio.o (malloc)
c:/program files (x86)/arm gnu toolchain arm-none-eabi/12.2 mpacbti-rel1/bin/../lib/gcc/arm-none-eabi/12.2.1/thumb/v7e-m+fp/hard\libc.a(libc_a-mallocr.o)
                              c:/program files (x86)/arm gnu toolchain arm-none-eabi/12.2 mpacbti-rel1/bin/../lib/gcc/arm-none-eabi/12.2.1/thumb/v7e-m+fp/hard\libc.a(libc_a-malloc.o) (_malloc_r)
c:/program files (x86)/arm gnu toolchain arm-none-eabi/12.2 mpacbti-rel1/bin/../lib/gcc/arm-none-eabi/12.2.1/thumb/v7e-m+fp/hard\libc.a(libc_a-mlock.o)
                              c:/program files (x86)/arm gnu toolchain arm-none-eabi/12.2 mpacbti-rel1/bin/../lib/gcc/arm-none-eabi/12.2.1/thumb/v7e-m+fp/hard\libc.a(libc_a-mallocr.o) (__malloc_lock)
c:/program files (x86)/arm gnu toolchain arm-none-eabi/12.2 mpacbti-rel1/bin/../lib/gcc/arm-none-eabi/12.2.1/thumb/v7e-m+fp/hard\libc.a(libc_a-rand.o)
                              FLASH_RUN/random_disp.o (rand)
c:/program files (x86)/arm gnu toolchain arm-none-eabi/12.2 mpacbti-rel1/bin/../lib/gcc/arm-none-eabi/12.2.1/thumb/v7e-m+fp/hard\libc.a(libc_a-memcmp.o)
                              source/audio_codec/ape/ape.a(parser.o) (memcmp)
c:/program files (x86)/arm gnu toolchain arm-none-eabi/12.2 mpacbti-rel1/bin/../lib/gcc/arm-none-eabi/12.2.1/thumb/v7e-m+fp/hard\libc.a(libc_a-memmove.o)
                              FLASH_RUN/mp3play.o (memmove)
c:/program files (x86)/arm gnu toolchain arm-none-eabi/12.2 mpacbti-rel1/bin/../lib/gcc/arm-none-eabi/12.2.1/thumb/v7e-m+fp/hard\libc.a(libc_a-memset.o)
                              FLASH_RUN/serial.o (memset)
c:/program files (x86)/arm gnu toolchain arm-none-eabi/12.2 mpacbti-rel1/bin/../lib/gcc/arm-none-eabi/12.2.1/thumb/v7e-m+fp/hard\libc.a(libc_a-strcasecmp.o)
                              FLASH_RUN/audio.o (strcasecmp)
c:/program files (x86)/arm gnu toolchain arm-none-eabi/12.2 mpacbti-rel1/bin/../lib/gcc/arm-none-eabi/12.2.1/thumb/v7e-m+fp/hard\libc.a(libc_a-strcat.o)
                              FLASH_RUN/audio.o (strcat)
c:/program files (x86)/arm gnu toolchain arm-none-eabi/12.2 mpacbti-rel1/bin/../lib/gcc/arm-none-eabi/12.2.1/thumb/v7e-m+fp/hard\libc.a(libc_a-strncmp.o)
                              FLASH_RUN/mp3play.o (strncmp)
c:/program files (x86)/arm gnu toolchain arm-none-eabi/12.2 mpacbti-rel1/bin/../lib/gcc/arm-none-eabi/12.2.1/thumb/v7e-m+fp/hard\libc.a(libc_a-strncpy.o)
                              FLASH_RUN/mp3play.o (strncpy)
c:/program files (x86)/arm gnu toolchain arm-none-eabi/12.2 mpacbti-rel1/bin/../lib/gcc/arm-none-eabi/12.2.1/thumb/v7e-m+fp/hard\libc.a(libc_a-signal.o)
                              c:/program files (x86)/arm gnu toolchain arm-none-eabi/12.2 mpacbti-rel1/bin/../lib/gcc/arm-none-eabi/12.2.1/thumb/v7e-m+fp/hard\libc.a(libc_a-abort.o) (raise)
c:/program files (x86)/arm gnu toolchain arm-none-eabi/12.2 mpacbti-rel1/bin/../lib/gcc/arm-none-eabi/12.2.1/thumb/v7e-m+fp/hard\libc.a(libc_a-impure.o)
                              c:/program files (x86)/arm gnu toolchain arm-none-eabi/12.2 mpacbti-rel1/bin/../lib/gcc/arm-none-eabi/12.2.1/thumb/v7e-m+fp/hard\libc.a(libc_a-malloc.o) (_impure_ptr)
c:/program files (x86)/arm gnu toolchain arm-none-eabi/12.2 mpacbti-rel1/bin/../lib/gcc/arm-none-eabi/12.2.1/thumb/v7e-m+fp/hard\libc.a(libc_a-signalr.o)
                              c:/program files (x86)/arm gnu toolchain arm-none-eabi/12.2 mpacbti-rel1/bin/../lib/gcc/arm-none-eabi/12.2.1/thumb/v7e-m+fp/hard\libc.a(libc_a-signal.o) (_kill_r)
c:/program files (x86)/arm gnu toolchain arm-none-eabi/12.2 mpacbti-rel1/bin/../lib/gcc/arm-none-eabi/12.2.1/thumb/v7e-m+fp/hard\libc.a(libc_a-sbrkr.o)
                              c:/program files (x86)/arm gnu toolchain arm-none-eabi/12.2 mpacbti-rel1/bin/../lib/gcc/arm-none-eabi/12.2.1/thumb/v7e-m+fp/hard\libc.a(libc_a-mallocr.o) (_sbrk_r)
c:/program files (x86)/arm gnu toolchain arm-none-eabi/12.2 mpacbti-rel1/bin/../lib/gcc/arm-none-eabi/12.2.1/thumb/v7e-m+fp/hard\libc.a(libc_a-errno.o)
                              FLASH_RUN/audio.o (__errno)
c:/program files (x86)/arm gnu toolchain arm-none-eabi/12.2 mpacbti-rel1/bin/../lib/gcc/arm-none-eabi/12.2.1/thumb/v7e-m+fp/hard\libc.a(libc_a-lock.o)
                              c:/program files (x86)/arm gnu toolchain arm-none-eabi/12.2 mpacbti-rel1/bin/../lib/gcc/arm-none-eabi/12.2.1/thumb/v7e-m+fp/hard\libc.a(libc_a-mlock.o) (__retarget_lock_acquire_recursive)
c:/program files (x86)/arm gnu toolchain arm-none-eabi/12.2 mpacbti-rel1/bin/../lib/gcc/arm-none-eabi/12.2.1/thumb/v7e-m+fp/hard\libc.a(libc_a-sysconf.o)
                              c:/program files (x86)/arm gnu toolchain arm-none-eabi/12.2 mpacbti-rel1/bin/../lib/gcc/arm-none-eabi/12.2.1/thumb/v7e-m+fp/hard\libc.a(libc_a-mallocr.o) (sysconf)
c:/program files (x86)/arm gnu toolchain arm-none-eabi/12.2 mpacbti-rel1/bin/../lib/gcc/arm-none-eabi/12.2.1/thumb/v7e-m+fp/hard\libc.a(libc_a-strcpy.o)
                              FLASH_RUN/audio.o (strcpy)
c:/program files (x86)/arm gnu toolchain arm-none-eabi/12.2 mpacbti-rel1/bin/../lib/gcc/arm-none-eabi/12.2.1/thumb/v7e-m+fp/hard\libc.a(libc_a-memcpy.o)
                              FLASH_RUN/sdio_sdcard.o (memcpy)
c:/program files (x86)/arm gnu toolchain arm-none-eabi/12.2 mpacbti-rel1/bin/../lib/gcc/arm-none-eabi/12.2.1/thumb/v7e-m+fp/hard\libc.a(libc_a-strlen.o)
                              FLASH_RUN/lcd.o (strlen)
c:/program files (x86)/arm gnu toolchain arm-none-eabi/12.2 mpacbti-rel1/bin/../lib/gcc/arm-none-eabi/12.2.1/thumb/v7e-m+fp/hard\libc.a(libc_a-freer.o)
                              c:/program files (x86)/arm gnu toolchain arm-none-eabi/12.2 mpacbti-rel1/bin/../lib/gcc/arm-none-eabi/12.2.1/thumb/v7e-m+fp/hard\libc.a(libc_a-malloc.o) (_free_r)
c:/program files (x86)/arm gnu toolchain arm-none-eabi/12.2 mpacbti-rel1/bin/../lib/gcc/arm-none-eabi/12.2.1/thumb/v7e-m+fp/hard\libc.a(libc_a-ctype_.o)
                              c:/program files (x86)/arm gnu toolchain arm-none-eabi/12.2 mpacbti-rel1/bin/../lib/gcc/arm-none-eabi/12.2.1/thumb/v7e-m+fp/hard\libc.a(libc_a-strcasecmp.o) (_ctype_)
c:/program files (x86)/arm gnu toolchain arm-none-eabi/12.2 mpacbti-rel1/bin/../lib/gcc/arm-none-eabi/12.2.1/thumb/v7e-m+fp/hard\libc.a(libc_a-findfp.o)
                              c:/program files (x86)/arm gnu toolchain arm-none-eabi/12.2 mpacbti-rel1/bin/../lib/gcc/arm-none-eabi/12.2.1/thumb/v7e-m+fp/hard\libc.a(libc_a-impure.o) (__sf)
c:/program files (x86)/arm gnu toolchain arm-none-eabi/12.2 mpacbti-rel1/bin/../lib/gcc/arm-none-eabi/12.2.1/thumb/v7e-m+fp/hard\libc.a(libc_a-fwalk.o)
                              c:/program files (x86)/arm gnu toolchain arm-none-eabi/12.2 mpacbti-rel1/bin/../lib/gcc/arm-none-eabi/12.2.1/thumb/v7e-m+fp/hard\libc.a(libc_a-findfp.o) (_fwalk_sglue)
c:/program files (x86)/arm gnu toolchain arm-none-eabi/12.2 mpacbti-rel1/bin/../lib/gcc/arm-none-eabi/12.2.1/thumb/v7e-m+fp/hard\libc.a(libc_a-stdio.o)
                              c:/program files (x86)/arm gnu toolchain arm-none-eabi/12.2 mpacbti-rel1/bin/../lib/gcc/arm-none-eabi/12.2.1/thumb/v7e-m+fp/hard\libc.a(libc_a-findfp.o) (__sread)
c:/program files (x86)/arm gnu toolchain arm-none-eabi/12.2 mpacbti-rel1/bin/../lib/gcc/arm-none-eabi/12.2.1/thumb/v7e-m+fp/hard\libc.a(libc_a-closer.o)
                              c:/program files (x86)/arm gnu toolchain arm-none-eabi/12.2 mpacbti-rel1/bin/../lib/gcc/arm-none-eabi/12.2.1/thumb/v7e-m+fp/hard\libc.a(libc_a-stdio.o) (_close_r)
c:/program files (x86)/arm gnu toolchain arm-none-eabi/12.2 mpacbti-rel1/bin/../lib/gcc/arm-none-eabi/12.2.1/thumb/v7e-m+fp/hard\libc.a(libc_a-lseekr.o)
                              c:/program files (x86)/arm gnu toolchain arm-none-eabi/12.2 mpacbti-rel1/bin/../lib/gcc/arm-none-eabi/12.2.1/thumb/v7e-m+fp/hard\libc.a(libc_a-stdio.o) (_lseek_r)
c:/program files (x86)/arm gnu toolchain arm-none-eabi/12.2 mpacbti-rel1/bin/../lib/gcc/arm-none-eabi/12.2.1/thumb/v7e-m+fp/hard\libc.a(libc_a-readr.o)
                              c:/program files (x86)/arm gnu toolchain arm-none-eabi/12.2 mpacbti-rel1/bin/../lib/gcc/arm-none-eabi/12.2.1/thumb/v7e-m+fp/hard\libc.a(libc_a-stdio.o) (_read_r)
c:/program files (x86)/arm gnu toolchain arm-none-eabi/12.2 mpacbti-rel1/bin/../lib/gcc/arm-none-eabi/12.2.1/thumb/v7e-m+fp/hard\libc.a(libc_a-writer.o)
                              c:/program files (x86)/arm gnu toolchain arm-none-eabi/12.2 mpacbti-rel1/bin/../lib/gcc/arm-none-eabi/12.2.1/thumb/v7e-m+fp/hard\libc.a(libc_a-stdio.o) (_write_r)
c:/program files (x86)/arm gnu toolchain arm-none-eabi/12.2 mpacbti-rel1/bin/../lib/gcc/arm-none-eabi/12.2.1/thumb/v7e-m+fp/hard\libc.a(libc_a-fclose.o)
                              c:/program files (x86)/arm gnu toolchain arm-none-eabi/12.2 mpacbti-rel1/bin/../lib/gcc/arm-none-eabi/12.2.1/thumb/v7e-m+fp/hard\libc.a(libc_a-findfp.o) (_fclose_r)
c:/program files (x86)/arm gnu toolchain arm-none-eabi/12.2 mpacbti-rel1/bin/../lib/gcc/arm-none-eabi/12.2.1/thumb/v7e-m+fp/hard\libc.a(libc_a-fflush.o)
                              c:/program files (x86)/arm gnu toolchain arm-none-eabi/12.2 mpacbti-rel1/bin/../lib/gcc/arm-none-eabi/12.2.1/thumb/v7e-m+fp/hard\libc.a(libc_a-fclose.o) (__sflush_r)
c:/program files (x86)/arm gnu toolchain arm-none-eabi/12.2 mpacbti-rel1/bin/../lib/gcc/arm-none-eabi/12.2.1/thumb/v7e-m+fp/hard\libm.a(libm_a-w_sqrt.o)
                              FLASH_RUN/touch_panel.o (sqrt)
c:/program files (x86)/arm gnu toolchain arm-none-eabi/12.2 mpacbti-rel1/bin/../lib/gcc/arm-none-eabi/12.2.1/thumb/v7e-m+fp/hard\libm.a(libm_a-e_sqrt.o)
                              c:/program files (x86)/arm gnu toolchain arm-none-eabi/12.2 mpacbti-rel1/bin/../lib/gcc/arm-none-eabi/12.2.1/thumb/v7e-m+fp/hard\libm.a(libm_a-w_sqrt.o) (__ieee754_sqrt)
c:/program files (x86)/arm gnu toolchain arm-none-eabi/12.2 mpacbti-rel1/bin/../lib/gcc/arm-none-eabi/12.2.1/thumb/v7e-m+fp/hard\libgcc.a(_arm_muldf3.o)
                              FLASH_RUN/lcd.o (__aeabi_dmul)
c:/program files (x86)/arm gnu toolchain arm-none-eabi/12.2 mpacbti-rel1/bin/../lib/gcc/arm-none-eabi/12.2.1/thumb/v7e-m+fp/hard\libgcc.a(_arm_addsubdf3.o)
                              FLASH_RUN/adc.o (__aeabi_dsub)
c:/program files (x86)/arm gnu toolchain arm-none-eabi/12.2 mpacbti-rel1/bin/../lib/gcc/arm-none-eabi/12.2.1/thumb/v7e-m+fp/hard\libgcc.a(_arm_muldivdf3.o)
                              FLASH_RUN/adc.o (__aeabi_ddiv)
c:/program files (x86)/arm gnu toolchain arm-none-eabi/12.2 mpacbti-rel1/bin/../lib/gcc/arm-none-eabi/12.2.1/thumb/v7e-m+fp/hard\libgcc.a(_arm_cmpdf2.o)
                              FLASH_RUN/touch_panel.o (__aeabi_dcmplt)
c:/program files (x86)/arm gnu toolchain arm-none-eabi/12.2 mpacbti-rel1/bin/../lib/gcc/arm-none-eabi/12.2.1/thumb/v7e-m+fp/hard\libgcc.a(_arm_unorddf2.o)
                              c:/program files (x86)/arm gnu toolchain arm-none-eabi/12.2 mpacbti-rel1/bin/../lib/gcc/arm-none-eabi/12.2.1/thumb/v7e-m+fp/hard\libm.a(libm_a-w_sqrt.o) (__aeabi_dcmpun)
c:/program files (x86)/arm gnu toolchain arm-none-eabi/12.2 mpacbti-rel1/bin/../lib/gcc/arm-none-eabi/12.2.1/thumb/v7e-m+fp/hard\libgcc.a(_arm_fixdfsi.o)
                              FLASH_RUN/adc.o (__aeabi_d2iz)
c:/program files (x86)/arm gnu toolchain arm-none-eabi/12.2 mpacbti-rel1/bin/../lib/gcc/arm-none-eabi/12.2.1/thumb/v7e-m+fp/hard\libgcc.a(_arm_fixunsdfsi.o)
                              FLASH_RUN/lcd.o (__aeabi_d2uiz)
c:/program files (x86)/arm gnu toolchain arm-none-eabi/12.2 mpacbti-rel1/bin/../lib/gcc/arm-none-eabi/12.2.1/thumb/v7e-m+fp/hard\libgcc.a(_aeabi_ldivmod.o)
                              FLASH_RUN/wavplay.o (__aeabi_ldivmod)
c:/program files (x86)/arm gnu toolchain arm-none-eabi/12.2 mpacbti-rel1/bin/../lib/gcc/arm-none-eabi/12.2.1/thumb/v7e-m+fp/hard\libgcc.a(_aeabi_uldivmod.o)
                              FLASH_RUN/print.o (__aeabi_uldivmod)
c:/program files (x86)/arm gnu toolchain arm-none-eabi/12.2 mpacbti-rel1/bin/../lib/gcc/arm-none-eabi/12.2.1/thumb/v7e-m+fp/hard\libgcc.a(_udivmoddi4.o)
                              c:/program files (x86)/arm gnu toolchain arm-none-eabi/12.2 mpacbti-rel1/bin/../lib/gcc/arm-none-eabi/12.2.1/thumb/v7e-m+fp/hard\libgcc.a(_aeabi_ldivmod.o) (__udivmoddi4)
c:/program files (x86)/arm gnu toolchain arm-none-eabi/12.2 mpacbti-rel1/bin/../lib/gcc/arm-none-eabi/12.2.1/thumb/v7e-m+fp/hard\libgcc.a(_dvmd_tls.o)
                              c:/program files (x86)/arm gnu toolchain arm-none-eabi/12.2 mpacbti-rel1/bin/../lib/gcc/arm-none-eabi/12.2.1/thumb/v7e-m+fp/hard\libgcc.a(_aeabi_ldivmod.o) (__aeabi_ldiv0)

Discarded input sections

 .text          0x00000000        0x0 FLASH_RUN/main.o
 .data          0x00000000        0x0 FLASH_RUN/main.o
 .bss           0x00000000        0x0 FLASH_RUN/main.o
 .text.hex2dec  0x00000000       0x26 FLASH_RUN/main.o
 .text.dec2hex  0x00000000       0x1a FLASH_RUN/main.o
 .data.FLASHStatus
                0x00000000        0x1 FLASH_RUN/main.o
 .text          0x00000000        0x0 FLASH_RUN/serial.o
 .data          0x00000000        0x0 FLASH_RUN/serial.o
 .bss           0x00000000        0x0 FLASH_RUN/serial.o
 .text.flash_read
                0x00000000       0x34 FLASH_RUN/serial.o
 .text.tx_enable1
                0x00000000       0x30 FLASH_RUN/serial.o
 .text.tx_enable2
                0x00000000       0x3c FLASH_RUN/serial.o
 .text.tx_enable3
                0x00000000       0x30 FLASH_RUN/serial.o
 .bss.flash_para
                0x00000000      0x100 FLASH_RUN/serial.o
 .bss.flash_address
                0x00000000        0x4 FLASH_RUN/serial.o
 .text          0x00000000        0x0 FLASH_RUN/i2c_app.o
 .data          0x00000000        0x0 FLASH_RUN/i2c_app.o
 .bss           0x00000000        0x0 FLASH_RUN/i2c_app.o
 .text          0x00000000        0x0 FLASH_RUN/key.o
 .data          0x00000000        0x0 FLASH_RUN/key.o
 .bss           0x00000000        0x0 FLASH_RUN/key.o
 .text          0x00000000        0x0 FLASH_RUN/lcd.o
 .data          0x00000000        0x0 FLASH_RUN/lcd.o
 .bss           0x00000000        0x0 FLASH_RUN/lcd.o
 .text.LCD_WriteReg
                0x00000000        0xe FLASH_RUN/lcd.o
 .text.LCD_WriteRAM
                0x00000000        0xa FLASH_RUN/lcd.o
 .text.LCD_BGR2RGB
                0x00000000       0x10 FLASH_RUN/lcd.o
 .text.opt_delay
                0x00000000        0x2 FLASH_RUN/lcd.o
 .text.LCD_ReadPoint
                0x00000000       0x48 FLASH_RUN/lcd.o
 .text.LCD_DisplayOn
                0x00000000        0x6 FLASH_RUN/lcd.o
 .text.LCD_DisplayOff
                0x00000000        0x6 FLASH_RUN/lcd.o
 .text.LCD_SSD_BackLightSet
                0x00000000       0x50 FLASH_RUN/lcd.o
 .text.LCD_Set_Window
                0x00000000       0x58 FLASH_RUN/lcd.o
 .text.LCD_Color_Fill
                0x00000000       0x5e FLASH_RUN/lcd.o
 .text.LCD_DrawRectangle
                0x00000000       0x3a FLASH_RUN/lcd.o
 .text.uni_to_kssm2
                0x00000000       0x50 FLASH_RUN/lcd.o
 .text.put_engxy
                0x00000000       0x18 FLASH_RUN/lcd.o
 .text.put_hanxy
                0x00000000       0x38 FLASH_RUN/lcd.o
 .text.lput_char_xy
                0x00000000       0x4c FLASH_RUN/lcd.o
 .rodata.hangul_jongsung_tbl
                0x00000000       0x38 FLASH_RUN/lcd.o
 .rodata.hangul_jungsung_tbl
                0x00000000       0x2a FLASH_RUN/lcd.o
 .rodata.hangul_chosung_tbl
                0x00000000       0x26 FLASH_RUN/lcd.o
 .text          0x00000000        0x0 FLASH_RUN/print.o
 .data          0x00000000        0x0 FLASH_RUN/print.o
 .bss           0x00000000        0x0 FLASH_RUN/print.o
 .text._sputc1  0x00000000        0x6 FLASH_RUN/print.o
 .text.is_digit
                0x00000000        0xc FLASH_RUN/print.o
 .text.sprintf  0x00000000       0x3c FLASH_RUN/print.o
 .text          0x00000000        0x0 FLASH_RUN/random_disp.o
 .data          0x00000000        0x0 FLASH_RUN/random_disp.o
 .bss           0x00000000        0x0 FLASH_RUN/random_disp.o
 .text          0x00000000        0x0 FLASH_RUN/touch_panel.o
 .data          0x00000000        0x0 FLASH_RUN/touch_panel.o
 .bss           0x00000000        0x0 FLASH_RUN/touch_panel.o
 .text          0x00000000        0x0 FLASH_RUN/touch_pad.o
 .data          0x00000000        0x0 FLASH_RUN/touch_pad.o
 .bss           0x00000000        0x0 FLASH_RUN/touch_pad.o
 .text.TPAD_Reset
                0x00000000       0x48 FLASH_RUN/touch_pad.o
 .text.TPAD_Get_Val
                0x00000000       0x38 FLASH_RUN/touch_pad.o
 .text.TPAD_Get_MaxVal
                0x00000000       0x1e FLASH_RUN/touch_pad.o
 .text.TPAD_Scan
                0x00000000       0x5c FLASH_RUN/touch_pad.o
 .text.TIM2_CH1_Cap_Init
                0x00000000       0x70 FLASH_RUN/touch_pad.o
 .rodata.TPAD_Init.str1.1
                0x00000000       0x11 FLASH_RUN/touch_pad.o
 .text.TPAD_Init
                0x00000000       0x90 FLASH_RUN/touch_pad.o
 .bss.key_en.0  0x00000000        0x1 FLASH_RUN/touch_pad.o
 .bss.tpad_default_val
                0x00000000        0x2 FLASH_RUN/touch_pad.o
 .debug_info    0x00000000      0xb02 FLASH_RUN/touch_pad.o
 .debug_abbrev  0x00000000      0x279 FLASH_RUN/touch_pad.o
 .debug_loc     0x00000000      0x28e FLASH_RUN/touch_pad.o
 .debug_aranges
                0x00000000       0x48 FLASH_RUN/touch_pad.o
 .debug_ranges  0x00000000       0x38 FLASH_RUN/touch_pad.o
 .debug_line    0x00000000      0x49f FLASH_RUN/touch_pad.o
 .debug_str     0x00000000      0x61a FLASH_RUN/touch_pad.o
 .comment       0x00000000       0x56 FLASH_RUN/touch_pad.o
 .debug_frame   0x00000000       0xc0 FLASH_RUN/touch_pad.o
 .text          0x00000000        0x0 FLASH_RUN/ir_remocon.o
 .data          0x00000000        0x0 FLASH_RUN/ir_remocon.o
 .bss           0x00000000        0x0 FLASH_RUN/ir_remocon.o
 .text          0x00000000        0x0 FLASH_RUN/adc.o
 .data          0x00000000        0x0 FLASH_RUN/adc.o
 .bss           0x00000000        0x0 FLASH_RUN/adc.o
 .text.convert_voltage
                0x00000000        0xa FLASH_RUN/adc.o
 .text          0x00000000        0x0 FLASH_RUN/dac1.o
 .data          0x00000000        0x0 FLASH_RUN/dac1.o
 .bss           0x00000000        0x0 FLASH_RUN/dac1.o
 .text          0x00000000        0x0 FLASH_RUN/wm8978.o
 .data          0x00000000        0x0 FLASH_RUN/wm8978.o
 .bss           0x00000000        0x0 FLASH_RUN/wm8978.o
 .text.WM8978_Read_Reg
                0x00000000        0xc FLASH_RUN/wm8978.o
 .text.WM8978_MIC_Gain
                0x00000000       0x1c FLASH_RUN/wm8978.o
 .text.WM8978_EQ_3D_Dir
                0x00000000       0x1c FLASH_RUN/wm8978.o
 .text          0x00000000        0x0 FLASH_RUN/sdio_sdcard.o
 .data          0x00000000        0x0 FLASH_RUN/sdio_sdcard.o
 .bss           0x00000000        0x0 FLASH_RUN/sdio_sdcard.o
 .text.SD_PowerOFF
                0x00000000        0xc FLASH_RUN/sdio_sdcard.o
 .text.SD_SetDeviceMode
                0x00000000       0x14 FLASH_RUN/sdio_sdcard.o
 .text.SD_SendStatus
                0x00000000       0x48 FLASH_RUN/sdio_sdcard.o
 .text.SD_GetState
                0x00000000       0x1e FLASH_RUN/sdio_sdcard.o
 .text          0x00000000        0x0 FLASH_RUN/i2s.o
 .data          0x00000000        0x0 FLASH_RUN/i2s.o
 .bss           0x00000000        0x0 FLASH_RUN/i2s.o
 .text.I2S2ext_Init
                0x00000000       0x44 FLASH_RUN/i2s.o
 .text.I2S2ext_RX_DMA_Init
                0x00000000       0xa8 FLASH_RUN/i2s.o
 .text.I2S_Rec_Start
                0x00000000        0xc FLASH_RUN/i2s.o
 .text.I2S_Rec_Stop
                0x00000000        0xc FLASH_RUN/i2s.o
 .text          0x00000000        0x0 FLASH_RUN/ext_sram.o
 .data          0x00000000        0x0 FLASH_RUN/ext_sram.o
 .bss           0x00000000        0x0 FLASH_RUN/ext_sram.o
 .text.FSMC_SRAM_WriteBuffer
                0x00000000       0x16 FLASH_RUN/ext_sram.o
 .text.FSMC_SRAM_ReadBuffer
                0x00000000       0x16 FLASH_RUN/ext_sram.o
 .text.fsmc_sram_test_write
                0x00000000       0x18 FLASH_RUN/ext_sram.o
 .text.fsmc_sram_test_read
                0x00000000       0x18 FLASH_RUN/ext_sram.o
 .text          0x00000000        0x0 FLASH_RUN/rtc.o
 .data          0x00000000        0x0 FLASH_RUN/rtc.o
 .bss           0x00000000        0x0 FLASH_RUN/rtc.o
 .text.RTC_Set_AlarmA
                0x00000000       0x90 FLASH_RUN/rtc.o
 .text.RTC_Set_WakeUp
                0x00000000       0x68 FLASH_RUN/rtc.o
 .text.RTC_Get_Week
                0x00000000       0x64 FLASH_RUN/rtc.o
 .rodata.table_week
                0x00000000        0xc FLASH_RUN/rtc.o
 .text          0x00000000        0x0 FLASH_RUN/ff.o
 .data          0x00000000        0x0 FLASH_RUN/ff.o
 .bss           0x00000000        0x0 FLASH_RUN/ff.o
 .text.dir_remove
                0x00000000       0x68 FLASH_RUN/ff.o
 .text.f_write  0x00000000      0x1d0 FLASH_RUN/ff.o
 .text.putc_bfd
                0x00000000       0x44 FLASH_RUN/ff.o
 .text.f_closedir
                0x00000000       0x28 FLASH_RUN/ff.o
 .text.f_stat   0x00000000       0x5a FLASH_RUN/ff.o
 .text.f_getfree
                0x00000000       0xc8 FLASH_RUN/ff.o
 .text.f_truncate
                0x00000000       0xc2 FLASH_RUN/ff.o
 .text.f_unlink
                0x00000000       0xd2 FLASH_RUN/ff.o
 .text.f_mkdir  0x00000000      0x1c0 FLASH_RUN/ff.o
 .text.f_chmod  0x00000000       0x6e FLASH_RUN/ff.o
 .text.f_rename
                0x00000000      0x146 FLASH_RUN/ff.o
 .text.f_utime  0x00000000       0x72 FLASH_RUN/ff.o
 .rodata.f_mkfs.str1.1
                0x00000000       0x34 FLASH_RUN/ff.o
 .text.f_mkfs   0x00000000      0x568 FLASH_RUN/ff.o
 .text.f_gets   0x00000000       0x4a FLASH_RUN/ff.o
 .text.f_putc   0x00000000       0x3e FLASH_RUN/ff.o
 .text.f_puts   0x00000000       0x44 FLASH_RUN/ff.o
 .text.f_printf
                0x00000000      0x29c FLASH_RUN/ff.o
 .rodata.cst.0  0x00000000       0x16 FLASH_RUN/ff.o
 .rodata.vst.1  0x00000000       0x16 FLASH_RUN/ff.o
 .text          0x00000000        0x0 FLASH_RUN/diskio.o
 .data          0x00000000        0x0 FLASH_RUN/diskio.o
 .bss           0x00000000        0x0 FLASH_RUN/diskio.o
 .text.ff_enter
                0x00000000       0x2c FLASH_RUN/diskio.o
 .text.ff_leave
                0x00000000       0x34 FLASH_RUN/diskio.o
 .bss.fstype    0x00000000        0x1 FLASH_RUN/diskio.o
 .bss.cnt1      0x00000000        0x1 FLASH_RUN/diskio.o
 .bss.cnt0      0x00000000        0x1 FLASH_RUN/diskio.o
 .bss.FLASH_SECTOR_COUNT
                0x00000000        0x2 FLASH_RUN/diskio.o
 .text          0x00000000        0x0 FLASH_RUN/cc949.o
 .data          0x00000000        0x0 FLASH_RUN/cc949.o
 .bss           0x00000000        0x0 FLASH_RUN/cc949.o
 .text          0x00000000        0x0 FLASH_RUN/audio.o
 .data          0x00000000        0x0 FLASH_RUN/audio.o
 .bss           0x00000000        0x0 FLASH_RUN/audio.o
 .text.get_heap_end
                0x00000000        0xc FLASH_RUN/audio.o
 .text.get_stack_top
                0x00000000        0x6 FLASH_RUN/audio.o
 .text.char_upper
                0x00000000        0xa FLASH_RUN/audio.o
 .bss.bw        0x00000000        0x4 FLASH_RUN/audio.o
 .bss.br        0x00000000        0x4 FLASH_RUN/audio.o
 .text          0x00000000        0x0 FLASH_RUN/mp3play.o
 .data          0x00000000        0x0 FLASH_RUN/mp3play.o
 .bss           0x00000000        0x0 FLASH_RUN/mp3play.o
 .text          0x00000000        0x0 FLASH_RUN/wavplay.o
 .data          0x00000000        0x0 FLASH_RUN/wavplay.o
 .bss           0x00000000        0x0 FLASH_RUN/wavplay.o
 .text          0x00000000        0x0 FLASH_RUN/flacplay.o
 .data          0x00000000        0x0 FLASH_RUN/flacplay.o
 .bss           0x00000000        0x0 FLASH_RUN/flacplay.o
 .text          0x00000000        0x0 FLASH_RUN/apeplay.o
 .data          0x00000000        0x0 FLASH_RUN/apeplay.o
 .bss           0x00000000        0x0 FLASH_RUN/apeplay.o
 .text          0x00000000        0x0 c:/project/stm32fx_iolib/stm32f4x_iolib/stm32f4x_iolib_168MHz_8MHz.a(startup_stm32f4xx.o)
 .data          0x00000000        0x0 c:/project/stm32fx_iolib/stm32f4x_iolib/stm32f4x_iolib_168MHz_8MHz.a(startup_stm32f4xx.o)
 .bss           0x00000000        0x0 c:/project/stm32fx_iolib/stm32f4x_iolib/stm32f4x_iolib_168MHz_8MHz.a(startup_stm32f4xx.o)
 .rodata.str1.1
                0x00000000       0x34 c:/project/stm32fx_iolib/stm32f4x_iolib/stm32f4x_iolib_168MHz_8MHz.a(startup_stm32f4xx.o)
 .data.hl2irw   0x00000000        0x4 c:/project/stm32fx_iolib/stm32f4x_iolib/stm32f4x_iolib_168MHz_8MHz.a(startup_stm32f4xx.o)
 .text          0x00000000        0x0 c:/project/stm32fx_iolib/stm32f4x_iolib/stm32f4x_iolib_168MHz_8MHz.a(system_stm32f4xx.o)
 .data          0x00000000        0x0 c:/project/stm32fx_iolib/stm32f4x_iolib/stm32f4x_iolib_168MHz_8MHz.a(system_stm32f4xx.o)
 .bss           0x00000000        0x0 c:/project/stm32fx_iolib/stm32f4x_iolib/stm32f4x_iolib_168MHz_8MHz.a(system_stm32f4xx.o)
 .text.SystemCoreClockUpdate
                0x00000000       0x74 c:/project/stm32fx_iolib/stm32f4x_iolib/stm32f4x_iolib_168MHz_8MHz.a(system_stm32f4xx.o)
 .data.AHBPrescTable
                0x00000000       0x10 c:/project/stm32fx_iolib/stm32f4x_iolib/stm32f4x_iolib_168MHz_8MHz.a(system_stm32f4xx.o)
 .text          0x00000000        0x0 c:/project/stm32fx_iolib/stm32f4x_iolib/stm32f4x_iolib_168MHz_8MHz.a(misc.o)
 .data          0x00000000        0x0 c:/project/stm32fx_iolib/stm32f4x_iolib/stm32f4x_iolib_168MHz_8MHz.a(misc.o)
 .bss           0x00000000        0x0 c:/project/stm32fx_iolib/stm32f4x_iolib/stm32f4x_iolib_168MHz_8MHz.a(misc.o)
 .text.NVIC_SystemLPConfig
                0x00000000       0x18 c:/project/stm32fx_iolib/stm32f4x_iolib/stm32f4x_iolib_168MHz_8MHz.a(misc.o)
 .text.SysTick_CLKSourceConfig
                0x00000000       0x16 c:/project/stm32fx_iolib/stm32f4x_iolib/stm32f4x_iolib_168MHz_8MHz.a(misc.o)
 .text          0x00000000        0x0 c:/project/stm32fx_iolib/stm32f4x_iolib/stm32f4x_iolib_168MHz_8MHz.a(stm32f4xx_adc.o)
 .data          0x00000000        0x0 c:/project/stm32fx_iolib/stm32f4x_iolib/stm32f4x_iolib_168MHz_8MHz.a(stm32f4xx_adc.o)
 .bss           0x00000000        0x0 c:/project/stm32fx_iolib/stm32f4x_iolib/stm32f4x_iolib_168MHz_8MHz.a(stm32f4xx_adc.o)
 .text.ADC_DeInit
                0x00000000       0x1a c:/project/stm32fx_iolib/stm32f4x_iolib/stm32f4x_iolib_168MHz_8MHz.a(stm32f4xx_adc.o)
 .text.ADC_StructInit
                0x00000000       0x12 c:/project/stm32fx_iolib/stm32f4x_iolib/stm32f4x_iolib_168MHz_8MHz.a(stm32f4xx_adc.o)
 .text.ADC_CommonStructInit
                0x00000000        0xc c:/project/stm32fx_iolib/stm32f4x_iolib/stm32f4x_iolib_168MHz_8MHz.a(stm32f4xx_adc.o)
 .text.ADC_AnalogWatchdogCmd
                0x00000000       0x10 c:/project/stm32fx_iolib/stm32f4x_iolib/stm32f4x_iolib_168MHz_8MHz.a(stm32f4xx_adc.o)
 .text.ADC_AnalogWatchdogThresholdsConfig
                0x00000000        0x6 c:/project/stm32fx_iolib/stm32f4x_iolib/stm32f4x_iolib_168MHz_8MHz.a(stm32f4xx_adc.o)
 .text.ADC_AnalogWatchdogSingleChannelConfig
                0x00000000        0xc c:/project/stm32fx_iolib/stm32f4x_iolib/stm32f4x_iolib_168MHz_8MHz.a(stm32f4xx_adc.o)
 .text.ADC_VBATCmd
                0x00000000       0x18 c:/project/stm32fx_iolib/stm32f4x_iolib/stm32f4x_iolib_168MHz_8MHz.a(stm32f4xx_adc.o)
 .text.ADC_GetSoftwareStartConvStatus
                0x00000000        0x8 c:/project/stm32fx_iolib/stm32f4x_iolib/stm32f4x_iolib_168MHz_8MHz.a(stm32f4xx_adc.o)
 .text.ADC_EOCOnEachRegularChannelCmd
                0x00000000       0x12 c:/project/stm32fx_iolib/stm32f4x_iolib/stm32f4x_iolib_168MHz_8MHz.a(stm32f4xx_adc.o)
 .text.ADC_ContinuousModeCmd
                0x00000000       0x12 c:/project/stm32fx_iolib/stm32f4x_iolib/stm32f4x_iolib_168MHz_8MHz.a(stm32f4xx_adc.o)
 .text.ADC_DiscModeChannelCountConfig
                0x00000000       0x10 c:/project/stm32fx_iolib/stm32f4x_iolib/stm32f4x_iolib_168MHz_8MHz.a(stm32f4xx_adc.o)
 .text.ADC_DiscModeCmd
                0x00000000       0x12 c:/project/stm32fx_iolib/stm32f4x_iolib/stm32f4x_iolib_168MHz_8MHz.a(stm32f4xx_adc.o)
 .text.ADC_GetMultiModeConversionValue
                0x00000000        0xc c:/project/stm32fx_iolib/stm32f4x_iolib/stm32f4x_iolib_168MHz_8MHz.a(stm32f4xx_adc.o)
 .text.ADC_DMACmd
                0x00000000       0x12 c:/project/stm32fx_iolib/stm32f4x_iolib/stm32f4x_iolib_168MHz_8MHz.a(stm32f4xx_adc.o)
 .text.ADC_DMARequestAfterLastTransferCmd
                0x00000000       0x12 c:/project/stm32fx_iolib/stm32f4x_iolib/stm32f4x_iolib_168MHz_8MHz.a(stm32f4xx_adc.o)
 .text.ADC_MultiModeDMARequestAfterLastTransferCmd
                0x00000000       0x18 c:/project/stm32fx_iolib/stm32f4x_iolib/stm32f4x_iolib_168MHz_8MHz.a(stm32f4xx_adc.o)
 .text.ADC_InjectedChannelConfig
                0x00000000       0x58 c:/project/stm32fx_iolib/stm32f4x_iolib/stm32f4x_iolib_168MHz_8MHz.a(stm32f4xx_adc.o)
 .text.ADC_InjectedSequencerLengthConfig
                0x00000000       0x10 c:/project/stm32fx_iolib/stm32f4x_iolib/stm32f4x_iolib_168MHz_8MHz.a(stm32f4xx_adc.o)
 .text.ADC_SetInjectedOffset
                0x00000000       0x16 c:/project/stm32fx_iolib/stm32f4x_iolib/stm32f4x_iolib_168MHz_8MHz.a(stm32f4xx_adc.o)
 .text.ADC_ExternalTrigInjectedConvConfig
                0x00000000        0xc c:/project/stm32fx_iolib/stm32f4x_iolib/stm32f4x_iolib_168MHz_8MHz.a(stm32f4xx_adc.o)
 .text.ADC_ExternalTrigInjectedConvEdgeConfig
                0x00000000        0xc c:/project/stm32fx_iolib/stm32f4x_iolib/stm32f4x_iolib_168MHz_8MHz.a(stm32f4xx_adc.o)
 .text.ADC_SoftwareStartInjectedConv
                0x00000000        0xa c:/project/stm32fx_iolib/stm32f4x_iolib/stm32f4x_iolib_168MHz_8MHz.a(stm32f4xx_adc.o)
 .text.ADC_GetSoftwareStartInjectedConvCmdStatus
                0x00000000        0x8 c:/project/stm32fx_iolib/stm32f4x_iolib/stm32f4x_iolib_168MHz_8MHz.a(stm32f4xx_adc.o)
 .text.ADC_AutoInjectedConvCmd
                0x00000000       0x12 c:/project/stm32fx_iolib/stm32f4x_iolib/stm32f4x_iolib_168MHz_8MHz.a(stm32f4xx_adc.o)
 .text.ADC_InjectedDiscModeCmd
                0x00000000       0x12 c:/project/stm32fx_iolib/stm32f4x_iolib/stm32f4x_iolib_168MHz_8MHz.a(stm32f4xx_adc.o)
 .text.ADC_GetInjectedConversionValue
                0x00000000       0x1a c:/project/stm32fx_iolib/stm32f4x_iolib/stm32f4x_iolib_168MHz_8MHz.a(stm32f4xx_adc.o)
 .text.ADC_ITConfig
                0x00000000       0x16 c:/project/stm32fx_iolib/stm32f4x_iolib/stm32f4x_iolib_168MHz_8MHz.a(stm32f4xx_adc.o)
 .text.ADC_ClearFlag
                0x00000000        0x6 c:/project/stm32fx_iolib/stm32f4x_iolib/stm32f4x_iolib_168MHz_8MHz.a(stm32f4xx_adc.o)
 .text.ADC_GetITStatus
                0x00000000       0x1c c:/project/stm32fx_iolib/stm32f4x_iolib/stm32f4x_iolib_168MHz_8MHz.a(stm32f4xx_adc.o)
 .text.ADC_ClearITPendingBit
                0x00000000        0x8 c:/project/stm32fx_iolib/stm32f4x_iolib/stm32f4x_iolib_168MHz_8MHz.a(stm32f4xx_adc.o)
 .text          0x00000000        0x0 c:/project/stm32fx_iolib/stm32f4x_iolib/stm32f4x_iolib_168MHz_8MHz.a(stm32f4xx_dac.o)
 .data          0x00000000        0x0 c:/project/stm32fx_iolib/stm32f4x_iolib/stm32f4x_iolib_168MHz_8MHz.a(stm32f4xx_dac.o)
 .bss           0x00000000        0x0 c:/project/stm32fx_iolib/stm32f4x_iolib/stm32f4x_iolib_168MHz_8MHz.a(stm32f4xx_dac.o)
 .text.DAC_DeInit
                0x00000000       0x1a c:/project/stm32fx_iolib/stm32f4x_iolib/stm32f4x_iolib_168MHz_8MHz.a(stm32f4xx_dac.o)
 .text.DAC_StructInit
                0x00000000        0xc c:/project/stm32fx_iolib/stm32f4x_iolib/stm32f4x_iolib_168MHz_8MHz.a(stm32f4xx_dac.o)
 .text.DAC_SoftwareTriggerCmd
                0x00000000       0x20 c:/project/stm32fx_iolib/stm32f4x_iolib/stm32f4x_iolib_168MHz_8MHz.a(stm32f4xx_dac.o)
 .text.DAC_DualSoftwareTriggerCmd
                0x00000000       0x18 c:/project/stm32fx_iolib/stm32f4x_iolib/stm32f4x_iolib_168MHz_8MHz.a(stm32f4xx_dac.o)
 .text.DAC_WaveGenerationCmd
                0x00000000       0x18 c:/project/stm32fx_iolib/stm32f4x_iolib/stm32f4x_iolib_168MHz_8MHz.a(stm32f4xx_dac.o)
 .text.DAC_SetChannel2Data
                0x00000000       0x20 c:/project/stm32fx_iolib/stm32f4x_iolib/stm32f4x_iolib_168MHz_8MHz.a(stm32f4xx_dac.o)
 .text.DAC_SetDualChannelData
                0x00000000       0x18 c:/project/stm32fx_iolib/stm32f4x_iolib/stm32f4x_iolib_168MHz_8MHz.a(stm32f4xx_dac.o)
 .text.DAC_GetDataOutputValue
                0x00000000       0x24 c:/project/stm32fx_iolib/stm32f4x_iolib/stm32f4x_iolib_168MHz_8MHz.a(stm32f4xx_dac.o)
 .text.DAC_DMACmd
                0x00000000       0x20 c:/project/stm32fx_iolib/stm32f4x_iolib/stm32f4x_iolib_168MHz_8MHz.a(stm32f4xx_dac.o)
 .text.DAC_ITConfig
                0x00000000        0x4 c:/project/stm32fx_iolib/stm32f4x_iolib/stm32f4x_iolib_168MHz_8MHz.a(stm32f4xx_dac.o)
 .text.DAC_GetFlagStatus
                0x00000000       0x18 c:/project/stm32fx_iolib/stm32f4x_iolib/stm32f4x_iolib_168MHz_8MHz.a(stm32f4xx_dac.o)
 .text.DAC_ClearFlag
                0x00000000       0x10 c:/project/stm32fx_iolib/stm32f4x_iolib/stm32f4x_iolib_168MHz_8MHz.a(stm32f4xx_dac.o)
 .text.DAC_GetITStatus
                0x00000000       0x1c c:/project/stm32fx_iolib/stm32f4x_iolib/stm32f4x_iolib_168MHz_8MHz.a(stm32f4xx_dac.o)
 .text.DAC_ClearITPendingBit
                0x00000000       0x10 c:/project/stm32fx_iolib/stm32f4x_iolib/stm32f4x_iolib_168MHz_8MHz.a(stm32f4xx_dac.o)
 .text          0x00000000        0x0 c:/project/stm32fx_iolib/stm32f4x_iolib/stm32f4x_iolib_168MHz_8MHz.a(stm32f4xx_dma.o)
 .data          0x00000000        0x0 c:/project/stm32fx_iolib/stm32f4x_iolib/stm32f4x_iolib_168MHz_8MHz.a(stm32f4xx_dma.o)
 .bss           0x00000000        0x0 c:/project/stm32fx_iolib/stm32f4x_iolib/stm32f4x_iolib_168MHz_8MHz.a(stm32f4xx_dma.o)
 .text.DMA_StructInit
                0x00000000       0x22 c:/project/stm32fx_iolib/stm32f4x_iolib/stm32f4x_iolib_168MHz_8MHz.a(stm32f4xx_dma.o)
 .text.DMA_PeriphIncOffsetSizeConfig
                0x00000000       0x12 c:/project/stm32fx_iolib/stm32f4x_iolib/stm32f4x_iolib_168MHz_8MHz.a(stm32f4xx_dma.o)
 .text.DMA_SetCurrDataCounter
                0x00000000        0x4 c:/project/stm32fx_iolib/stm32f4x_iolib/stm32f4x_iolib_168MHz_8MHz.a(stm32f4xx_dma.o)
 .text.DMA_GetCurrDataCounter
                0x00000000        0x6 c:/project/stm32fx_iolib/stm32f4x_iolib/stm32f4x_iolib_168MHz_8MHz.a(stm32f4xx_dma.o)
 .text.DMA_MemoryTargetConfig
                0x00000000        0xa c:/project/stm32fx_iolib/stm32f4x_iolib/stm32f4x_iolib_168MHz_8MHz.a(stm32f4xx_dma.o)
 .text.DMA_GetCurrentMemoryTarget
                0x00000000        0x8 c:/project/stm32fx_iolib/stm32f4x_iolib/stm32f4x_iolib_168MHz_8MHz.a(stm32f4xx_dma.o)
 .text.DMA_GetFIFOStatus
                0x00000000        0x8 c:/project/stm32fx_iolib/stm32f4x_iolib/stm32f4x_iolib_168MHz_8MHz.a(stm32f4xx_dma.o)
 .text.DMA_GetFlagStatus
                0x00000000       0x34 c:/project/stm32fx_iolib/stm32f4x_iolib/stm32f4x_iolib_168MHz_8MHz.a(stm32f4xx_dma.o)
 .text          0x00000000        0x0 c:/project/stm32fx_iolib/stm32f4x_iolib/stm32f4x_iolib_168MHz_8MHz.a(stm32f4xx_exti.o)
 .data          0x00000000        0x0 c:/project/stm32fx_iolib/stm32f4x_iolib/stm32f4x_iolib_168MHz_8MHz.a(stm32f4xx_exti.o)
 .bss           0x00000000        0x0 c:/project/stm32fx_iolib/stm32f4x_iolib/stm32f4x_iolib_168MHz_8MHz.a(stm32f4xx_exti.o)
 .text.EXTI_DeInit
                0x00000000       0x1c c:/project/stm32fx_iolib/stm32f4x_iolib/stm32f4x_iolib_168MHz_8MHz.a(stm32f4xx_exti.o)
 .text.EXTI_Init
                0x00000000       0x6c c:/project/stm32fx_iolib/stm32f4x_iolib/stm32f4x_iolib_168MHz_8MHz.a(stm32f4xx_exti.o)
 .text.EXTI_StructInit
                0x00000000        0xe c:/project/stm32fx_iolib/stm32f4x_iolib/stm32f4x_iolib_168MHz_8MHz.a(stm32f4xx_exti.o)
 .text.EXTI_GenerateSWInterrupt
                0x00000000       0x10 c:/project/stm32fx_iolib/stm32f4x_iolib/stm32f4x_iolib_168MHz_8MHz.a(stm32f4xx_exti.o)
 .text.EXTI_GetFlagStatus
                0x00000000       0x14 c:/project/stm32fx_iolib/stm32f4x_iolib/stm32f4x_iolib_168MHz_8MHz.a(stm32f4xx_exti.o)
 .text.EXTI_ClearFlag
                0x00000000        0xc c:/project/stm32fx_iolib/stm32f4x_iolib/stm32f4x_iolib_168MHz_8MHz.a(stm32f4xx_exti.o)
 .text.EXTI_GetITStatus
                0x00000000        0x4 c:/project/stm32fx_iolib/stm32f4x_iolib/stm32f4x_iolib_168MHz_8MHz.a(stm32f4xx_exti.o)
 .text          0x00000000        0x0 c:/project/stm32fx_iolib/stm32f4x_iolib/stm32f4x_iolib_168MHz_8MHz.a(stm32f4xx_flash.o)
 .data          0x00000000        0x0 c:/project/stm32fx_iolib/stm32f4x_iolib/stm32f4x_iolib_168MHz_8MHz.a(stm32f4xx_flash.o)
 .bss           0x00000000        0x0 c:/project/stm32fx_iolib/stm32f4x_iolib/stm32f4x_iolib_168MHz_8MHz.a(stm32f4xx_flash.o)
 .text.FLASH_SetLatency
                0x00000000        0xc c:/project/stm32fx_iolib/stm32f4x_iolib/stm32f4x_iolib_168MHz_8MHz.a(stm32f4xx_flash.o)
 .text.FLASH_PrefetchBufferCmd
                0x00000000       0x18 c:/project/stm32fx_iolib/stm32f4x_iolib/stm32f4x_iolib_168MHz_8MHz.a(stm32f4xx_flash.o)
 .text.FLASH_InstructionCacheCmd
                0x00000000       0x18 c:/project/stm32fx_iolib/stm32f4x_iolib/stm32f4x_iolib_168MHz_8MHz.a(stm32f4xx_flash.o)
 .text.FLASH_DataCacheCmd
                0x00000000       0x18 c:/project/stm32fx_iolib/stm32f4x_iolib/stm32f4x_iolib_168MHz_8MHz.a(stm32f4xx_flash.o)
 .text.FLASH_InstructionCacheReset
                0x00000000       0x10 c:/project/stm32fx_iolib/stm32f4x_iolib/stm32f4x_iolib_168MHz_8MHz.a(stm32f4xx_flash.o)
 .text.FLASH_DataCacheReset
                0x00000000       0x10 c:/project/stm32fx_iolib/stm32f4x_iolib/stm32f4x_iolib_168MHz_8MHz.a(stm32f4xx_flash.o)
 .text.FLASH_OB_PCROPSelectionConfig
                0x00000000       0x14 c:/project/stm32fx_iolib/stm32f4x_iolib/stm32f4x_iolib_168MHz_8MHz.a(stm32f4xx_flash.o)
 .text.FLASH_OB_BootConfig
                0x00000000       0x18 c:/project/stm32fx_iolib/stm32f4x_iolib/stm32f4x_iolib_168MHz_8MHz.a(stm32f4xx_flash.o)
 .text.FLASH_OB_BORConfig
                0x00000000       0x18 c:/project/stm32fx_iolib/stm32f4x_iolib/stm32f4x_iolib_168MHz_8MHz.a(stm32f4xx_flash.o)
 .text.FLASH_OB_GetUser
                0x00000000       0x10 c:/project/stm32fx_iolib/stm32f4x_iolib/stm32f4x_iolib_168MHz_8MHz.a(stm32f4xx_flash.o)
 .text.FLASH_OB_GetWRP
                0x00000000        0xc c:/project/stm32fx_iolib/stm32f4x_iolib/stm32f4x_iolib_168MHz_8MHz.a(stm32f4xx_flash.o)
 .text.FLASH_OB_GetWRP1
                0x00000000        0xc c:/project/stm32fx_iolib/stm32f4x_iolib/stm32f4x_iolib_168MHz_8MHz.a(stm32f4xx_flash.o)
 .text.FLASH_OB_GetPCROP
                0x00000000        0xc c:/project/stm32fx_iolib/stm32f4x_iolib/stm32f4x_iolib_168MHz_8MHz.a(stm32f4xx_flash.o)
 .text.FLASH_OB_GetPCROP1
                0x00000000        0xc c:/project/stm32fx_iolib/stm32f4x_iolib/stm32f4x_iolib_168MHz_8MHz.a(stm32f4xx_flash.o)
 .text.FLASH_OB_GetBOR
                0x00000000       0x10 c:/project/stm32fx_iolib/stm32f4x_iolib/stm32f4x_iolib_168MHz_8MHz.a(stm32f4xx_flash.o)
 .text.FLASH_ITConfig
                0x00000000       0x18 c:/project/stm32fx_iolib/stm32f4x_iolib/stm32f4x_iolib_168MHz_8MHz.a(stm32f4xx_flash.o)
 .text.FLASH_GetFlagStatus
                0x00000000       0x14 c:/project/stm32fx_iolib/stm32f4x_iolib/stm32f4x_iolib_168MHz_8MHz.a(stm32f4xx_flash.o)
 .text.FLASH_ClearFlag
                0x00000000        0xc c:/project/stm32fx_iolib/stm32f4x_iolib/stm32f4x_iolib_168MHz_8MHz.a(stm32f4xx_flash.o)
 .text.FLASH_EraseSector
                0x00000000       0x6c c:/project/stm32fx_iolib/stm32f4x_iolib/stm32f4x_iolib_168MHz_8MHz.a(stm32f4xx_flash.o)
 .text.FLASH_EraseAllSectors
                0x00000000       0x5c c:/project/stm32fx_iolib/stm32f4x_iolib/stm32f4x_iolib_168MHz_8MHz.a(stm32f4xx_flash.o)
 .text.FLASH_EraseAllBank1Sectors
                0x00000000        0x4 c:/project/stm32fx_iolib/stm32f4x_iolib/stm32f4x_iolib_168MHz_8MHz.a(stm32f4xx_flash.o)
 .text.FLASH_EraseAllBank2Sectors
                0x00000000       0x5c c:/project/stm32fx_iolib/stm32f4x_iolib/stm32f4x_iolib_168MHz_8MHz.a(stm32f4xx_flash.o)
 .text.FLASH_ProgramDoubleWord
                0x00000000       0x40 c:/project/stm32fx_iolib/stm32f4x_iolib/stm32f4x_iolib_168MHz_8MHz.a(stm32f4xx_flash.o)
 .text.FLASH_ProgramWord
                0x00000000       0x3c c:/project/stm32fx_iolib/stm32f4x_iolib/stm32f4x_iolib_168MHz_8MHz.a(stm32f4xx_flash.o)
 .text.FLASH_ProgramHalfWord
                0x00000000       0x3c c:/project/stm32fx_iolib/stm32f4x_iolib/stm32f4x_iolib_168MHz_8MHz.a(stm32f4xx_flash.o)
 .text.FLASH_ProgramByte
                0x00000000       0x38 c:/project/stm32fx_iolib/stm32f4x_iolib/stm32f4x_iolib_168MHz_8MHz.a(stm32f4xx_flash.o)
 .text.FLASH_OB_WRPConfig
                0x00000000       0x28 c:/project/stm32fx_iolib/stm32f4x_iolib/stm32f4x_iolib_168MHz_8MHz.a(stm32f4xx_flash.o)
 .text.FLASH_OB_WRP1Config
                0x00000000       0x28 c:/project/stm32fx_iolib/stm32f4x_iolib/stm32f4x_iolib_168MHz_8MHz.a(stm32f4xx_flash.o)
 .text.FLASH_OB_PCROPConfig
                0x00000000       0x28 c:/project/stm32fx_iolib/stm32f4x_iolib/stm32f4x_iolib_168MHz_8MHz.a(stm32f4xx_flash.o)
 .text.FLASH_OB_PCROP1Config
                0x00000000       0x28 c:/project/stm32fx_iolib/stm32f4x_iolib/stm32f4x_iolib_168MHz_8MHz.a(stm32f4xx_flash.o)
 .text.FLASH_OB_UserConfig
                0x00000000       0x28 c:/project/stm32fx_iolib/stm32f4x_iolib/stm32f4x_iolib_168MHz_8MHz.a(stm32f4xx_flash.o)
 .text          0x00000000        0x0 c:/project/stm32fx_iolib/stm32f4x_iolib/stm32f4x_iolib_168MHz_8MHz.a(stm32f4xx_gpio.o)
 .data          0x00000000        0x0 c:/project/stm32fx_iolib/stm32f4x_iolib/stm32f4x_iolib_168MHz_8MHz.a(stm32f4xx_gpio.o)
 .bss           0x00000000        0x0 c:/project/stm32fx_iolib/stm32f4x_iolib/stm32f4x_iolib_168MHz_8MHz.a(stm32f4xx_gpio.o)
 .text.GPIO_DeInit
                0x00000000      0x120 c:/project/stm32fx_iolib/stm32f4x_iolib/stm32f4x_iolib_168MHz_8MHz.a(stm32f4xx_gpio.o)
 .text.GPIO_StructInit
                0x00000000        0xc c:/project/stm32fx_iolib/stm32f4x_iolib/stm32f4x_iolib_168MHz_8MHz.a(stm32f4xx_gpio.o)
 .text.GPIO_PinLockConfig
                0x00000000       0x24 c:/project/stm32fx_iolib/stm32f4x_iolib/stm32f4x_iolib_168MHz_8MHz.a(stm32f4xx_gpio.o)
 .text.GPIO_ReadInputDataBit
                0x00000000        0xc c:/project/stm32fx_iolib/stm32f4x_iolib/stm32f4x_iolib_168MHz_8MHz.a(stm32f4xx_gpio.o)
 .text.GPIO_ReadInputData
                0x00000000        0x6 c:/project/stm32fx_iolib/stm32f4x_iolib/stm32f4x_iolib_168MHz_8MHz.a(stm32f4xx_gpio.o)
 .text.GPIO_ReadOutputDataBit
                0x00000000        0xc c:/project/stm32fx_iolib/stm32f4x_iolib/stm32f4x_iolib_168MHz_8MHz.a(stm32f4xx_gpio.o)
 .text.GPIO_ReadOutputData
                0x00000000        0x6 c:/project/stm32fx_iolib/stm32f4x_iolib/stm32f4x_iolib_168MHz_8MHz.a(stm32f4xx_gpio.o)
 .text.GPIO_SetBits
                0x00000000        0x4 c:/project/stm32fx_iolib/stm32f4x_iolib/stm32f4x_iolib_168MHz_8MHz.a(stm32f4xx_gpio.o)
 .text.GPIO_ResetBits
                0x00000000        0x4 c:/project/stm32fx_iolib/stm32f4x_iolib/stm32f4x_iolib_168MHz_8MHz.a(stm32f4xx_gpio.o)
 .text.GPIO_WriteBit
                0x00000000        0xa c:/project/stm32fx_iolib/stm32f4x_iolib/stm32f4x_iolib_168MHz_8MHz.a(stm32f4xx_gpio.o)
 .text.GPIO_Write
                0x00000000        0x4 c:/project/stm32fx_iolib/stm32f4x_iolib/stm32f4x_iolib_168MHz_8MHz.a(stm32f4xx_gpio.o)
 .text.GPIO_ToggleBits
                0x00000000        0x8 c:/project/stm32fx_iolib/stm32f4x_iolib/stm32f4x_iolib_168MHz_8MHz.a(stm32f4xx_gpio.o)
 .text          0x00000000        0x0 c:/project/stm32fx_iolib/stm32f4x_iolib/stm32f4x_iolib_168MHz_8MHz.a(stm32f4xx_i2c.o)
 .data          0x00000000        0x0 c:/project/stm32fx_iolib/stm32f4x_iolib/stm32f4x_iolib_168MHz_8MHz.a(stm32f4xx_i2c.o)
 .bss           0x00000000        0x0 c:/project/stm32fx_iolib/stm32f4x_iolib/stm32f4x_iolib_168MHz_8MHz.a(stm32f4xx_i2c.o)
 .text.I2C_StructInit
                0x00000000       0x1c c:/project/stm32fx_iolib/stm32f4x_iolib/stm32f4x_iolib_168MHz_8MHz.a(stm32f4xx_i2c.o)
 .text.I2C_AnalogFilterCmd
                0x00000000       0x18 c:/project/stm32fx_iolib/stm32f4x_iolib/stm32f4x_iolib_168MHz_8MHz.a(stm32f4xx_i2c.o)
 .text.I2C_DigitalFilterConfig
                0x00000000       0x12 c:/project/stm32fx_iolib/stm32f4x_iolib/stm32f4x_iolib_168MHz_8MHz.a(stm32f4xx_i2c.o)
 .text.I2C_OwnAddress2Config
                0x00000000       0x12 c:/project/stm32fx_iolib/stm32f4x_iolib/stm32f4x_iolib_168MHz_8MHz.a(stm32f4xx_i2c.o)
 .text.I2C_DualAddressCmd
                0x00000000       0x18 c:/project/stm32fx_iolib/stm32f4x_iolib/stm32f4x_iolib_168MHz_8MHz.a(stm32f4xx_i2c.o)
 .text.I2C_GeneralCallCmd
                0x00000000       0x18 c:/project/stm32fx_iolib/stm32f4x_iolib/stm32f4x_iolib_168MHz_8MHz.a(stm32f4xx_i2c.o)
 .text.I2C_SoftwareResetCmd
                0x00000000       0x18 c:/project/stm32fx_iolib/stm32f4x_iolib/stm32f4x_iolib_168MHz_8MHz.a(stm32f4xx_i2c.o)
 .text.I2C_StretchClockCmd
                0x00000000       0x18 c:/project/stm32fx_iolib/stm32f4x_iolib/stm32f4x_iolib_168MHz_8MHz.a(stm32f4xx_i2c.o)
 .text.I2C_FastModeDutyCycleConfig
                0x00000000       0x1c c:/project/stm32fx_iolib/stm32f4x_iolib/stm32f4x_iolib_168MHz_8MHz.a(stm32f4xx_i2c.o)
 .text.I2C_NACKPositionConfig
                0x00000000       0x1c c:/project/stm32fx_iolib/stm32f4x_iolib/stm32f4x_iolib_168MHz_8MHz.a(stm32f4xx_i2c.o)
 .text.I2C_SMBusAlertConfig
                0x00000000       0x1c c:/project/stm32fx_iolib/stm32f4x_iolib/stm32f4x_iolib_168MHz_8MHz.a(stm32f4xx_i2c.o)
 .text.I2C_ARPCmd
                0x00000000       0x18 c:/project/stm32fx_iolib/stm32f4x_iolib/stm32f4x_iolib_168MHz_8MHz.a(stm32f4xx_i2c.o)
 .text.I2C_TransmitPEC
                0x00000000       0x18 c:/project/stm32fx_iolib/stm32f4x_iolib/stm32f4x_iolib_168MHz_8MHz.a(stm32f4xx_i2c.o)
 .text.I2C_PECPositionConfig
                0x00000000        0x4 c:/project/stm32fx_iolib/stm32f4x_iolib/stm32f4x_iolib_168MHz_8MHz.a(stm32f4xx_i2c.o)
 .text.I2C_CalculatePEC
                0x00000000       0x18 c:/project/stm32fx_iolib/stm32f4x_iolib/stm32f4x_iolib_168MHz_8MHz.a(stm32f4xx_i2c.o)
 .text.I2C_GetPEC
                0x00000000        0x8 c:/project/stm32fx_iolib/stm32f4x_iolib/stm32f4x_iolib_168MHz_8MHz.a(stm32f4xx_i2c.o)
 .text.I2C_DMACmd
                0x00000000       0x18 c:/project/stm32fx_iolib/stm32f4x_iolib/stm32f4x_iolib_168MHz_8MHz.a(stm32f4xx_i2c.o)
 .text.I2C_DMALastTransferCmd
                0x00000000       0x18 c:/project/stm32fx_iolib/stm32f4x_iolib/stm32f4x_iolib_168MHz_8MHz.a(stm32f4xx_i2c.o)
 .text.I2C_ReadRegister
                0x00000000       0x18 c:/project/stm32fx_iolib/stm32f4x_iolib/stm32f4x_iolib_168MHz_8MHz.a(stm32f4xx_i2c.o)
 .text.I2C_ITConfig
                0x00000000       0x12 c:/project/stm32fx_iolib/stm32f4x_iolib/stm32f4x_iolib_168MHz_8MHz.a(stm32f4xx_i2c.o)
 .text.I2C_GetITStatus
                0x00000000       0x1c c:/project/stm32fx_iolib/stm32f4x_iolib/stm32f4x_iolib_168MHz_8MHz.a(stm32f4xx_i2c.o)
 .text.I2C_ClearITPendingBit
                0x00000000        0x8 c:/project/stm32fx_iolib/stm32f4x_iolib/stm32f4x_iolib_168MHz_8MHz.a(stm32f4xx_i2c.o)
 .text          0x00000000        0x0 c:/project/stm32fx_iolib/stm32f4x_iolib/stm32f4x_iolib_168MHz_8MHz.a(stm32f4xx_iwdg.o)
 .data          0x00000000        0x0 c:/project/stm32fx_iolib/stm32f4x_iolib/stm32f4x_iolib_168MHz_8MHz.a(stm32f4xx_iwdg.o)
 .bss           0x00000000        0x0 c:/project/stm32fx_iolib/stm32f4x_iolib/stm32f4x_iolib_168MHz_8MHz.a(stm32f4xx_iwdg.o)
 .text.IWDG_GetFlagStatus
                0x00000000       0x14 c:/project/stm32fx_iolib/stm32f4x_iolib/stm32f4x_iolib_168MHz_8MHz.a(stm32f4xx_iwdg.o)
 .text          0x00000000        0x0 c:/project/stm32fx_iolib/stm32f4x_iolib/stm32f4x_iolib_168MHz_8MHz.a(stm32f4xx_pwr.o)
 .data          0x00000000        0x0 c:/project/stm32fx_iolib/stm32f4x_iolib/stm32f4x_iolib_168MHz_8MHz.a(stm32f4xx_pwr.o)
 .bss           0x00000000        0x0 c:/project/stm32fx_iolib/stm32f4x_iolib/stm32f4x_iolib_168MHz_8MHz.a(stm32f4xx_pwr.o)
 .text.PWR_DeInit
                0x00000000       0x1a c:/project/stm32fx_iolib/stm32f4x_iolib/stm32f4x_iolib_168MHz_8MHz.a(stm32f4xx_pwr.o)
 .text.PWR_PVDLevelConfig
                0x00000000       0x14 c:/project/stm32fx_iolib/stm32f4x_iolib/stm32f4x_iolib_168MHz_8MHz.a(stm32f4xx_pwr.o)
 .text.PWR_PVDCmd
                0x00000000        0xc c:/project/stm32fx_iolib/stm32f4x_iolib/stm32f4x_iolib_168MHz_8MHz.a(stm32f4xx_pwr.o)
 .text.PWR_WakeUpPinCmd
                0x00000000        0xc c:/project/stm32fx_iolib/stm32f4x_iolib/stm32f4x_iolib_168MHz_8MHz.a(stm32f4xx_pwr.o)
 .text.PWR_BackupRegulatorCmd
                0x00000000        0xc c:/project/stm32fx_iolib/stm32f4x_iolib/stm32f4x_iolib_168MHz_8MHz.a(stm32f4xx_pwr.o)
 .text.PWR_MainRegulatorModeConfig
                0x00000000       0x14 c:/project/stm32fx_iolib/stm32f4x_iolib/stm32f4x_iolib_168MHz_8MHz.a(stm32f4xx_pwr.o)
 .text.PWR_OverDriveCmd
                0x00000000        0xc c:/project/stm32fx_iolib/stm32f4x_iolib/stm32f4x_iolib_168MHz_8MHz.a(stm32f4xx_pwr.o)
 .text.PWR_OverDriveSWCmd
                0x00000000        0xc c:/project/stm32fx_iolib/stm32f4x_iolib/stm32f4x_iolib_168MHz_8MHz.a(stm32f4xx_pwr.o)
 .text.PWR_UnderDriveCmd
                0x00000000       0x18 c:/project/stm32fx_iolib/stm32f4x_iolib/stm32f4x_iolib_168MHz_8MHz.a(stm32f4xx_pwr.o)
 .text.PWR_FlashPowerDownCmd
                0x00000000        0xc c:/project/stm32fx_iolib/stm32f4x_iolib/stm32f4x_iolib_168MHz_8MHz.a(stm32f4xx_pwr.o)
 .text.PWR_EnterSTOPMode
                0x00000000       0x38 c:/project/stm32fx_iolib/stm32f4x_iolib/stm32f4x_iolib_168MHz_8MHz.a(stm32f4xx_pwr.o)
 .text.PWR_EnterUnderDriveSTOPMode
                0x00000000        0x4 c:/project/stm32fx_iolib/stm32f4x_iolib/stm32f4x_iolib_168MHz_8MHz.a(stm32f4xx_pwr.o)
 .text.PWR_EnterSTANDBYMode
                0x00000000       0x20 c:/project/stm32fx_iolib/stm32f4x_iolib/stm32f4x_iolib_168MHz_8MHz.a(stm32f4xx_pwr.o)
 .text.PWR_GetFlagStatus
                0x00000000       0x14 c:/project/stm32fx_iolib/stm32f4x_iolib/stm32f4x_iolib_168MHz_8MHz.a(stm32f4xx_pwr.o)
 .text.PWR_ClearFlag
                0x00000000       0x10 c:/project/stm32fx_iolib/stm32f4x_iolib/stm32f4x_iolib_168MHz_8MHz.a(stm32f4xx_pwr.o)
 .text          0x00000000        0x0 c:/project/stm32fx_iolib/stm32f4x_iolib/stm32f4x_iolib_168MHz_8MHz.a(stm32f4xx_rcc.o)
 .data          0x00000000        0x0 c:/project/stm32fx_iolib/stm32f4x_iolib/stm32f4x_iolib_168MHz_8MHz.a(stm32f4xx_rcc.o)
 .bss           0x00000000        0x0 c:/project/stm32fx_iolib/stm32f4x_iolib/stm32f4x_iolib_168MHz_8MHz.a(stm32f4xx_rcc.o)
 .text.RCC_DeInit
                0x00000000       0x48 c:/project/stm32fx_iolib/stm32f4x_iolib/stm32f4x_iolib_168MHz_8MHz.a(stm32f4xx_rcc.o)
 .text.RCC_HSEConfig
                0x00000000       0x10 c:/project/stm32fx_iolib/stm32f4x_iolib/stm32f4x_iolib_168MHz_8MHz.a(stm32f4xx_rcc.o)
 .text.RCC_WaitForHSEStartUp
                0x00000000       0x30 c:/project/stm32fx_iolib/stm32f4x_iolib/stm32f4x_iolib_168MHz_8MHz.a(stm32f4xx_rcc.o)
 .text.RCC_AdjustHSICalibrationValue
                0x00000000       0x14 c:/project/stm32fx_iolib/stm32f4x_iolib/stm32f4x_iolib_168MHz_8MHz.a(stm32f4xx_rcc.o)
 .text.RCC_HSICmd
                0x00000000        0xc c:/project/stm32fx_iolib/stm32f4x_iolib/stm32f4x_iolib_168MHz_8MHz.a(stm32f4xx_rcc.o)
 .text.RCC_LSICmd
                0x00000000        0xc c:/project/stm32fx_iolib/stm32f4x_iolib/stm32f4x_iolib_168MHz_8MHz.a(stm32f4xx_rcc.o)
 .text.RCC_PLLConfig
                0x00000000       0x20 c:/project/stm32fx_iolib/stm32f4x_iolib/stm32f4x_iolib_168MHz_8MHz.a(stm32f4xx_rcc.o)
 .text.RCC_PLLCmd
                0x00000000        0xc c:/project/stm32fx_iolib/stm32f4x_iolib/stm32f4x_iolib_168MHz_8MHz.a(stm32f4xx_rcc.o)
 .text.RCC_PLLSAIConfig
                0x00000000       0x18 c:/project/stm32fx_iolib/stm32f4x_iolib/stm32f4x_iolib_168MHz_8MHz.a(stm32f4xx_rcc.o)
 .text.RCC_PLLSAICmd
                0x00000000        0xc c:/project/stm32fx_iolib/stm32f4x_iolib/stm32f4x_iolib_168MHz_8MHz.a(stm32f4xx_rcc.o)
 .text.RCC_ClockSecuritySystemCmd
                0x00000000        0xc c:/project/stm32fx_iolib/stm32f4x_iolib/stm32f4x_iolib_168MHz_8MHz.a(stm32f4xx_rcc.o)
 .text.RCC_MCO1Config
                0x00000000       0x14 c:/project/stm32fx_iolib/stm32f4x_iolib/stm32f4x_iolib_168MHz_8MHz.a(stm32f4xx_rcc.o)
 .text.RCC_MCO2Config
                0x00000000       0x14 c:/project/stm32fx_iolib/stm32f4x_iolib/stm32f4x_iolib_168MHz_8MHz.a(stm32f4xx_rcc.o)
 .text.RCC_SYSCLKConfig
                0x00000000       0x14 c:/project/stm32fx_iolib/stm32f4x_iolib/stm32f4x_iolib_168MHz_8MHz.a(stm32f4xx_rcc.o)
 .text.RCC_GetSYSCLKSource
                0x00000000       0x10 c:/project/stm32fx_iolib/stm32f4x_iolib/stm32f4x_iolib_168MHz_8MHz.a(stm32f4xx_rcc.o)
 .text.RCC_HCLKConfig
                0x00000000       0x14 c:/project/stm32fx_iolib/stm32f4x_iolib/stm32f4x_iolib_168MHz_8MHz.a(stm32f4xx_rcc.o)
 .text.RCC_PCLK1Config
                0x00000000       0x14 c:/project/stm32fx_iolib/stm32f4x_iolib/stm32f4x_iolib_168MHz_8MHz.a(stm32f4xx_rcc.o)
 .text.RCC_PCLK2Config
                0x00000000       0x14 c:/project/stm32fx_iolib/stm32f4x_iolib/stm32f4x_iolib_168MHz_8MHz.a(stm32f4xx_rcc.o)
 .text.RCC_BackupResetCmd
                0x00000000        0xc c:/project/stm32fx_iolib/stm32f4x_iolib/stm32f4x_iolib_168MHz_8MHz.a(stm32f4xx_rcc.o)
 .text.RCC_I2SCLKConfig
                0x00000000        0xc c:/project/stm32fx_iolib/stm32f4x_iolib/stm32f4x_iolib_168MHz_8MHz.a(stm32f4xx_rcc.o)
 .text.RCC_SAIBlockACLKConfig
                0x00000000       0x18 c:/project/stm32fx_iolib/stm32f4x_iolib/stm32f4x_iolib_168MHz_8MHz.a(stm32f4xx_rcc.o)
 .text.RCC_SAIBlockBCLKConfig
                0x00000000       0x18 c:/project/stm32fx_iolib/stm32f4x_iolib/stm32f4x_iolib_168MHz_8MHz.a(stm32f4xx_rcc.o)
 .text.RCC_SAIPLLI2SClkDivConfig
                0x00000000       0x18 c:/project/stm32fx_iolib/stm32f4x_iolib/stm32f4x_iolib_168MHz_8MHz.a(stm32f4xx_rcc.o)
 .text.RCC_SAIPLLSAIClkDivConfig
                0x00000000       0x1c c:/project/stm32fx_iolib/stm32f4x_iolib/stm32f4x_iolib_168MHz_8MHz.a(stm32f4xx_rcc.o)
 .text.RCC_LTDCCLKDivConfig
                0x00000000       0x18 c:/project/stm32fx_iolib/stm32f4x_iolib/stm32f4x_iolib_168MHz_8MHz.a(stm32f4xx_rcc.o)
 .text.RCC_TIMCLKPresConfig
                0x00000000        0xc c:/project/stm32fx_iolib/stm32f4x_iolib/stm32f4x_iolib_168MHz_8MHz.a(stm32f4xx_rcc.o)
 .text.RCC_AHB2PeriphClockCmd
                0x00000000       0x18 c:/project/stm32fx_iolib/stm32f4x_iolib/stm32f4x_iolib_168MHz_8MHz.a(stm32f4xx_rcc.o)
 .text.RCC_AHB1PeriphResetCmd
                0x00000000       0x18 c:/project/stm32fx_iolib/stm32f4x_iolib/stm32f4x_iolib_168MHz_8MHz.a(stm32f4xx_rcc.o)
 .text.RCC_AHB2PeriphResetCmd
                0x00000000       0x18 c:/project/stm32fx_iolib/stm32f4x_iolib/stm32f4x_iolib_168MHz_8MHz.a(stm32f4xx_rcc.o)
 .text.RCC_AHB3PeriphResetCmd
                0x00000000       0x18 c:/project/stm32fx_iolib/stm32f4x_iolib/stm32f4x_iolib_168MHz_8MHz.a(stm32f4xx_rcc.o)
 .text.RCC_AHB1PeriphClockLPModeCmd
                0x00000000       0x18 c:/project/stm32fx_iolib/stm32f4x_iolib/stm32f4x_iolib_168MHz_8MHz.a(stm32f4xx_rcc.o)
 .text.RCC_AHB2PeriphClockLPModeCmd
                0x00000000       0x18 c:/project/stm32fx_iolib/stm32f4x_iolib/stm32f4x_iolib_168MHz_8MHz.a(stm32f4xx_rcc.o)
 .text.RCC_AHB3PeriphClockLPModeCmd
                0x00000000       0x18 c:/project/stm32fx_iolib/stm32f4x_iolib/stm32f4x_iolib_168MHz_8MHz.a(stm32f4xx_rcc.o)
 .text.RCC_APB1PeriphClockLPModeCmd
                0x00000000       0x18 c:/project/stm32fx_iolib/stm32f4x_iolib/stm32f4x_iolib_168MHz_8MHz.a(stm32f4xx_rcc.o)
 .text.RCC_APB2PeriphClockLPModeCmd
                0x00000000       0x18 c:/project/stm32fx_iolib/stm32f4x_iolib/stm32f4x_iolib_168MHz_8MHz.a(stm32f4xx_rcc.o)
 .text.RCC_LSEModeConfig
                0x00000000       0x18 c:/project/stm32fx_iolib/stm32f4x_iolib/stm32f4x_iolib_168MHz_8MHz.a(stm32f4xx_rcc.o)
 .text.RCC_ITConfig
                0x00000000       0x18 c:/project/stm32fx_iolib/stm32f4x_iolib/stm32f4x_iolib_168MHz_8MHz.a(stm32f4xx_rcc.o)
 .text.RCC_ClearFlag
                0x00000000       0x10 c:/project/stm32fx_iolib/stm32f4x_iolib/stm32f4x_iolib_168MHz_8MHz.a(stm32f4xx_rcc.o)
 .text.RCC_GetITStatus
                0x00000000       0x14 c:/project/stm32fx_iolib/stm32f4x_iolib/stm32f4x_iolib_168MHz_8MHz.a(stm32f4xx_rcc.o)
 .text.RCC_ClearITPendingBit
                0x00000000        0xc c:/project/stm32fx_iolib/stm32f4x_iolib/stm32f4x_iolib_168MHz_8MHz.a(stm32f4xx_rcc.o)
 .text          0x00000000        0x0 c:/project/stm32fx_iolib/stm32f4x_iolib/stm32f4x_iolib_168MHz_8MHz.a(stm32f4xx_rtc.o)
 .data          0x00000000        0x0 c:/project/stm32fx_iolib/stm32f4x_iolib/stm32f4x_iolib_168MHz_8MHz.a(stm32f4xx_rtc.o)
 .bss           0x00000000        0x0 c:/project/stm32fx_iolib/stm32f4x_iolib/stm32f4x_iolib_168MHz_8MHz.a(stm32f4xx_rtc.o)
 .text.RTC_StructInit
                0x00000000        0xe c:/project/stm32fx_iolib/stm32f4x_iolib/stm32f4x_iolib_168MHz_8MHz.a(stm32f4xx_rtc.o)
 .text.RTC_WriteProtectionCmd
                0x00000000       0x18 c:/project/stm32fx_iolib/stm32f4x_iolib/stm32f4x_iolib_168MHz_8MHz.a(stm32f4xx_rtc.o)
 .text.RTC_DeInit
                0x00000000       0x88 c:/project/stm32fx_iolib/stm32f4x_iolib/stm32f4x_iolib_168MHz_8MHz.a(stm32f4xx_rtc.o)
 .text.RTC_RefClockCmd
                0x00000000       0x34 c:/project/stm32fx_iolib/stm32f4x_iolib/stm32f4x_iolib_168MHz_8MHz.a(stm32f4xx_rtc.o)
 .text.RTC_BypassShadowCmd
                0x00000000       0x24 c:/project/stm32fx_iolib/stm32f4x_iolib/stm32f4x_iolib_168MHz_8MHz.a(stm32f4xx_rtc.o)
 .text.RTC_TimeStructInit
                0x00000000        0xc c:/project/stm32fx_iolib/stm32f4x_iolib/stm32f4x_iolib_168MHz_8MHz.a(stm32f4xx_rtc.o)
 .text.RTC_GetSubSecond
                0x00000000        0xc c:/project/stm32fx_iolib/stm32f4x_iolib/stm32f4x_iolib_168MHz_8MHz.a(stm32f4xx_rtc.o)
 .text.RTC_DateStructInit
                0x00000000        0xe c:/project/stm32fx_iolib/stm32f4x_iolib/stm32f4x_iolib_168MHz_8MHz.a(stm32f4xx_rtc.o)
 .text.RTC_SetAlarm
                0x00000000       0xa0 c:/project/stm32fx_iolib/stm32f4x_iolib/stm32f4x_iolib_168MHz_8MHz.a(stm32f4xx_rtc.o)
 .text.RTC_AlarmStructInit
                0x00000000        0xe c:/project/stm32fx_iolib/stm32f4x_iolib/stm32f4x_iolib_168MHz_8MHz.a(stm32f4xx_rtc.o)
 .text.RTC_GetAlarm
                0x00000000       0x64 c:/project/stm32fx_iolib/stm32f4x_iolib/stm32f4x_iolib_168MHz_8MHz.a(stm32f4xx_rtc.o)
 .text.RTC_AlarmCmd
                0x00000000       0x54 c:/project/stm32fx_iolib/stm32f4x_iolib/stm32f4x_iolib_168MHz_8MHz.a(stm32f4xx_rtc.o)
 .text.RTC_AlarmSubSecondConfig
                0x00000000       0x24 c:/project/stm32fx_iolib/stm32f4x_iolib/stm32f4x_iolib_168MHz_8MHz.a(stm32f4xx_rtc.o)
 .text.RTC_GetAlarmSubSecond
                0x00000000       0x18 c:/project/stm32fx_iolib/stm32f4x_iolib/stm32f4x_iolib_168MHz_8MHz.a(stm32f4xx_rtc.o)
 .text.RTC_WakeUpClockConfig
                0x00000000       0x24 c:/project/stm32fx_iolib/stm32f4x_iolib/stm32f4x_iolib_168MHz_8MHz.a(stm32f4xx_rtc.o)
 .text.RTC_SetWakeUpCounter
                0x00000000       0x18 c:/project/stm32fx_iolib/stm32f4x_iolib/stm32f4x_iolib_168MHz_8MHz.a(stm32f4xx_rtc.o)
 .text.RTC_GetWakeUpCounter
                0x00000000        0xc c:/project/stm32fx_iolib/stm32f4x_iolib/stm32f4x_iolib_168MHz_8MHz.a(stm32f4xx_rtc.o)
 .text.RTC_WakeUpCmd
                0x00000000       0x50 c:/project/stm32fx_iolib/stm32f4x_iolib/stm32f4x_iolib_168MHz_8MHz.a(stm32f4xx_rtc.o)
 .text.RTC_DayLightSavingConfig
                0x00000000       0x28 c:/project/stm32fx_iolib/stm32f4x_iolib/stm32f4x_iolib_168MHz_8MHz.a(stm32f4xx_rtc.o)
 .text.RTC_GetStoreOperation
                0x00000000       0x10 c:/project/stm32fx_iolib/stm32f4x_iolib/stm32f4x_iolib_168MHz_8MHz.a(stm32f4xx_rtc.o)
 .text.RTC_OutputConfig
                0x00000000       0x28 c:/project/stm32fx_iolib/stm32f4x_iolib/stm32f4x_iolib_168MHz_8MHz.a(stm32f4xx_rtc.o)
 .text.RTC_CoarseCalibConfig
                0x00000000       0x2c c:/project/stm32fx_iolib/stm32f4x_iolib/stm32f4x_iolib_168MHz_8MHz.a(stm32f4xx_rtc.o)
 .text.RTC_CoarseCalibCmd
                0x00000000       0x34 c:/project/stm32fx_iolib/stm32f4x_iolib/stm32f4x_iolib_168MHz_8MHz.a(stm32f4xx_rtc.o)
 .text.RTC_CalibOutputCmd
                0x00000000       0x24 c:/project/stm32fx_iolib/stm32f4x_iolib/stm32f4x_iolib_168MHz_8MHz.a(stm32f4xx_rtc.o)
 .text.RTC_CalibOutputConfig
                0x00000000       0x24 c:/project/stm32fx_iolib/stm32f4x_iolib/stm32f4x_iolib_168MHz_8MHz.a(stm32f4xx_rtc.o)
 .text.RTC_SmoothCalibConfig
                0x00000000       0x44 c:/project/stm32fx_iolib/stm32f4x_iolib/stm32f4x_iolib_168MHz_8MHz.a(stm32f4xx_rtc.o)
 .text.RTC_TimeStampCmd
                0x00000000       0x2c c:/project/stm32fx_iolib/stm32f4x_iolib/stm32f4x_iolib_168MHz_8MHz.a(stm32f4xx_rtc.o)
 .text.RTC_GetTimeStamp
                0x00000000       0x7c c:/project/stm32fx_iolib/stm32f4x_iolib/stm32f4x_iolib_168MHz_8MHz.a(stm32f4xx_rtc.o)
 .text.RTC_GetTimeStampSubSecond
                0x00000000        0xc c:/project/stm32fx_iolib/stm32f4x_iolib/stm32f4x_iolib_168MHz_8MHz.a(stm32f4xx_rtc.o)
 .text.RTC_TamperTriggerConfig
                0x00000000       0x18 c:/project/stm32fx_iolib/stm32f4x_iolib/stm32f4x_iolib_168MHz_8MHz.a(stm32f4xx_rtc.o)
 .text.RTC_TamperCmd
                0x00000000       0x18 c:/project/stm32fx_iolib/stm32f4x_iolib/stm32f4x_iolib_168MHz_8MHz.a(stm32f4xx_rtc.o)
 .text.RTC_TamperFilterConfig
                0x00000000       0x18 c:/project/stm32fx_iolib/stm32f4x_iolib/stm32f4x_iolib_168MHz_8MHz.a(stm32f4xx_rtc.o)
 .text.RTC_TamperSamplingFreqConfig
                0x00000000       0x18 c:/project/stm32fx_iolib/stm32f4x_iolib/stm32f4x_iolib_168MHz_8MHz.a(stm32f4xx_rtc.o)
 .text.RTC_TamperPinsPrechargeDuration
                0x00000000       0x18 c:/project/stm32fx_iolib/stm32f4x_iolib/stm32f4x_iolib_168MHz_8MHz.a(stm32f4xx_rtc.o)
 .text.RTC_TimeStampOnTamperDetectionCmd
                0x00000000       0x18 c:/project/stm32fx_iolib/stm32f4x_iolib/stm32f4x_iolib_168MHz_8MHz.a(stm32f4xx_rtc.o)
 .text.RTC_TamperPullUpCmd
                0x00000000       0x18 c:/project/stm32fx_iolib/stm32f4x_iolib/stm32f4x_iolib_168MHz_8MHz.a(stm32f4xx_rtc.o)
 .text.RTC_TamperPinSelection
                0x00000000       0x18 c:/project/stm32fx_iolib/stm32f4x_iolib/stm32f4x_iolib_168MHz_8MHz.a(stm32f4xx_rtc.o)
 .text.RTC_TimeStampPinSelection
                0x00000000       0x18 c:/project/stm32fx_iolib/stm32f4x_iolib/stm32f4x_iolib_168MHz_8MHz.a(stm32f4xx_rtc.o)
 .text.RTC_OutputTypeConfig
                0x00000000       0x18 c:/project/stm32fx_iolib/stm32f4x_iolib/stm32f4x_iolib_168MHz_8MHz.a(stm32f4xx_rtc.o)
 .text.RTC_SynchroShiftConfig
                0x00000000       0x54 c:/project/stm32fx_iolib/stm32f4x_iolib/stm32f4x_iolib_168MHz_8MHz.a(stm32f4xx_rtc.o)
 .text.RTC_ITConfig
                0x00000000       0x3c c:/project/stm32fx_iolib/stm32f4x_iolib/stm32f4x_iolib_168MHz_8MHz.a(stm32f4xx_rtc.o)
 .text.RTC_GetITStatus
                0x00000000       0x34 c:/project/stm32fx_iolib/stm32f4x_iolib/stm32f4x_iolib_168MHz_8MHz.a(stm32f4xx_rtc.o)
 .text.RTC_ClearITPendingBit
                0x00000000       0x1c c:/project/stm32fx_iolib/stm32f4x_iolib/stm32f4x_iolib_168MHz_8MHz.a(stm32f4xx_rtc.o)
 .text          0x00000000        0x0 c:/project/stm32fx_iolib/stm32f4x_iolib/stm32f4x_iolib_168MHz_8MHz.a(stm32f4xx_sdio.o)
 .data          0x00000000        0x0 c:/project/stm32fx_iolib/stm32f4x_iolib/stm32f4x_iolib_168MHz_8MHz.a(stm32f4xx_sdio.o)
 .bss           0x00000000        0x0 c:/project/stm32fx_iolib/stm32f4x_iolib/stm32f4x_iolib_168MHz_8MHz.a(stm32f4xx_sdio.o)
 .text.SDIO_DeInit
                0x00000000       0x1a c:/project/stm32fx_iolib/stm32f4x_iolib/stm32f4x_iolib_168MHz_8MHz.a(stm32f4xx_sdio.o)
 .text.SDIO_StructInit
                0x00000000       0x10 c:/project/stm32fx_iolib/stm32f4x_iolib/stm32f4x_iolib_168MHz_8MHz.a(stm32f4xx_sdio.o)
 .text.SDIO_ClockCmd
                0x00000000        0xc c:/project/stm32fx_iolib/stm32f4x_iolib/stm32f4x_iolib_168MHz_8MHz.a(stm32f4xx_sdio.o)
 .text.SDIO_CmdStructInit
                0x00000000        0xe c:/project/stm32fx_iolib/stm32f4x_iolib/stm32f4x_iolib_168MHz_8MHz.a(stm32f4xx_sdio.o)
 .text.SDIO_GetCommandResponse
                0x00000000        0xc c:/project/stm32fx_iolib/stm32f4x_iolib/stm32f4x_iolib_168MHz_8MHz.a(stm32f4xx_sdio.o)
 .text.SDIO_GetResponse
                0x00000000       0x18 c:/project/stm32fx_iolib/stm32f4x_iolib/stm32f4x_iolib_168MHz_8MHz.a(stm32f4xx_sdio.o)
 .text.SDIO_DataStructInit
                0x00000000       0x14 c:/project/stm32fx_iolib/stm32f4x_iolib/stm32f4x_iolib_168MHz_8MHz.a(stm32f4xx_sdio.o)
 .text.SDIO_GetDataCounter
                0x00000000        0xc c:/project/stm32fx_iolib/stm32f4x_iolib/stm32f4x_iolib_168MHz_8MHz.a(stm32f4xx_sdio.o)
 .text.SDIO_ReadData
                0x00000000        0xc c:/project/stm32fx_iolib/stm32f4x_iolib/stm32f4x_iolib_168MHz_8MHz.a(stm32f4xx_sdio.o)
 .text.SDIO_WriteData
                0x00000000        0xc c:/project/stm32fx_iolib/stm32f4x_iolib/stm32f4x_iolib_168MHz_8MHz.a(stm32f4xx_sdio.o)
 .text.SDIO_GetFIFOCount
                0x00000000        0xc c:/project/stm32fx_iolib/stm32f4x_iolib/stm32f4x_iolib_168MHz_8MHz.a(stm32f4xx_sdio.o)
 .text.SDIO_StartSDIOReadWait
                0x00000000        0xc c:/project/stm32fx_iolib/stm32f4x_iolib/stm32f4x_iolib_168MHz_8MHz.a(stm32f4xx_sdio.o)
 .text.SDIO_StopSDIOReadWait
                0x00000000        0xc c:/project/stm32fx_iolib/stm32f4x_iolib/stm32f4x_iolib_168MHz_8MHz.a(stm32f4xx_sdio.o)
 .text.SDIO_SetSDIOReadWaitMode
                0x00000000        0xc c:/project/stm32fx_iolib/stm32f4x_iolib/stm32f4x_iolib_168MHz_8MHz.a(stm32f4xx_sdio.o)
 .text.SDIO_SetSDIOOperation
                0x00000000        0xc c:/project/stm32fx_iolib/stm32f4x_iolib/stm32f4x_iolib_168MHz_8MHz.a(stm32f4xx_sdio.o)
 .text.SDIO_SendSDIOSuspendCmd
                0x00000000        0xc c:/project/stm32fx_iolib/stm32f4x_iolib/stm32f4x_iolib_168MHz_8MHz.a(stm32f4xx_sdio.o)
 .text.SDIO_CommandCompletionCmd
                0x00000000        0xc c:/project/stm32fx_iolib/stm32f4x_iolib/stm32f4x_iolib_168MHz_8MHz.a(stm32f4xx_sdio.o)
 .text.SDIO_CEATAITCmd
                0x00000000       0x14 c:/project/stm32fx_iolib/stm32f4x_iolib/stm32f4x_iolib_168MHz_8MHz.a(stm32f4xx_sdio.o)
 .text.SDIO_SendCEATACmd
                0x00000000        0xc c:/project/stm32fx_iolib/stm32f4x_iolib/stm32f4x_iolib_168MHz_8MHz.a(stm32f4xx_sdio.o)
 .text.SDIO_DMACmd
                0x00000000        0xc c:/project/stm32fx_iolib/stm32f4x_iolib/stm32f4x_iolib_168MHz_8MHz.a(stm32f4xx_sdio.o)
 .text.SDIO_ITConfig
                0x00000000       0x18 c:/project/stm32fx_iolib/stm32f4x_iolib/stm32f4x_iolib_168MHz_8MHz.a(stm32f4xx_sdio.o)
 .text.SDIO_GetITStatus
                0x00000000        0x4 c:/project/stm32fx_iolib/stm32f4x_iolib/stm32f4x_iolib_168MHz_8MHz.a(stm32f4xx_sdio.o)
 .text.SDIO_ClearITPendingBit
                0x00000000        0xc c:/project/stm32fx_iolib/stm32f4x_iolib/stm32f4x_iolib_168MHz_8MHz.a(stm32f4xx_sdio.o)
 .text          0x00000000        0x0 c:/project/stm32fx_iolib/stm32f4x_iolib/stm32f4x_iolib_168MHz_8MHz.a(stm32f4xx_spi.o)
 .data          0x00000000        0x0 c:/project/stm32fx_iolib/stm32f4x_iolib/stm32f4x_iolib_168MHz_8MHz.a(stm32f4xx_spi.o)
 .bss           0x00000000        0x0 c:/project/stm32fx_iolib/stm32f4x_iolib/stm32f4x_iolib_168MHz_8MHz.a(stm32f4xx_spi.o)
 .text.SPI_I2S_DeInit
                0x00000000       0xb8 c:/project/stm32fx_iolib/stm32f4x_iolib/stm32f4x_iolib_168MHz_8MHz.a(stm32f4xx_spi.o)
 .text.SPI_Init
                0x00000000       0x3e c:/project/stm32fx_iolib/stm32f4x_iolib/stm32f4x_iolib_168MHz_8MHz.a(stm32f4xx_spi.o)
 .text.SPI_StructInit
                0x00000000       0x18 c:/project/stm32fx_iolib/stm32f4x_iolib/stm32f4x_iolib_168MHz_8MHz.a(stm32f4xx_spi.o)
 .text.I2S_StructInit
                0x00000000        0xe c:/project/stm32fx_iolib/stm32f4x_iolib/stm32f4x_iolib_168MHz_8MHz.a(stm32f4xx_spi.o)
 .text.SPI_Cmd  0x00000000       0x18 c:/project/stm32fx_iolib/stm32f4x_iolib/stm32f4x_iolib_168MHz_8MHz.a(stm32f4xx_spi.o)
 .text.SPI_DataSizeConfig
                0x00000000       0x16 c:/project/stm32fx_iolib/stm32f4x_iolib/stm32f4x_iolib_168MHz_8MHz.a(stm32f4xx_spi.o)
 .text.SPI_BiDirectionalLineConfig
                0x00000000       0x1c c:/project/stm32fx_iolib/stm32f4x_iolib/stm32f4x_iolib_168MHz_8MHz.a(stm32f4xx_spi.o)
 .text.SPI_NSSInternalSoftwareConfig
                0x00000000       0x1e c:/project/stm32fx_iolib/stm32f4x_iolib/stm32f4x_iolib_168MHz_8MHz.a(stm32f4xx_spi.o)
 .text.SPI_SSOutputCmd
                0x00000000       0x18 c:/project/stm32fx_iolib/stm32f4x_iolib/stm32f4x_iolib_168MHz_8MHz.a(stm32f4xx_spi.o)
 .text.SPI_TIModeCmd
                0x00000000       0x18 c:/project/stm32fx_iolib/stm32f4x_iolib/stm32f4x_iolib_168MHz_8MHz.a(stm32f4xx_spi.o)
 .text.I2S_FullDuplexConfig
                0x00000000       0x48 c:/project/stm32fx_iolib/stm32f4x_iolib/stm32f4x_iolib_168MHz_8MHz.a(stm32f4xx_spi.o)
 .text.SPI_I2S_ReceiveData
                0x00000000        0x6 c:/project/stm32fx_iolib/stm32f4x_iolib/stm32f4x_iolib_168MHz_8MHz.a(stm32f4xx_spi.o)
 .text.SPI_I2S_SendData
                0x00000000        0x4 c:/project/stm32fx_iolib/stm32f4x_iolib/stm32f4x_iolib_168MHz_8MHz.a(stm32f4xx_spi.o)
 .text.SPI_CalculateCRC
                0x00000000       0x18 c:/project/stm32fx_iolib/stm32f4x_iolib/stm32f4x_iolib_168MHz_8MHz.a(stm32f4xx_spi.o)
 .text.SPI_TransmitCRC
                0x00000000        0xc c:/project/stm32fx_iolib/stm32f4x_iolib/stm32f4x_iolib_168MHz_8MHz.a(stm32f4xx_spi.o)
 .text.SPI_GetCRC
                0x00000000        0xc c:/project/stm32fx_iolib/stm32f4x_iolib/stm32f4x_iolib_168MHz_8MHz.a(stm32f4xx_spi.o)
 .text.SPI_GetCRCPolynomial
                0x00000000        0x6 c:/project/stm32fx_iolib/stm32f4x_iolib/stm32f4x_iolib_168MHz_8MHz.a(stm32f4xx_spi.o)
 .text.SPI_I2S_ITConfig
                0x00000000       0x1c c:/project/stm32fx_iolib/stm32f4x_iolib/stm32f4x_iolib_168MHz_8MHz.a(stm32f4xx_spi.o)
 .text.SPI_I2S_GetFlagStatus
                0x00000000        0xc c:/project/stm32fx_iolib/stm32f4x_iolib/stm32f4x_iolib_168MHz_8MHz.a(stm32f4xx_spi.o)
 .text.SPI_I2S_ClearFlag
                0x00000000        0x8 c:/project/stm32fx_iolib/stm32f4x_iolib/stm32f4x_iolib_168MHz_8MHz.a(stm32f4xx_spi.o)
 .text.SPI_I2S_GetITStatus
                0x00000000       0x28 c:/project/stm32fx_iolib/stm32f4x_iolib/stm32f4x_iolib_168MHz_8MHz.a(stm32f4xx_spi.o)
 .text.SPI_I2S_ClearITPendingBit
                0x00000000       0x10 c:/project/stm32fx_iolib/stm32f4x_iolib/stm32f4x_iolib_168MHz_8MHz.a(stm32f4xx_spi.o)
 .text          0x00000000        0x0 c:/project/stm32fx_iolib/stm32f4x_iolib/stm32f4x_iolib_168MHz_8MHz.a(stm32f4xx_tim.o)
 .data          0x00000000        0x0 c:/project/stm32fx_iolib/stm32f4x_iolib/stm32f4x_iolib_168MHz_8MHz.a(stm32f4xx_tim.o)
 .bss           0x00000000        0x0 c:/project/stm32fx_iolib/stm32f4x_iolib/stm32f4x_iolib_168MHz_8MHz.a(stm32f4xx_tim.o)
 .text.TIM_DeInit
                0x00000000      0x16c c:/project/stm32fx_iolib/stm32f4x_iolib/stm32f4x_iolib_168MHz_8MHz.a(stm32f4xx_tim.o)
 .text.TIM_TimeBaseStructInit
                0x00000000       0x10 c:/project/stm32fx_iolib/stm32f4x_iolib/stm32f4x_iolib_168MHz_8MHz.a(stm32f4xx_tim.o)
 .text.TIM_PrescalerConfig
                0x00000000        0x6 c:/project/stm32fx_iolib/stm32f4x_iolib/stm32f4x_iolib_168MHz_8MHz.a(stm32f4xx_tim.o)
 .text.TIM_CounterModeConfig
                0x00000000       0x10 c:/project/stm32fx_iolib/stm32f4x_iolib/stm32f4x_iolib_168MHz_8MHz.a(stm32f4xx_tim.o)
 .text.TIM_SetAutoreload
                0x00000000        0x4 c:/project/stm32fx_iolib/stm32f4x_iolib/stm32f4x_iolib_168MHz_8MHz.a(stm32f4xx_tim.o)
 .text.TIM_GetCounter
                0x00000000        0x4 c:/project/stm32fx_iolib/stm32f4x_iolib/stm32f4x_iolib_168MHz_8MHz.a(stm32f4xx_tim.o)
 .text.TIM_GetPrescaler
                0x00000000        0x6 c:/project/stm32fx_iolib/stm32f4x_iolib/stm32f4x_iolib_168MHz_8MHz.a(stm32f4xx_tim.o)
 .text.TIM_UpdateDisableConfig
                0x00000000       0x18 c:/project/stm32fx_iolib/stm32f4x_iolib/stm32f4x_iolib_168MHz_8MHz.a(stm32f4xx_tim.o)
 .text.TIM_UpdateRequestConfig
                0x00000000       0x18 c:/project/stm32fx_iolib/stm32f4x_iolib/stm32f4x_iolib_168MHz_8MHz.a(stm32f4xx_tim.o)
 .text.TIM_ARRPreloadConfig
                0x00000000       0x18 c:/project/stm32fx_iolib/stm32f4x_iolib/stm32f4x_iolib_168MHz_8MHz.a(stm32f4xx_tim.o)
 .text.TIM_SelectOnePulseMode
                0x00000000       0x16 c:/project/stm32fx_iolib/stm32f4x_iolib/stm32f4x_iolib_168MHz_8MHz.a(stm32f4xx_tim.o)
 .text.TIM_SetClockDivision
                0x00000000       0x16 c:/project/stm32fx_iolib/stm32f4x_iolib/stm32f4x_iolib_168MHz_8MHz.a(stm32f4xx_tim.o)
 .text.TIM_OC1Init
                0x00000000       0x70 c:/project/stm32fx_iolib/stm32f4x_iolib/stm32f4x_iolib_168MHz_8MHz.a(stm32f4xx_tim.o)
 .text.TIM_OC2Init
                0x00000000       0x80 c:/project/stm32fx_iolib/stm32f4x_iolib/stm32f4x_iolib_168MHz_8MHz.a(stm32f4xx_tim.o)
 .text.TIM_OC3Init
                0x00000000       0x7c c:/project/stm32fx_iolib/stm32f4x_iolib/stm32f4x_iolib_168MHz_8MHz.a(stm32f4xx_tim.o)
 .text.TIM_OC4Init
                0x00000000       0x64 c:/project/stm32fx_iolib/stm32f4x_iolib/stm32f4x_iolib_168MHz_8MHz.a(stm32f4xx_tim.o)
 .text.TIM_OCStructInit
                0x00000000        0xe c:/project/stm32fx_iolib/stm32f4x_iolib/stm32f4x_iolib_168MHz_8MHz.a(stm32f4xx_tim.o)
 .text.TIM_SelectOCxM
                0x00000000       0x4a c:/project/stm32fx_iolib/stm32f4x_iolib/stm32f4x_iolib_168MHz_8MHz.a(stm32f4xx_tim.o)
 .text.TIM_SetCompare1
                0x00000000        0x4 c:/project/stm32fx_iolib/stm32f4x_iolib/stm32f4x_iolib_168MHz_8MHz.a(stm32f4xx_tim.o)
 .text.TIM_SetCompare2
                0x00000000        0x4 c:/project/stm32fx_iolib/stm32f4x_iolib/stm32f4x_iolib_168MHz_8MHz.a(stm32f4xx_tim.o)
 .text.TIM_SetCompare3
                0x00000000        0x4 c:/project/stm32fx_iolib/stm32f4x_iolib/stm32f4x_iolib_168MHz_8MHz.a(stm32f4xx_tim.o)
 .text.TIM_SetCompare4
                0x00000000        0x4 c:/project/stm32fx_iolib/stm32f4x_iolib/stm32f4x_iolib_168MHz_8MHz.a(stm32f4xx_tim.o)
 .text.TIM_ForcedOC1Config
                0x00000000       0x10 c:/project/stm32fx_iolib/stm32f4x_iolib/stm32f4x_iolib_168MHz_8MHz.a(stm32f4xx_tim.o)
 .text.TIM_ForcedOC2Config
                0x00000000       0x14 c:/project/stm32fx_iolib/stm32f4x_iolib/stm32f4x_iolib_168MHz_8MHz.a(stm32f4xx_tim.o)
 .text.TIM_ForcedOC3Config
                0x00000000       0x10 c:/project/stm32fx_iolib/stm32f4x_iolib/stm32f4x_iolib_168MHz_8MHz.a(stm32f4xx_tim.o)
 .text.TIM_ForcedOC4Config
                0x00000000       0x14 c:/project/stm32fx_iolib/stm32f4x_iolib/stm32f4x_iolib_168MHz_8MHz.a(stm32f4xx_tim.o)
 .text.TIM_OC1PreloadConfig
                0x00000000       0x10 c:/project/stm32fx_iolib/stm32f4x_iolib/stm32f4x_iolib_168MHz_8MHz.a(stm32f4xx_tim.o)
 .text.TIM_OC2PreloadConfig
                0x00000000       0x14 c:/project/stm32fx_iolib/stm32f4x_iolib/stm32f4x_iolib_168MHz_8MHz.a(stm32f4xx_tim.o)
 .text.TIM_OC3PreloadConfig
                0x00000000       0x10 c:/project/stm32fx_iolib/stm32f4x_iolib/stm32f4x_iolib_168MHz_8MHz.a(stm32f4xx_tim.o)
 .text.TIM_OC4PreloadConfig
                0x00000000       0x14 c:/project/stm32fx_iolib/stm32f4x_iolib/stm32f4x_iolib_168MHz_8MHz.a(stm32f4xx_tim.o)
 .text.TIM_OC1FastConfig
                0x00000000       0x10 c:/project/stm32fx_iolib/stm32f4x_iolib/stm32f4x_iolib_168MHz_8MHz.a(stm32f4xx_tim.o)
 .text.TIM_OC2FastConfig
                0x00000000       0x14 c:/project/stm32fx_iolib/stm32f4x_iolib/stm32f4x_iolib_168MHz_8MHz.a(stm32f4xx_tim.o)
 .text.TIM_OC3FastConfig
                0x00000000       0x10 c:/project/stm32fx_iolib/stm32f4x_iolib/stm32f4x_iolib_168MHz_8MHz.a(stm32f4xx_tim.o)
 .text.TIM_OC4FastConfig
                0x00000000       0x14 c:/project/stm32fx_iolib/stm32f4x_iolib/stm32f4x_iolib_168MHz_8MHz.a(stm32f4xx_tim.o)
 .text.TIM_ClearOC1Ref
                0x00000000       0x10 c:/project/stm32fx_iolib/stm32f4x_iolib/stm32f4x_iolib_168MHz_8MHz.a(stm32f4xx_tim.o)
 .text.TIM_ClearOC2Ref
                0x00000000       0x10 c:/project/stm32fx_iolib/stm32f4x_iolib/stm32f4x_iolib_168MHz_8MHz.a(stm32f4xx_tim.o)
 .text.TIM_ClearOC3Ref
                0x00000000       0x10 c:/project/stm32fx_iolib/stm32f4x_iolib/stm32f4x_iolib_168MHz_8MHz.a(stm32f4xx_tim.o)
 .text.TIM_ClearOC4Ref
                0x00000000       0x10 c:/project/stm32fx_iolib/stm32f4x_iolib/stm32f4x_iolib_168MHz_8MHz.a(stm32f4xx_tim.o)
 .text.TIM_OC1NPolarityConfig
                0x00000000       0x10 c:/project/stm32fx_iolib/stm32f4x_iolib/stm32f4x_iolib_168MHz_8MHz.a(stm32f4xx_tim.o)
 .text.TIM_OC2PolarityConfig
                0x00000000       0x14 c:/project/stm32fx_iolib/stm32f4x_iolib/stm32f4x_iolib_168MHz_8MHz.a(stm32f4xx_tim.o)
 .text.TIM_OC2NPolarityConfig
                0x00000000       0x14 c:/project/stm32fx_iolib/stm32f4x_iolib/stm32f4x_iolib_168MHz_8MHz.a(stm32f4xx_tim.o)
 .text.TIM_OC3PolarityConfig
                0x00000000       0x14 c:/project/stm32fx_iolib/stm32f4x_iolib/stm32f4x_iolib_168MHz_8MHz.a(stm32f4xx_tim.o)
 .text.TIM_OC3NPolarityConfig
                0x00000000       0x14 c:/project/stm32fx_iolib/stm32f4x_iolib/stm32f4x_iolib_168MHz_8MHz.a(stm32f4xx_tim.o)
 .text.TIM_OC4PolarityConfig
                0x00000000       0x14 c:/project/stm32fx_iolib/stm32f4x_iolib/stm32f4x_iolib_168MHz_8MHz.a(stm32f4xx_tim.o)
 .text.TIM_CCxCmd
                0x00000000       0x1c c:/project/stm32fx_iolib/stm32f4x_iolib/stm32f4x_iolib_168MHz_8MHz.a(stm32f4xx_tim.o)
 .text.TIM_CCxNCmd
                0x00000000       0x1c c:/project/stm32fx_iolib/stm32f4x_iolib/stm32f4x_iolib_168MHz_8MHz.a(stm32f4xx_tim.o)
 .text.TIM_ICStructInit
                0x00000000       0x10 c:/project/stm32fx_iolib/stm32f4x_iolib/stm32f4x_iolib_168MHz_8MHz.a(stm32f4xx_tim.o)
 .text.TIM_GetCapture2
                0x00000000        0x4 c:/project/stm32fx_iolib/stm32f4x_iolib/stm32f4x_iolib_168MHz_8MHz.a(stm32f4xx_tim.o)
 .text.TIM_GetCapture3
                0x00000000        0x4 c:/project/stm32fx_iolib/stm32f4x_iolib/stm32f4x_iolib_168MHz_8MHz.a(stm32f4xx_tim.o)
 .text.TIM_GetCapture4
                0x00000000        0x4 c:/project/stm32fx_iolib/stm32f4x_iolib/stm32f4x_iolib_168MHz_8MHz.a(stm32f4xx_tim.o)
 .text.TIM_PWMIConfig
                0x00000000       0x5a c:/project/stm32fx_iolib/stm32f4x_iolib/stm32f4x_iolib_168MHz_8MHz.a(stm32f4xx_tim.o)
 .text.TIM_BDTRConfig
                0x00000000       0x22 c:/project/stm32fx_iolib/stm32f4x_iolib/stm32f4x_iolib_168MHz_8MHz.a(stm32f4xx_tim.o)
 .text.TIM_BDTRStructInit
                0x00000000       0x12 c:/project/stm32fx_iolib/stm32f4x_iolib/stm32f4x_iolib_168MHz_8MHz.a(stm32f4xx_tim.o)
 .text.TIM_CtrlPWMOutputs
                0x00000000       0x1c c:/project/stm32fx_iolib/stm32f4x_iolib/stm32f4x_iolib_168MHz_8MHz.a(stm32f4xx_tim.o)
 .text.TIM_SelectCOM
                0x00000000       0x18 c:/project/stm32fx_iolib/stm32f4x_iolib/stm32f4x_iolib_168MHz_8MHz.a(stm32f4xx_tim.o)
 .text.TIM_CCPreloadControl
                0x00000000       0x18 c:/project/stm32fx_iolib/stm32f4x_iolib/stm32f4x_iolib_168MHz_8MHz.a(stm32f4xx_tim.o)
 .text.TIM_GenerateEvent
                0x00000000        0x4 c:/project/stm32fx_iolib/stm32f4x_iolib/stm32f4x_iolib_168MHz_8MHz.a(stm32f4xx_tim.o)
 .text.TIM_GetFlagStatus
                0x00000000        0xc c:/project/stm32fx_iolib/stm32f4x_iolib/stm32f4x_iolib_168MHz_8MHz.a(stm32f4xx_tim.o)
 .text.TIM_ClearFlag
                0x00000000        0x8 c:/project/stm32fx_iolib/stm32f4x_iolib/stm32f4x_iolib_168MHz_8MHz.a(stm32f4xx_tim.o)
 .text.TIM_DMAConfig
                0x00000000        0x8 c:/project/stm32fx_iolib/stm32f4x_iolib/stm32f4x_iolib_168MHz_8MHz.a(stm32f4xx_tim.o)
 .text.TIM_DMACmd
                0x00000000        0x4 c:/project/stm32fx_iolib/stm32f4x_iolib/stm32f4x_iolib_168MHz_8MHz.a(stm32f4xx_tim.o)
 .text.TIM_SelectCCDMA
                0x00000000       0x18 c:/project/stm32fx_iolib/stm32f4x_iolib/stm32f4x_iolib_168MHz_8MHz.a(stm32f4xx_tim.o)
 .text.TIM_InternalClockConfig
                0x00000000        0xe c:/project/stm32fx_iolib/stm32f4x_iolib/stm32f4x_iolib_168MHz_8MHz.a(stm32f4xx_tim.o)
 .text.TIM_ITRxExternalClockConfig
                0x00000000       0x1a c:/project/stm32fx_iolib/stm32f4x_iolib/stm32f4x_iolib_168MHz_8MHz.a(stm32f4xx_tim.o)
 .text.TIM_TIxExternalClockConfig
                0x00000000       0x34 c:/project/stm32fx_iolib/stm32f4x_iolib/stm32f4x_iolib_168MHz_8MHz.a(stm32f4xx_tim.o)
 .text.TIM_SelectInputTrigger
                0x00000000       0x10 c:/project/stm32fx_iolib/stm32f4x_iolib/stm32f4x_iolib_168MHz_8MHz.a(stm32f4xx_tim.o)
 .text.TIM_SelectOutputTrigger
                0x00000000       0x16 c:/project/stm32fx_iolib/stm32f4x_iolib/stm32f4x_iolib_168MHz_8MHz.a(stm32f4xx_tim.o)
 .text.TIM_SelectSlaveMode
                0x00000000       0x16 c:/project/stm32fx_iolib/stm32f4x_iolib/stm32f4x_iolib_168MHz_8MHz.a(stm32f4xx_tim.o)
 .text.TIM_SelectMasterSlaveMode
                0x00000000       0x16 c:/project/stm32fx_iolib/stm32f4x_iolib/stm32f4x_iolib_168MHz_8MHz.a(stm32f4xx_tim.o)
 .text.TIM_ETRConfig
                0x00000000       0x14 c:/project/stm32fx_iolib/stm32f4x_iolib/stm32f4x_iolib_168MHz_8MHz.a(stm32f4xx_tim.o)
 .text.TIM_ETRClockMode1Config
                0x00000000       0x18 c:/project/stm32fx_iolib/stm32f4x_iolib/stm32f4x_iolib_168MHz_8MHz.a(stm32f4xx_tim.o)
 .text.TIM_ETRClockMode2Config
                0x00000000       0x12 c:/project/stm32fx_iolib/stm32f4x_iolib/stm32f4x_iolib_168MHz_8MHz.a(stm32f4xx_tim.o)
 .text.TIM_EncoderInterfaceConfig
                0x00000000       0x3e c:/project/stm32fx_iolib/stm32f4x_iolib/stm32f4x_iolib_168MHz_8MHz.a(stm32f4xx_tim.o)
 .text.TIM_SelectHallSensor
                0x00000000       0x18 c:/project/stm32fx_iolib/stm32f4x_iolib/stm32f4x_iolib_168MHz_8MHz.a(stm32f4xx_tim.o)
 .text.TIM_RemapConfig
                0x00000000        0x6 c:/project/stm32fx_iolib/stm32f4x_iolib/stm32f4x_iolib_168MHz_8MHz.a(stm32f4xx_tim.o)
 .text          0x00000000        0x0 c:/project/stm32fx_iolib/stm32f4x_iolib/stm32f4x_iolib_168MHz_8MHz.a(stm32f4xx_usart.o)
 .data          0x00000000        0x0 c:/project/stm32fx_iolib/stm32f4x_iolib/stm32f4x_iolib_168MHz_8MHz.a(stm32f4xx_usart.o)
 .bss           0x00000000        0x0 c:/project/stm32fx_iolib/stm32f4x_iolib/stm32f4x_iolib_168MHz_8MHz.a(stm32f4xx_usart.o)
 .text.USART_StructInit
                0x00000000       0x14 c:/project/stm32fx_iolib/stm32f4x_iolib/stm32f4x_iolib_168MHz_8MHz.a(stm32f4xx_usart.o)
 .text.USART_ClockInit
                0x00000000       0x20 c:/project/stm32fx_iolib/stm32f4x_iolib/stm32f4x_iolib_168MHz_8MHz.a(stm32f4xx_usart.o)
 .text.USART_ClockStructInit
                0x00000000        0xc c:/project/stm32fx_iolib/stm32f4x_iolib/stm32f4x_iolib_168MHz_8MHz.a(stm32f4xx_usart.o)
 .text.USART_SetPrescaler
                0x00000000       0x12 c:/project/stm32fx_iolib/stm32f4x_iolib/stm32f4x_iolib_168MHz_8MHz.a(stm32f4xx_usart.o)
 .text.USART_OverSampling8Cmd
                0x00000000       0x18 c:/project/stm32fx_iolib/stm32f4x_iolib/stm32f4x_iolib_168MHz_8MHz.a(stm32f4xx_usart.o)
 .text.USART_OneBitMethodCmd
                0x00000000       0x18 c:/project/stm32fx_iolib/stm32f4x_iolib/stm32f4x_iolib_168MHz_8MHz.a(stm32f4xx_usart.o)
 .text.USART_SetAddress
                0x00000000       0x16 c:/project/stm32fx_iolib/stm32f4x_iolib/stm32f4x_iolib_168MHz_8MHz.a(stm32f4xx_usart.o)
 .text.USART_ReceiverWakeUpCmd
                0x00000000       0x18 c:/project/stm32fx_iolib/stm32f4x_iolib/stm32f4x_iolib_168MHz_8MHz.a(stm32f4xx_usart.o)
 .text.USART_WakeUpConfig
                0x00000000       0x16 c:/project/stm32fx_iolib/stm32f4x_iolib/stm32f4x_iolib_168MHz_8MHz.a(stm32f4xx_usart.o)
 .text.USART_LINBreakDetectLengthConfig
                0x00000000       0x16 c:/project/stm32fx_iolib/stm32f4x_iolib/stm32f4x_iolib_168MHz_8MHz.a(stm32f4xx_usart.o)
 .text.USART_LINCmd
                0x00000000       0x18 c:/project/stm32fx_iolib/stm32f4x_iolib/stm32f4x_iolib_168MHz_8MHz.a(stm32f4xx_usart.o)
 .text.USART_SendBreak
                0x00000000        0xc c:/project/stm32fx_iolib/stm32f4x_iolib/stm32f4x_iolib_168MHz_8MHz.a(stm32f4xx_usart.o)
 .text.USART_HalfDuplexCmd
                0x00000000       0x18 c:/project/stm32fx_iolib/stm32f4x_iolib/stm32f4x_iolib_168MHz_8MHz.a(stm32f4xx_usart.o)
 .text.USART_SetGuardTime
                0x00000000       0x12 c:/project/stm32fx_iolib/stm32f4x_iolib/stm32f4x_iolib_168MHz_8MHz.a(stm32f4xx_usart.o)
 .text.USART_SmartCardCmd
                0x00000000       0x18 c:/project/stm32fx_iolib/stm32f4x_iolib/stm32f4x_iolib_168MHz_8MHz.a(stm32f4xx_usart.o)
 .text.USART_SmartCardNACKCmd
                0x00000000       0x18 c:/project/stm32fx_iolib/stm32f4x_iolib/stm32f4x_iolib_168MHz_8MHz.a(stm32f4xx_usart.o)
 .text.USART_IrDAConfig
                0x00000000       0x16 c:/project/stm32fx_iolib/stm32f4x_iolib/stm32f4x_iolib_168MHz_8MHz.a(stm32f4xx_usart.o)
 .text.USART_IrDACmd
                0x00000000       0x18 c:/project/stm32fx_iolib/stm32f4x_iolib/stm32f4x_iolib_168MHz_8MHz.a(stm32f4xx_usart.o)
 .text.USART_DMACmd
                0x00000000       0x12 c:/project/stm32fx_iolib/stm32f4x_iolib/stm32f4x_iolib_168MHz_8MHz.a(stm32f4xx_usart.o)
 .text.USART_GetFlagStatus
                0x00000000        0xc c:/project/stm32fx_iolib/stm32f4x_iolib/stm32f4x_iolib_168MHz_8MHz.a(stm32f4xx_usart.o)
 .text.USART_ClearFlag
                0x00000000        0x8 c:/project/stm32fx_iolib/stm32f4x_iolib/stm32f4x_iolib_168MHz_8MHz.a(stm32f4xx_usart.o)
 .text          0x00000000        0x0 c:/project/stm32fx_iolib/stm32f4x_iolib/stm32f4x_iolib_168MHz_8MHz.a(stm32f4xx_fsmc.o)
 .data          0x00000000        0x0 c:/project/stm32fx_iolib/stm32f4x_iolib/stm32f4x_iolib_168MHz_8MHz.a(stm32f4xx_fsmc.o)
 .bss           0x00000000        0x0 c:/project/stm32fx_iolib/stm32f4x_iolib/stm32f4x_iolib_168MHz_8MHz.a(stm32f4xx_fsmc.o)
 .text.FSMC_NORSRAMDeInit
                0x00000000       0x28 c:/project/stm32fx_iolib/stm32f4x_iolib/stm32f4x_iolib_168MHz_8MHz.a(stm32f4xx_fsmc.o)
 .text.FSMC_NORSRAMStructInit
                0x00000000       0x34 c:/project/stm32fx_iolib/stm32f4x_iolib/stm32f4x_iolib_168MHz_8MHz.a(stm32f4xx_fsmc.o)
 .text.FSMC_NANDDeInit
                0x00000000       0x34 c:/project/stm32fx_iolib/stm32f4x_iolib/stm32f4x_iolib_168MHz_8MHz.a(stm32f4xx_fsmc.o)
 .text.FSMC_NANDInit
                0x00000000       0x9c c:/project/stm32fx_iolib/stm32f4x_iolib/stm32f4x_iolib_168MHz_8MHz.a(stm32f4xx_fsmc.o)
 .text.FSMC_NANDStructInit
                0x00000000       0x2a c:/project/stm32fx_iolib/stm32f4x_iolib/stm32f4x_iolib_168MHz_8MHz.a(stm32f4xx_fsmc.o)
 .text.FSMC_NANDCmd
                0x00000000       0x3c c:/project/stm32fx_iolib/stm32f4x_iolib/stm32f4x_iolib_168MHz_8MHz.a(stm32f4xx_fsmc.o)
 .text.FSMC_NANDECCCmd
                0x00000000       0x3c c:/project/stm32fx_iolib/stm32f4x_iolib/stm32f4x_iolib_168MHz_8MHz.a(stm32f4xx_fsmc.o)
 .text.FSMC_GetECC
                0x00000000       0x10 c:/project/stm32fx_iolib/stm32f4x_iolib/stm32f4x_iolib_168MHz_8MHz.a(stm32f4xx_fsmc.o)
 .text.FSMC_PCCARDDeInit
                0x00000000       0x22 c:/project/stm32fx_iolib/stm32f4x_iolib/stm32f4x_iolib_168MHz_8MHz.a(stm32f4xx_fsmc.o)
 .text.FSMC_PCCARDInit
                0x00000000       0x86 c:/project/stm32fx_iolib/stm32f4x_iolib/stm32f4x_iolib_168MHz_8MHz.a(stm32f4xx_fsmc.o)
 .text.FSMC_PCCARDStructInit
                0x00000000       0x2a c:/project/stm32fx_iolib/stm32f4x_iolib/stm32f4x_iolib_168MHz_8MHz.a(stm32f4xx_fsmc.o)
 .text.FSMC_PCCARDCmd
                0x00000000       0x24 c:/project/stm32fx_iolib/stm32f4x_iolib/stm32f4x_iolib_168MHz_8MHz.a(stm32f4xx_fsmc.o)
 .text.FSMC_ITConfig
                0x00000000       0x54 c:/project/stm32fx_iolib/stm32f4x_iolib/stm32f4x_iolib_168MHz_8MHz.a(stm32f4xx_fsmc.o)
 .text.FSMC_GetFlagStatus
                0x00000000       0x24 c:/project/stm32fx_iolib/stm32f4x_iolib/stm32f4x_iolib_168MHz_8MHz.a(stm32f4xx_fsmc.o)
 .text.FSMC_ClearFlag
                0x00000000       0x32 c:/project/stm32fx_iolib/stm32f4x_iolib/stm32f4x_iolib_168MHz_8MHz.a(stm32f4xx_fsmc.o)
 .text.FSMC_GetITStatus
                0x00000000       0x2c c:/project/stm32fx_iolib/stm32f4x_iolib/stm32f4x_iolib_168MHz_8MHz.a(stm32f4xx_fsmc.o)
 .text.FSMC_ClearITPendingBit
                0x00000000       0x32 c:/project/stm32fx_iolib/stm32f4x_iolib/stm32f4x_iolib_168MHz_8MHz.a(stm32f4xx_fsmc.o)
 .rodata.FSMC_DefaultTimingStruct
                0x00000000       0x1c c:/project/stm32fx_iolib/stm32f4x_iolib/stm32f4x_iolib_168MHz_8MHz.a(stm32f4xx_fsmc.o)
 .text          0x00000000        0x0 source/audio_codec/mp3/mp3.a(mp3dec.o)
 .data          0x00000000        0x0 source/audio_codec/mp3/mp3.a(mp3dec.o)
 .bss           0x00000000        0x0 source/audio_codec/mp3/mp3.a(mp3dec.o)
 .text          0x00000000        0x0 source/audio_codec/mp3/mp3.a(mp3tabs.o)
 .data          0x00000000        0x0 source/audio_codec/mp3/mp3.a(mp3tabs.o)
 .bss           0x00000000        0x0 source/audio_codec/mp3/mp3.a(mp3tabs.o)
 .rodata.xmp3_bitsPerSlotTab
                0x00000000        0x6 source/audio_codec/mp3/mp3.a(mp3tabs.o)
 .text          0x00000000        0x0 source/audio_codec/mp3/mp3.a(scalfact.o)
 .data          0x00000000        0x0 source/audio_codec/mp3/mp3.a(scalfact.o)
 .bss           0x00000000        0x0 source/audio_codec/mp3/mp3.a(scalfact.o)
 .text          0x00000000        0x0 source/audio_codec/mp3/mp3.a(subband.o)
 .data          0x00000000        0x0 source/audio_codec/mp3/mp3.a(subband.o)
 .bss           0x00000000        0x0 source/audio_codec/mp3/mp3.a(subband.o)
 .text          0x00000000        0x0 source/audio_codec/mp3/mp3.a(trigtabs.o)
 .data          0x00000000        0x0 source/audio_codec/mp3/mp3.a(trigtabs.o)
 .bss           0x00000000        0x0 source/audio_codec/mp3/mp3.a(trigtabs.o)
 .rodata.xmp3_coef32
                0x00000000       0x7c source/audio_codec/mp3/mp3.a(trigtabs.o)
 .rodata.xmp3_uniqueIDTab
                0x00000000        0x8 source/audio_codec/mp3/mp3.a(trigtabs.o)
 .data          0x00000000        0x0 source/audio_codec/mp3/mp3.a(asmpoly_thumb2.o)
 .bss           0x00000000        0x0 source/audio_codec/mp3/mp3.a(asmpoly_thumb2.o)
 .text          0x00000000        0x0 source/audio_codec/mp3/mp3.a(bitstream.o)
 .data          0x00000000        0x0 source/audio_codec/mp3/mp3.a(bitstream.o)
 .bss           0x00000000        0x0 source/audio_codec/mp3/mp3.a(bitstream.o)
 .text          0x00000000        0x0 source/audio_codec/mp3/mp3.a(buffers.o)
 .data          0x00000000        0x0 source/audio_codec/mp3/mp3.a(buffers.o)
 .bss           0x00000000        0x0 source/audio_codec/mp3/mp3.a(buffers.o)
 .text          0x00000000        0x0 source/audio_codec/mp3/mp3.a(dct32.o)
 .data          0x00000000        0x0 source/audio_codec/mp3/mp3.a(dct32.o)
 .bss           0x00000000        0x0 source/audio_codec/mp3/mp3.a(dct32.o)
 .text          0x00000000        0x0 source/audio_codec/mp3/mp3.a(dequant.o)
 .data          0x00000000        0x0 source/audio_codec/mp3/mp3.a(dequant.o)
 .bss           0x00000000        0x0 source/audio_codec/mp3/mp3.a(dequant.o)
 .text          0x00000000        0x0 source/audio_codec/mp3/mp3.a(dqchan.o)
 .data          0x00000000        0x0 source/audio_codec/mp3/mp3.a(dqchan.o)
 .bss           0x00000000        0x0 source/audio_codec/mp3/mp3.a(dqchan.o)
 .text          0x00000000        0x0 source/audio_codec/mp3/mp3.a(huffman.o)
 .data          0x00000000        0x0 source/audio_codec/mp3/mp3.a(huffman.o)
 .bss           0x00000000        0x0 source/audio_codec/mp3/mp3.a(huffman.o)
 .text          0x00000000        0x0 source/audio_codec/mp3/mp3.a(hufftabs.o)
 .data          0x00000000        0x0 source/audio_codec/mp3/mp3.a(hufftabs.o)
 .bss           0x00000000        0x0 source/audio_codec/mp3/mp3.a(hufftabs.o)
 .text          0x00000000        0x0 source/audio_codec/mp3/mp3.a(imdct.o)
 .data          0x00000000        0x0 source/audio_codec/mp3/mp3.a(imdct.o)
 .bss           0x00000000        0x0 source/audio_codec/mp3/mp3.a(imdct.o)
 .text          0x00000000        0x0 source/audio_codec/mp3/mp3.a(stproc.o)
 .data          0x00000000        0x0 source/audio_codec/mp3/mp3.a(stproc.o)
 .bss           0x00000000        0x0 source/audio_codec/mp3/mp3.a(stproc.o)
 .data          0x00000000        0x0 source/audio_codec/mp3/mp3.a(asmmisc.o)
 .bss           0x00000000        0x0 source/audio_codec/mp3/mp3.a(asmmisc.o)
 .text          0x00000000        0x0 source/audio_codec/flac/flac.a(flacdecoder.o)
 .data          0x00000000        0x0 source/audio_codec/flac/flac.a(flacdecoder.o)
 .bss           0x00000000        0x0 source/audio_codec/flac/flac.a(flacdecoder.o)
 .text          0x00000000        0x0 source/audio_codec/flac/flac.a(tables.o)
 .data          0x00000000        0x0 source/audio_codec/flac/flac.a(tables.o)
 .bss           0x00000000        0x0 source/audio_codec/flac/flac.a(tables.o)
 .text          0x00000000        0x0 source/audio_codec/flac/flac.a(bitstreamf.o)
 .data          0x00000000        0x0 source/audio_codec/flac/flac.a(bitstreamf.o)
 .bss           0x00000000        0x0 source/audio_codec/flac/flac.a(bitstreamf.o)
 .text.swap32   0x00000000       0x1c source/audio_codec/flac/flac.a(bitstreamf.o)
 .text.get_bits
                0x00000000       0x22 source/audio_codec/flac/flac.a(bitstreamf.o)
 .text.get_bits_long
                0x00000000       0x2a source/audio_codec/flac/flac.a(bitstreamf.o)
 .text.show_bits_long
                0x00000000       0x46 source/audio_codec/flac/flac.a(bitstreamf.o)
 .text          0x00000000        0x0 source/audio_codec/ape/ape.a(apedecoder.o)
 .data          0x00000000        0x0 source/audio_codec/ape/ape.a(apedecoder.o)
 .bss           0x00000000        0x0 source/audio_codec/ape/ape.a(apedecoder.o)
 .text.ape_seek_frame
                0x00000000       0x56 source/audio_codec/ape/ape.a(apedecoder.o)
 .bss.filterbuf1280
                0x00000000        0x4 source/audio_codec/ape/ape.a(apedecoder.o)
 .bss.filterbuf256
                0x00000000        0x4 source/audio_codec/ape/ape.a(apedecoder.o)
 .text          0x00000000        0x0 source/audio_codec/ape/ape.a(entropy.o)
 .data          0x00000000        0x0 source/audio_codec/ape/ape.a(entropy.o)
 .bss           0x00000000        0x0 source/audio_codec/ape/ape.a(entropy.o)
 .text          0x00000000        0x0 source/audio_codec/ape/ape.a(filter_16_11.o)
 .data          0x00000000        0x0 source/audio_codec/ape/ape.a(filter_16_11.o)
 .bss           0x00000000        0x0 source/audio_codec/ape/ape.a(filter_16_11.o)
 .text          0x00000000        0x0 source/audio_codec/ape/ape.a(filter_64_11.o)
 .data          0x00000000        0x0 source/audio_codec/ape/ape.a(filter_64_11.o)
 .bss           0x00000000        0x0 source/audio_codec/ape/ape.a(filter_64_11.o)
 .text          0x00000000        0x0 source/audio_codec/ape/ape.a(parser.o)
 .data          0x00000000        0x0 source/audio_codec/ape/ape.a(parser.o)
 .bss           0x00000000        0x0 source/audio_codec/ape/ape.a(parser.o)
 .text.get_uint32
                0x00000000        0x4 source/audio_codec/ape/ape.a(parser.o)
 .text.ape_parseheaderbuf
                0x00000000      0x1d4 source/audio_codec/ape/ape.a(parser.o)
 .text.ape_dumpinfo
                0x00000000        0x2 source/audio_codec/ape/ape.a(parser.o)
 .text          0x00000000        0x0 source/audio_codec/ape/ape.a(predictor.o)
 .data          0x00000000        0x0 source/audio_codec/ape/ape.a(predictor.o)
 .bss           0x00000000        0x0 source/audio_codec/ape/ape.a(predictor.o)
 .data          0x00000000        0x0 source/audio_codec/ape/ape.a(predictor-arm.o)
 .bss           0x00000000        0x0 source/audio_codec/ape/ape.a(predictor-arm.o)
 ICODE_SECTION_DEMAC_ARM
                0x00000000        0x0 source/audio_codec/ape/ape.a(predictor-arm.o)
 .text          0x00000000        0x0 c:/program files (x86)/arm gnu toolchain arm-none-eabi/12.2 mpacbti-rel1/bin/../lib/gcc/arm-none-eabi/12.2.1/thumb/v7e-m+fp/hard\libc.a(libc_a-abort.o)
 .data          0x00000000        0x0 c:/program files (x86)/arm gnu toolchain arm-none-eabi/12.2 mpacbti-rel1/bin/../lib/gcc/arm-none-eabi/12.2.1/thumb/v7e-m+fp/hard\libc.a(libc_a-abort.o)
 .bss           0x00000000        0x0 c:/program files (x86)/arm gnu toolchain arm-none-eabi/12.2 mpacbti-rel1/bin/../lib/gcc/arm-none-eabi/12.2.1/thumb/v7e-m+fp/hard\libc.a(libc_a-abort.o)
 .text          0x00000000        0x0 c:/program files (x86)/arm gnu toolchain arm-none-eabi/12.2 mpacbti-rel1/bin/../lib/gcc/arm-none-eabi/12.2.1/thumb/v7e-m+fp/hard\libc.a(libc_a-malloc.o)
 .data          0x00000000        0x0 c:/program files (x86)/arm gnu toolchain arm-none-eabi/12.2 mpacbti-rel1/bin/../lib/gcc/arm-none-eabi/12.2.1/thumb/v7e-m+fp/hard\libc.a(libc_a-malloc.o)
 .bss           0x00000000        0x0 c:/program files (x86)/arm gnu toolchain arm-none-eabi/12.2 mpacbti-rel1/bin/../lib/gcc/arm-none-eabi/12.2.1/thumb/v7e-m+fp/hard\libc.a(libc_a-malloc.o)
 .text          0x00000000        0x0 c:/program files (x86)/arm gnu toolchain arm-none-eabi/12.2 mpacbti-rel1/bin/../lib/gcc/arm-none-eabi/12.2.1/thumb/v7e-m+fp/hard\libc.a(libc_a-mallocr.o)
 .data          0x00000000        0x0 c:/program files (x86)/arm gnu toolchain arm-none-eabi/12.2 mpacbti-rel1/bin/../lib/gcc/arm-none-eabi/12.2.1/thumb/v7e-m+fp/hard\libc.a(libc_a-mallocr.o)
 .bss           0x00000000        0x0 c:/program files (x86)/arm gnu toolchain arm-none-eabi/12.2 mpacbti-rel1/bin/../lib/gcc/arm-none-eabi/12.2.1/thumb/v7e-m+fp/hard\libc.a(libc_a-mallocr.o)
 .text          0x00000000        0x0 c:/program files (x86)/arm gnu toolchain arm-none-eabi/12.2 mpacbti-rel1/bin/../lib/gcc/arm-none-eabi/12.2.1/thumb/v7e-m+fp/hard\libc.a(libc_a-mlock.o)
 .data          0x00000000        0x0 c:/program files (x86)/arm gnu toolchain arm-none-eabi/12.2 mpacbti-rel1/bin/../lib/gcc/arm-none-eabi/12.2.1/thumb/v7e-m+fp/hard\libc.a(libc_a-mlock.o)
 .bss           0x00000000        0x0 c:/program files (x86)/arm gnu toolchain arm-none-eabi/12.2 mpacbti-rel1/bin/../lib/gcc/arm-none-eabi/12.2.1/thumb/v7e-m+fp/hard\libc.a(libc_a-mlock.o)
 .text          0x00000000        0x0 c:/program files (x86)/arm gnu toolchain arm-none-eabi/12.2 mpacbti-rel1/bin/../lib/gcc/arm-none-eabi/12.2.1/thumb/v7e-m+fp/hard\libc.a(libc_a-rand.o)
 .data          0x00000000        0x0 c:/program files (x86)/arm gnu toolchain arm-none-eabi/12.2 mpacbti-rel1/bin/../lib/gcc/arm-none-eabi/12.2.1/thumb/v7e-m+fp/hard\libc.a(libc_a-rand.o)
 .bss           0x00000000        0x0 c:/program files (x86)/arm gnu toolchain arm-none-eabi/12.2 mpacbti-rel1/bin/../lib/gcc/arm-none-eabi/12.2.1/thumb/v7e-m+fp/hard\libc.a(libc_a-rand.o)
 .text.srand    0x00000000       0x10 c:/program files (x86)/arm gnu toolchain arm-none-eabi/12.2 mpacbti-rel1/bin/../lib/gcc/arm-none-eabi/12.2.1/thumb/v7e-m+fp/hard\libc.a(libc_a-rand.o)
 .text          0x00000000        0x0 c:/program files (x86)/arm gnu toolchain arm-none-eabi/12.2 mpacbti-rel1/bin/../lib/gcc/arm-none-eabi/12.2.1/thumb/v7e-m+fp/hard\libc.a(libc_a-memcmp.o)
 .data          0x00000000        0x0 c:/program files (x86)/arm gnu toolchain arm-none-eabi/12.2 mpacbti-rel1/bin/../lib/gcc/arm-none-eabi/12.2.1/thumb/v7e-m+fp/hard\libc.a(libc_a-memcmp.o)
 .bss           0x00000000        0x0 c:/program files (x86)/arm gnu toolchain arm-none-eabi/12.2 mpacbti-rel1/bin/../lib/gcc/arm-none-eabi/12.2.1/thumb/v7e-m+fp/hard\libc.a(libc_a-memcmp.o)
 .text          0x00000000        0x0 c:/program files (x86)/arm gnu toolchain arm-none-eabi/12.2 mpacbti-rel1/bin/../lib/gcc/arm-none-eabi/12.2.1/thumb/v7e-m+fp/hard\libc.a(libc_a-memmove.o)
 .data          0x00000000        0x0 c:/program files (x86)/arm gnu toolchain arm-none-eabi/12.2 mpacbti-rel1/bin/../lib/gcc/arm-none-eabi/12.2.1/thumb/v7e-m+fp/hard\libc.a(libc_a-memmove.o)
 .bss           0x00000000        0x0 c:/program files (x86)/arm gnu toolchain arm-none-eabi/12.2 mpacbti-rel1/bin/../lib/gcc/arm-none-eabi/12.2.1/thumb/v7e-m+fp/hard\libc.a(libc_a-memmove.o)
 .text          0x00000000        0x0 c:/program files (x86)/arm gnu toolchain arm-none-eabi/12.2 mpacbti-rel1/bin/../lib/gcc/arm-none-eabi/12.2.1/thumb/v7e-m+fp/hard\libc.a(libc_a-memset.o)
 .data          0x00000000        0x0 c:/program files (x86)/arm gnu toolchain arm-none-eabi/12.2 mpacbti-rel1/bin/../lib/gcc/arm-none-eabi/12.2.1/thumb/v7e-m+fp/hard\libc.a(libc_a-memset.o)
 .bss           0x00000000        0x0 c:/program files (x86)/arm gnu toolchain arm-none-eabi/12.2 mpacbti-rel1/bin/../lib/gcc/arm-none-eabi/12.2.1/thumb/v7e-m+fp/hard\libc.a(libc_a-memset.o)
 .text          0x00000000        0x0 c:/program files (x86)/arm gnu toolchain arm-none-eabi/12.2 mpacbti-rel1/bin/../lib/gcc/arm-none-eabi/12.2.1/thumb/v7e-m+fp/hard\libc.a(libc_a-strcasecmp.o)
 .data          0x00000000        0x0 c:/program files (x86)/arm gnu toolchain arm-none-eabi/12.2 mpacbti-rel1/bin/../lib/gcc/arm-none-eabi/12.2.1/thumb/v7e-m+fp/hard\libc.a(libc_a-strcasecmp.o)
 .bss           0x00000000        0x0 c:/program files (x86)/arm gnu toolchain arm-none-eabi/12.2 mpacbti-rel1/bin/../lib/gcc/arm-none-eabi/12.2.1/thumb/v7e-m+fp/hard\libc.a(libc_a-strcasecmp.o)
 .text          0x00000000        0x0 c:/program files (x86)/arm gnu toolchain arm-none-eabi/12.2 mpacbti-rel1/bin/../lib/gcc/arm-none-eabi/12.2.1/thumb/v7e-m+fp/hard\libc.a(libc_a-strcat.o)
 .data          0x00000000        0x0 c:/program files (x86)/arm gnu toolchain arm-none-eabi/12.2 mpacbti-rel1/bin/../lib/gcc/arm-none-eabi/12.2.1/thumb/v7e-m+fp/hard\libc.a(libc_a-strcat.o)
 .bss           0x00000000        0x0 c:/program files (x86)/arm gnu toolchain arm-none-eabi/12.2 mpacbti-rel1/bin/../lib/gcc/arm-none-eabi/12.2.1/thumb/v7e-m+fp/hard\libc.a(libc_a-strcat.o)
 .text          0x00000000        0x0 c:/program files (x86)/arm gnu toolchain arm-none-eabi/12.2 mpacbti-rel1/bin/../lib/gcc/arm-none-eabi/12.2.1/thumb/v7e-m+fp/hard\libc.a(libc_a-strncmp.o)
 .data          0x00000000        0x0 c:/program files (x86)/arm gnu toolchain arm-none-eabi/12.2 mpacbti-rel1/bin/../lib/gcc/arm-none-eabi/12.2.1/thumb/v7e-m+fp/hard\libc.a(libc_a-strncmp.o)
 .bss           0x00000000        0x0 c:/program files (x86)/arm gnu toolchain arm-none-eabi/12.2 mpacbti-rel1/bin/../lib/gcc/arm-none-eabi/12.2.1/thumb/v7e-m+fp/hard\libc.a(libc_a-strncmp.o)
 .text          0x00000000        0x0 c:/program files (x86)/arm gnu toolchain arm-none-eabi/12.2 mpacbti-rel1/bin/../lib/gcc/arm-none-eabi/12.2.1/thumb/v7e-m+fp/hard\libc.a(libc_a-strncpy.o)
 .data          0x00000000        0x0 c:/program files (x86)/arm gnu toolchain arm-none-eabi/12.2 mpacbti-rel1/bin/../lib/gcc/arm-none-eabi/12.2.1/thumb/v7e-m+fp/hard\libc.a(libc_a-strncpy.o)
 .bss           0x00000000        0x0 c:/program files (x86)/arm gnu toolchain arm-none-eabi/12.2 mpacbti-rel1/bin/../lib/gcc/arm-none-eabi/12.2.1/thumb/v7e-m+fp/hard\libc.a(libc_a-strncpy.o)
 .text          0x00000000        0x0 c:/program files (x86)/arm gnu toolchain arm-none-eabi/12.2 mpacbti-rel1/bin/../lib/gcc/arm-none-eabi/12.2.1/thumb/v7e-m+fp/hard\libc.a(libc_a-signal.o)
 .data          0x00000000        0x0 c:/program files (x86)/arm gnu toolchain arm-none-eabi/12.2 mpacbti-rel1/bin/../lib/gcc/arm-none-eabi/12.2.1/thumb/v7e-m+fp/hard\libc.a(libc_a-signal.o)
 .bss           0x00000000        0x0 c:/program files (x86)/arm gnu toolchain arm-none-eabi/12.2 mpacbti-rel1/bin/../lib/gcc/arm-none-eabi/12.2.1/thumb/v7e-m+fp/hard\libc.a(libc_a-signal.o)
 .text._init_signal_r
                0x00000000       0x30 c:/program files (x86)/arm gnu toolchain arm-none-eabi/12.2 mpacbti-rel1/bin/../lib/gcc/arm-none-eabi/12.2.1/thumb/v7e-m+fp/hard\libc.a(libc_a-signal.o)
 .text._signal_r
                0x00000000       0x50 c:/program files (x86)/arm gnu toolchain arm-none-eabi/12.2 mpacbti-rel1/bin/../lib/gcc/arm-none-eabi/12.2.1/thumb/v7e-m+fp/hard\libc.a(libc_a-signal.o)
 .text._raise_r
                0x00000000       0x54 c:/program files (x86)/arm gnu toolchain arm-none-eabi/12.2 mpacbti-rel1/bin/../lib/gcc/arm-none-eabi/12.2.1/thumb/v7e-m+fp/hard\libc.a(libc_a-signal.o)
 .text.__sigtramp_r
                0x00000000       0x64 c:/program files (x86)/arm gnu toolchain arm-none-eabi/12.2 mpacbti-rel1/bin/../lib/gcc/arm-none-eabi/12.2.1/thumb/v7e-m+fp/hard\libc.a(libc_a-signal.o)
 .text.signal   0x00000000       0x50 c:/program files (x86)/arm gnu toolchain arm-none-eabi/12.2 mpacbti-rel1/bin/../lib/gcc/arm-none-eabi/12.2.1/thumb/v7e-m+fp/hard\libc.a(libc_a-signal.o)
 .text._init_signal
                0x00000000       0x38 c:/program files (x86)/arm gnu toolchain arm-none-eabi/12.2 mpacbti-rel1/bin/../lib/gcc/arm-none-eabi/12.2.1/thumb/v7e-m+fp/hard\libc.a(libc_a-signal.o)
 .text.__sigtramp
                0x00000000       0x68 c:/program files (x86)/arm gnu toolchain arm-none-eabi/12.2 mpacbti-rel1/bin/../lib/gcc/arm-none-eabi/12.2.1/thumb/v7e-m+fp/hard\libc.a(libc_a-signal.o)
 .text          0x00000000        0x0 c:/program files (x86)/arm gnu toolchain arm-none-eabi/12.2 mpacbti-rel1/bin/../lib/gcc/arm-none-eabi/12.2.1/thumb/v7e-m+fp/hard\libc.a(libc_a-impure.o)
 .data          0x00000000        0x0 c:/program files (x86)/arm gnu toolchain arm-none-eabi/12.2 mpacbti-rel1/bin/../lib/gcc/arm-none-eabi/12.2.1/thumb/v7e-m+fp/hard\libc.a(libc_a-impure.o)
 .bss           0x00000000        0x0 c:/program files (x86)/arm gnu toolchain arm-none-eabi/12.2 mpacbti-rel1/bin/../lib/gcc/arm-none-eabi/12.2.1/thumb/v7e-m+fp/hard\libc.a(libc_a-impure.o)
 .text          0x00000000        0x0 c:/program files (x86)/arm gnu toolchain arm-none-eabi/12.2 mpacbti-rel1/bin/../lib/gcc/arm-none-eabi/12.2.1/thumb/v7e-m+fp/hard\libc.a(libc_a-signalr.o)
 .data          0x00000000        0x0 c:/program files (x86)/arm gnu toolchain arm-none-eabi/12.2 mpacbti-rel1/bin/../lib/gcc/arm-none-eabi/12.2.1/thumb/v7e-m+fp/hard\libc.a(libc_a-signalr.o)
 .bss           0x00000000        0x0 c:/program files (x86)/arm gnu toolchain arm-none-eabi/12.2 mpacbti-rel1/bin/../lib/gcc/arm-none-eabi/12.2.1/thumb/v7e-m+fp/hard\libc.a(libc_a-signalr.o)
 .text          0x00000000        0x0 c:/program files (x86)/arm gnu toolchain arm-none-eabi/12.2 mpacbti-rel1/bin/../lib/gcc/arm-none-eabi/12.2.1/thumb/v7e-m+fp/hard\libc.a(libc_a-sbrkr.o)
 .data          0x00000000        0x0 c:/program files (x86)/arm gnu toolchain arm-none-eabi/12.2 mpacbti-rel1/bin/../lib/gcc/arm-none-eabi/12.2.1/thumb/v7e-m+fp/hard\libc.a(libc_a-sbrkr.o)
 .bss           0x00000000        0x0 c:/program files (x86)/arm gnu toolchain arm-none-eabi/12.2 mpacbti-rel1/bin/../lib/gcc/arm-none-eabi/12.2.1/thumb/v7e-m+fp/hard\libc.a(libc_a-sbrkr.o)
 .text          0x00000000        0x0 c:/program files (x86)/arm gnu toolchain arm-none-eabi/12.2 mpacbti-rel1/bin/../lib/gcc/arm-none-eabi/12.2.1/thumb/v7e-m+fp/hard\libc.a(libc_a-errno.o)
 .data          0x00000000        0x0 c:/program files (x86)/arm gnu toolchain arm-none-eabi/12.2 mpacbti-rel1/bin/../lib/gcc/arm-none-eabi/12.2.1/thumb/v7e-m+fp/hard\libc.a(libc_a-errno.o)
 .bss           0x00000000        0x0 c:/program files (x86)/arm gnu toolchain arm-none-eabi/12.2 mpacbti-rel1/bin/../lib/gcc/arm-none-eabi/12.2.1/thumb/v7e-m+fp/hard\libc.a(libc_a-errno.o)
 .text          0x00000000        0x0 c:/program files (x86)/arm gnu toolchain arm-none-eabi/12.2 mpacbti-rel1/bin/../lib/gcc/arm-none-eabi/12.2.1/thumb/v7e-m+fp/hard\libc.a(libc_a-lock.o)
 .data          0x00000000        0x0 c:/program files (x86)/arm gnu toolchain arm-none-eabi/12.2 mpacbti-rel1/bin/../lib/gcc/arm-none-eabi/12.2.1/thumb/v7e-m+fp/hard\libc.a(libc_a-lock.o)
 .bss           0x00000000        0x0 c:/program files (x86)/arm gnu toolchain arm-none-eabi/12.2 mpacbti-rel1/bin/../lib/gcc/arm-none-eabi/12.2.1/thumb/v7e-m+fp/hard\libc.a(libc_a-lock.o)
 .text.__retarget_lock_init
                0x00000000        0x4 c:/program files (x86)/arm gnu toolchain arm-none-eabi/12.2 mpacbti-rel1/bin/../lib/gcc/arm-none-eabi/12.2.1/thumb/v7e-m+fp/hard\libc.a(libc_a-lock.o)
 .text.__retarget_lock_init_recursive
                0x00000000        0x4 c:/program files (x86)/arm gnu toolchain arm-none-eabi/12.2 mpacbti-rel1/bin/../lib/gcc/arm-none-eabi/12.2.1/thumb/v7e-m+fp/hard\libc.a(libc_a-lock.o)
 .text.__retarget_lock_close
                0x00000000        0x4 c:/program files (x86)/arm gnu toolchain arm-none-eabi/12.2 mpacbti-rel1/bin/../lib/gcc/arm-none-eabi/12.2.1/thumb/v7e-m+fp/hard\libc.a(libc_a-lock.o)
 .text.__retarget_lock_close_recursive
                0x00000000        0x4 c:/program files (x86)/arm gnu toolchain arm-none-eabi/12.2 mpacbti-rel1/bin/../lib/gcc/arm-none-eabi/12.2.1/thumb/v7e-m+fp/hard\libc.a(libc_a-lock.o)
 .text.__retarget_lock_acquire
                0x00000000        0x4 c:/program files (x86)/arm gnu toolchain arm-none-eabi/12.2 mpacbti-rel1/bin/../lib/gcc/arm-none-eabi/12.2.1/thumb/v7e-m+fp/hard\libc.a(libc_a-lock.o)
 .text.__retarget_lock_try_acquire
                0x00000000        0x4 c:/program files (x86)/arm gnu toolchain arm-none-eabi/12.2 mpacbti-rel1/bin/../lib/gcc/arm-none-eabi/12.2.1/thumb/v7e-m+fp/hard\libc.a(libc_a-lock.o)
 .text.__retarget_lock_try_acquire_recursive
                0x00000000        0x4 c:/program files (x86)/arm gnu toolchain arm-none-eabi/12.2 mpacbti-rel1/bin/../lib/gcc/arm-none-eabi/12.2.1/thumb/v7e-m+fp/hard\libc.a(libc_a-lock.o)
 .text.__retarget_lock_release
                0x00000000        0x4 c:/program files (x86)/arm gnu toolchain arm-none-eabi/12.2 mpacbti-rel1/bin/../lib/gcc/arm-none-eabi/12.2.1/thumb/v7e-m+fp/hard\libc.a(libc_a-lock.o)
 .bss.__lock___arc4random_mutex
                0x00000000        0x1 c:/program files (x86)/arm gnu toolchain arm-none-eabi/12.2 mpacbti-rel1/bin/../lib/gcc/arm-none-eabi/12.2.1/thumb/v7e-m+fp/hard\libc.a(libc_a-lock.o)
 .bss.__lock___dd_hash_mutex
                0x00000000        0x1 c:/program files (x86)/arm gnu toolchain arm-none-eabi/12.2 mpacbti-rel1/bin/../lib/gcc/arm-none-eabi/12.2.1/thumb/v7e-m+fp/hard\libc.a(libc_a-lock.o)
 .bss.__lock___tz_mutex
                0x00000000        0x1 c:/program files (x86)/arm gnu toolchain arm-none-eabi/12.2 mpacbti-rel1/bin/../lib/gcc/arm-none-eabi/12.2.1/thumb/v7e-m+fp/hard\libc.a(libc_a-lock.o)
 .bss.__lock___env_recursive_mutex
                0x00000000        0x1 c:/program files (x86)/arm gnu toolchain arm-none-eabi/12.2 mpacbti-rel1/bin/../lib/gcc/arm-none-eabi/12.2.1/thumb/v7e-m+fp/hard\libc.a(libc_a-lock.o)
 .bss.__lock___at_quick_exit_mutex
                0x00000000        0x1 c:/program files (x86)/arm gnu toolchain arm-none-eabi/12.2 mpacbti-rel1/bin/../lib/gcc/arm-none-eabi/12.2.1/thumb/v7e-m+fp/hard\libc.a(libc_a-lock.o)
 .bss.__lock___atexit_recursive_mutex
                0x00000000        0x1 c:/program files (x86)/arm gnu toolchain arm-none-eabi/12.2 mpacbti-rel1/bin/../lib/gcc/arm-none-eabi/12.2.1/thumb/v7e-m+fp/hard\libc.a(libc_a-lock.o)
 .bss.__lock___sfp_recursive_mutex
                0x00000000        0x1 c:/program files (x86)/arm gnu toolchain arm-none-eabi/12.2 mpacbti-rel1/bin/../lib/gcc/arm-none-eabi/12.2.1/thumb/v7e-m+fp/hard\libc.a(libc_a-lock.o)
 .text          0x00000000        0x0 c:/program files (x86)/arm gnu toolchain arm-none-eabi/12.2 mpacbti-rel1/bin/../lib/gcc/arm-none-eabi/12.2.1/thumb/v7e-m+fp/hard\libc.a(libc_a-sysconf.o)
 .data          0x00000000        0x0 c:/program files (x86)/arm gnu toolchain arm-none-eabi/12.2 mpacbti-rel1/bin/../lib/gcc/arm-none-eabi/12.2.1/thumb/v7e-m+fp/hard\libc.a(libc_a-sysconf.o)
 .bss           0x00000000        0x0 c:/program files (x86)/arm gnu toolchain arm-none-eabi/12.2 mpacbti-rel1/bin/../lib/gcc/arm-none-eabi/12.2.1/thumb/v7e-m+fp/hard\libc.a(libc_a-sysconf.o)
 .text          0x00000000        0x0 c:/program files (x86)/arm gnu toolchain arm-none-eabi/12.2 mpacbti-rel1/bin/../lib/gcc/arm-none-eabi/12.2.1/thumb/v7e-m+fp/hard\libc.a(libc_a-strcpy.o)
 .data          0x00000000        0x0 c:/program files (x86)/arm gnu toolchain arm-none-eabi/12.2 mpacbti-rel1/bin/../lib/gcc/arm-none-eabi/12.2.1/thumb/v7e-m+fp/hard\libc.a(libc_a-strcpy.o)
 .bss           0x00000000        0x0 c:/program files (x86)/arm gnu toolchain arm-none-eabi/12.2 mpacbti-rel1/bin/../lib/gcc/arm-none-eabi/12.2.1/thumb/v7e-m+fp/hard\libc.a(libc_a-strcpy.o)
 .data          0x00000000        0x0 c:/program files (x86)/arm gnu toolchain arm-none-eabi/12.2 mpacbti-rel1/bin/../lib/gcc/arm-none-eabi/12.2.1/thumb/v7e-m+fp/hard\libc.a(libc_a-memcpy.o)
 .bss           0x00000000        0x0 c:/program files (x86)/arm gnu toolchain arm-none-eabi/12.2 mpacbti-rel1/bin/../lib/gcc/arm-none-eabi/12.2.1/thumb/v7e-m+fp/hard\libc.a(libc_a-memcpy.o)
 .ARM.extab     0x00000000        0x0 c:/program files (x86)/arm gnu toolchain arm-none-eabi/12.2 mpacbti-rel1/bin/../lib/gcc/arm-none-eabi/12.2.1/thumb/v7e-m+fp/hard\libc.a(libc_a-memcpy.o)
 .data          0x00000000        0x0 c:/program files (x86)/arm gnu toolchain arm-none-eabi/12.2 mpacbti-rel1/bin/../lib/gcc/arm-none-eabi/12.2.1/thumb/v7e-m+fp/hard\libc.a(libc_a-strlen.o)
 .bss           0x00000000        0x0 c:/program files (x86)/arm gnu toolchain arm-none-eabi/12.2 mpacbti-rel1/bin/../lib/gcc/arm-none-eabi/12.2.1/thumb/v7e-m+fp/hard\libc.a(libc_a-strlen.o)
 .ARM.extab     0x00000000        0x0 c:/program files (x86)/arm gnu toolchain arm-none-eabi/12.2 mpacbti-rel1/bin/../lib/gcc/arm-none-eabi/12.2.1/thumb/v7e-m+fp/hard\libc.a(libc_a-strlen.o)
 .text          0x00000000        0x0 c:/program files (x86)/arm gnu toolchain arm-none-eabi/12.2 mpacbti-rel1/bin/../lib/gcc/arm-none-eabi/12.2.1/thumb/v7e-m+fp/hard\libc.a(libc_a-freer.o)
 .data          0x00000000        0x0 c:/program files (x86)/arm gnu toolchain arm-none-eabi/12.2 mpacbti-rel1/bin/../lib/gcc/arm-none-eabi/12.2.1/thumb/v7e-m+fp/hard\libc.a(libc_a-freer.o)
 .bss           0x00000000        0x0 c:/program files (x86)/arm gnu toolchain arm-none-eabi/12.2 mpacbti-rel1/bin/../lib/gcc/arm-none-eabi/12.2.1/thumb/v7e-m+fp/hard\libc.a(libc_a-freer.o)
 .text          0x00000000        0x0 c:/program files (x86)/arm gnu toolchain arm-none-eabi/12.2 mpacbti-rel1/bin/../lib/gcc/arm-none-eabi/12.2.1/thumb/v7e-m+fp/hard\libc.a(libc_a-ctype_.o)
 .data          0x00000000        0x0 c:/program files (x86)/arm gnu toolchain arm-none-eabi/12.2 mpacbti-rel1/bin/../lib/gcc/arm-none-eabi/12.2.1/thumb/v7e-m+fp/hard\libc.a(libc_a-ctype_.o)
 .bss           0x00000000        0x0 c:/program files (x86)/arm gnu toolchain arm-none-eabi/12.2 mpacbti-rel1/bin/../lib/gcc/arm-none-eabi/12.2.1/thumb/v7e-m+fp/hard\libc.a(libc_a-ctype_.o)
 .text.__set_ctype
                0x00000000        0xc c:/program files (x86)/arm gnu toolchain arm-none-eabi/12.2 mpacbti-rel1/bin/../lib/gcc/arm-none-eabi/12.2.1/thumb/v7e-m+fp/hard\libc.a(libc_a-ctype_.o)
 .text          0x00000000        0x0 c:/program files (x86)/arm gnu toolchain arm-none-eabi/12.2 mpacbti-rel1/bin/../lib/gcc/arm-none-eabi/12.2.1/thumb/v7e-m+fp/hard\libc.a(libc_a-findfp.o)
 .data          0x00000000        0x0 c:/program files (x86)/arm gnu toolchain arm-none-eabi/12.2 mpacbti-rel1/bin/../lib/gcc/arm-none-eabi/12.2.1/thumb/v7e-m+fp/hard\libc.a(libc_a-findfp.o)
 .bss           0x00000000        0x0 c:/program files (x86)/arm gnu toolchain arm-none-eabi/12.2 mpacbti-rel1/bin/../lib/gcc/arm-none-eabi/12.2.1/thumb/v7e-m+fp/hard\libc.a(libc_a-findfp.o)
 .text.stdio_exit_handler
                0x00000000       0x18 c:/program files (x86)/arm gnu toolchain arm-none-eabi/12.2 mpacbti-rel1/bin/../lib/gcc/arm-none-eabi/12.2.1/thumb/v7e-m+fp/hard\libc.a(libc_a-findfp.o)
 .text.cleanup_stdio
                0x00000000       0x40 c:/program files (x86)/arm gnu toolchain arm-none-eabi/12.2 mpacbti-rel1/bin/../lib/gcc/arm-none-eabi/12.2.1/thumb/v7e-m+fp/hard\libc.a(libc_a-findfp.o)
 .text.__fp_lock
                0x00000000       0x1c c:/program files (x86)/arm gnu toolchain arm-none-eabi/12.2 mpacbti-rel1/bin/../lib/gcc/arm-none-eabi/12.2.1/thumb/v7e-m+fp/hard\libc.a(libc_a-findfp.o)
 .text.__fp_unlock
                0x00000000       0x1c c:/program files (x86)/arm gnu toolchain arm-none-eabi/12.2 mpacbti-rel1/bin/../lib/gcc/arm-none-eabi/12.2.1/thumb/v7e-m+fp/hard\libc.a(libc_a-findfp.o)
 .text.global_stdio_init.part.0
                0x00000000       0xf0 c:/program files (x86)/arm gnu toolchain arm-none-eabi/12.2 mpacbti-rel1/bin/../lib/gcc/arm-none-eabi/12.2.1/thumb/v7e-m+fp/hard\libc.a(libc_a-findfp.o)
 .text.__sfp    0x00000000       0xc0 c:/program files (x86)/arm gnu toolchain arm-none-eabi/12.2 mpacbti-rel1/bin/../lib/gcc/arm-none-eabi/12.2.1/thumb/v7e-m+fp/hard\libc.a(libc_a-findfp.o)
 .text.__sinit  0x00000000       0x3c c:/program files (x86)/arm gnu toolchain arm-none-eabi/12.2 mpacbti-rel1/bin/../lib/gcc/arm-none-eabi/12.2.1/thumb/v7e-m+fp/hard\libc.a(libc_a-findfp.o)
 .text.__sfp_lock_acquire
                0x00000000        0xc c:/program files (x86)/arm gnu toolchain arm-none-eabi/12.2 mpacbti-rel1/bin/../lib/gcc/arm-none-eabi/12.2.1/thumb/v7e-m+fp/hard\libc.a(libc_a-findfp.o)
 .text.__sfp_lock_release
                0x00000000        0xc c:/program files (x86)/arm gnu toolchain arm-none-eabi/12.2 mpacbti-rel1/bin/../lib/gcc/arm-none-eabi/12.2.1/thumb/v7e-m+fp/hard\libc.a(libc_a-findfp.o)
 .text.__fp_lock_all
                0x00000000       0x24 c:/program files (x86)/arm gnu toolchain arm-none-eabi/12.2 mpacbti-rel1/bin/../lib/gcc/arm-none-eabi/12.2.1/thumb/v7e-m+fp/hard\libc.a(libc_a-findfp.o)
 .text.__fp_unlock_all
                0x00000000       0x24 c:/program files (x86)/arm gnu toolchain arm-none-eabi/12.2 mpacbti-rel1/bin/../lib/gcc/arm-none-eabi/12.2.1/thumb/v7e-m+fp/hard\libc.a(libc_a-findfp.o)
 .data.__sglue  0x00000000        0xc c:/program files (x86)/arm gnu toolchain arm-none-eabi/12.2 mpacbti-rel1/bin/../lib/gcc/arm-none-eabi/12.2.1/thumb/v7e-m+fp/hard\libc.a(libc_a-findfp.o)
 .bss.__stdio_exit_handler
                0x00000000        0x4 c:/program files (x86)/arm gnu toolchain arm-none-eabi/12.2 mpacbti-rel1/bin/../lib/gcc/arm-none-eabi/12.2.1/thumb/v7e-m+fp/hard\libc.a(libc_a-findfp.o)
 .text          0x00000000        0x0 c:/program files (x86)/arm gnu toolchain arm-none-eabi/12.2 mpacbti-rel1/bin/../lib/gcc/arm-none-eabi/12.2.1/thumb/v7e-m+fp/hard\libc.a(libc_a-fwalk.o)
 .data          0x00000000        0x0 c:/program files (x86)/arm gnu toolchain arm-none-eabi/12.2 mpacbti-rel1/bin/../lib/gcc/arm-none-eabi/12.2.1/thumb/v7e-m+fp/hard\libc.a(libc_a-fwalk.o)
 .bss           0x00000000        0x0 c:/program files (x86)/arm gnu toolchain arm-none-eabi/12.2 mpacbti-rel1/bin/../lib/gcc/arm-none-eabi/12.2.1/thumb/v7e-m+fp/hard\libc.a(libc_a-fwalk.o)
 .text._fwalk_sglue
                0x00000000       0x48 c:/program files (x86)/arm gnu toolchain arm-none-eabi/12.2 mpacbti-rel1/bin/../lib/gcc/arm-none-eabi/12.2.1/thumb/v7e-m+fp/hard\libc.a(libc_a-fwalk.o)
 .debug_frame   0x00000000       0x34 c:/program files (x86)/arm gnu toolchain arm-none-eabi/12.2 mpacbti-rel1/bin/../lib/gcc/arm-none-eabi/12.2.1/thumb/v7e-m+fp/hard\libc.a(libc_a-fwalk.o)
 .text          0x00000000        0x0 c:/program files (x86)/arm gnu toolchain arm-none-eabi/12.2 mpacbti-rel1/bin/../lib/gcc/arm-none-eabi/12.2.1/thumb/v7e-m+fp/hard\libc.a(libc_a-stdio.o)
 .data          0x00000000        0x0 c:/program files (x86)/arm gnu toolchain arm-none-eabi/12.2 mpacbti-rel1/bin/../lib/gcc/arm-none-eabi/12.2.1/thumb/v7e-m+fp/hard\libc.a(libc_a-stdio.o)
 .bss           0x00000000        0x0 c:/program files (x86)/arm gnu toolchain arm-none-eabi/12.2 mpacbti-rel1/bin/../lib/gcc/arm-none-eabi/12.2.1/thumb/v7e-m+fp/hard\libc.a(libc_a-stdio.o)
 .text.__sread  0x00000000       0x24 c:/program files (x86)/arm gnu toolchain arm-none-eabi/12.2 mpacbti-rel1/bin/../lib/gcc/arm-none-eabi/12.2.1/thumb/v7e-m+fp/hard\libc.a(libc_a-stdio.o)
 .text.__seofread
                0x00000000        0x4 c:/program files (x86)/arm gnu toolchain arm-none-eabi/12.2 mpacbti-rel1/bin/../lib/gcc/arm-none-eabi/12.2.1/thumb/v7e-m+fp/hard\libc.a(libc_a-stdio.o)
 .text.__swrite
                0x00000000       0x40 c:/program files (x86)/arm gnu toolchain arm-none-eabi/12.2 mpacbti-rel1/bin/../lib/gcc/arm-none-eabi/12.2.1/thumb/v7e-m+fp/hard\libc.a(libc_a-stdio.o)
 .text.__sseek  0x00000000       0x24 c:/program files (x86)/arm gnu toolchain arm-none-eabi/12.2 mpacbti-rel1/bin/../lib/gcc/arm-none-eabi/12.2.1/thumb/v7e-m+fp/hard\libc.a(libc_a-stdio.o)
 .text.__sclose
                0x00000000        0x8 c:/program files (x86)/arm gnu toolchain arm-none-eabi/12.2 mpacbti-rel1/bin/../lib/gcc/arm-none-eabi/12.2.1/thumb/v7e-m+fp/hard\libc.a(libc_a-stdio.o)
 .debug_frame   0x00000000       0x8c c:/program files (x86)/arm gnu toolchain arm-none-eabi/12.2 mpacbti-rel1/bin/../lib/gcc/arm-none-eabi/12.2.1/thumb/v7e-m+fp/hard\libc.a(libc_a-stdio.o)
 .text          0x00000000        0x0 c:/program files (x86)/arm gnu toolchain arm-none-eabi/12.2 mpacbti-rel1/bin/../lib/gcc/arm-none-eabi/12.2.1/thumb/v7e-m+fp/hard\libc.a(libc_a-closer.o)
 .data          0x00000000        0x0 c:/program files (x86)/arm gnu toolchain arm-none-eabi/12.2 mpacbti-rel1/bin/../lib/gcc/arm-none-eabi/12.2.1/thumb/v7e-m+fp/hard\libc.a(libc_a-closer.o)
 .bss           0x00000000        0x0 c:/program files (x86)/arm gnu toolchain arm-none-eabi/12.2 mpacbti-rel1/bin/../lib/gcc/arm-none-eabi/12.2.1/thumb/v7e-m+fp/hard\libc.a(libc_a-closer.o)
 .text._close_r
                0x00000000       0x24 c:/program files (x86)/arm gnu toolchain arm-none-eabi/12.2 mpacbti-rel1/bin/../lib/gcc/arm-none-eabi/12.2.1/thumb/v7e-m+fp/hard\libc.a(libc_a-closer.o)
 .debug_frame   0x00000000       0x2c c:/program files (x86)/arm gnu toolchain arm-none-eabi/12.2 mpacbti-rel1/bin/../lib/gcc/arm-none-eabi/12.2.1/thumb/v7e-m+fp/hard\libc.a(libc_a-closer.o)
 .text          0x00000000        0x0 c:/program files (x86)/arm gnu toolchain arm-none-eabi/12.2 mpacbti-rel1/bin/../lib/gcc/arm-none-eabi/12.2.1/thumb/v7e-m+fp/hard\libc.a(libc_a-lseekr.o)
 .data          0x00000000        0x0 c:/program files (x86)/arm gnu toolchain arm-none-eabi/12.2 mpacbti-rel1/bin/../lib/gcc/arm-none-eabi/12.2.1/thumb/v7e-m+fp/hard\libc.a(libc_a-lseekr.o)
 .bss           0x00000000        0x0 c:/program files (x86)/arm gnu toolchain arm-none-eabi/12.2 mpacbti-rel1/bin/../lib/gcc/arm-none-eabi/12.2.1/thumb/v7e-m+fp/hard\libc.a(libc_a-lseekr.o)
 .text._lseek_r
                0x00000000       0x2c c:/program files (x86)/arm gnu toolchain arm-none-eabi/12.2 mpacbti-rel1/bin/../lib/gcc/arm-none-eabi/12.2.1/thumb/v7e-m+fp/hard\libc.a(libc_a-lseekr.o)
 .debug_frame   0x00000000       0x2c c:/program files (x86)/arm gnu toolchain arm-none-eabi/12.2 mpacbti-rel1/bin/../lib/gcc/arm-none-eabi/12.2.1/thumb/v7e-m+fp/hard\libc.a(libc_a-lseekr.o)
 .text          0x00000000        0x0 c:/program files (x86)/arm gnu toolchain arm-none-eabi/12.2 mpacbti-rel1/bin/../lib/gcc/arm-none-eabi/12.2.1/thumb/v7e-m+fp/hard\libc.a(libc_a-readr.o)
 .data          0x00000000        0x0 c:/program files (x86)/arm gnu toolchain arm-none-eabi/12.2 mpacbti-rel1/bin/../lib/gcc/arm-none-eabi/12.2.1/thumb/v7e-m+fp/hard\libc.a(libc_a-readr.o)
 .bss           0x00000000        0x0 c:/program files (x86)/arm gnu toolchain arm-none-eabi/12.2 mpacbti-rel1/bin/../lib/gcc/arm-none-eabi/12.2.1/thumb/v7e-m+fp/hard\libc.a(libc_a-readr.o)
 .text._read_r  0x00000000       0x2c c:/program files (x86)/arm gnu toolchain arm-none-eabi/12.2 mpacbti-rel1/bin/../lib/gcc/arm-none-eabi/12.2.1/thumb/v7e-m+fp/hard\libc.a(libc_a-readr.o)
 .debug_frame   0x00000000       0x2c c:/program files (x86)/arm gnu toolchain arm-none-eabi/12.2 mpacbti-rel1/bin/../lib/gcc/arm-none-eabi/12.2.1/thumb/v7e-m+fp/hard\libc.a(libc_a-readr.o)
 .text          0x00000000        0x0 c:/program files (x86)/arm gnu toolchain arm-none-eabi/12.2 mpacbti-rel1/bin/../lib/gcc/arm-none-eabi/12.2.1/thumb/v7e-m+fp/hard\libc.a(libc_a-writer.o)
 .data          0x00000000        0x0 c:/program files (x86)/arm gnu toolchain arm-none-eabi/12.2 mpacbti-rel1/bin/../lib/gcc/arm-none-eabi/12.2.1/thumb/v7e-m+fp/hard\libc.a(libc_a-writer.o)
 .bss           0x00000000        0x0 c:/program files (x86)/arm gnu toolchain arm-none-eabi/12.2 mpacbti-rel1/bin/../lib/gcc/arm-none-eabi/12.2.1/thumb/v7e-m+fp/hard\libc.a(libc_a-writer.o)
 .text._write_r
                0x00000000       0x2c c:/program files (x86)/arm gnu toolchain arm-none-eabi/12.2 mpacbti-rel1/bin/../lib/gcc/arm-none-eabi/12.2.1/thumb/v7e-m+fp/hard\libc.a(libc_a-writer.o)
 .debug_frame   0x00000000       0x2c c:/program files (x86)/arm gnu toolchain arm-none-eabi/12.2 mpacbti-rel1/bin/../lib/gcc/arm-none-eabi/12.2.1/thumb/v7e-m+fp/hard\libc.a(libc_a-writer.o)
 .text          0x00000000        0x0 c:/program files (x86)/arm gnu toolchain arm-none-eabi/12.2 mpacbti-rel1/bin/../lib/gcc/arm-none-eabi/12.2.1/thumb/v7e-m+fp/hard\libc.a(libc_a-fclose.o)
 .data          0x00000000        0x0 c:/program files (x86)/arm gnu toolchain arm-none-eabi/12.2 mpacbti-rel1/bin/../lib/gcc/arm-none-eabi/12.2.1/thumb/v7e-m+fp/hard\libc.a(libc_a-fclose.o)
 .bss           0x00000000        0x0 c:/program files (x86)/arm gnu toolchain arm-none-eabi/12.2 mpacbti-rel1/bin/../lib/gcc/arm-none-eabi/12.2.1/thumb/v7e-m+fp/hard\libc.a(libc_a-fclose.o)
 .text._fclose_r
                0x00000000       0xc0 c:/program files (x86)/arm gnu toolchain arm-none-eabi/12.2 mpacbti-rel1/bin/../lib/gcc/arm-none-eabi/12.2.1/thumb/v7e-m+fp/hard\libc.a(libc_a-fclose.o)
 .text.fclose   0x00000000       0x10 c:/program files (x86)/arm gnu toolchain arm-none-eabi/12.2 mpacbti-rel1/bin/../lib/gcc/arm-none-eabi/12.2.1/thumb/v7e-m+fp/hard\libc.a(libc_a-fclose.o)
 .debug_frame   0x00000000       0x3c c:/program files (x86)/arm gnu toolchain arm-none-eabi/12.2 mpacbti-rel1/bin/../lib/gcc/arm-none-eabi/12.2.1/thumb/v7e-m+fp/hard\libc.a(libc_a-fclose.o)
 .text          0x00000000        0x0 c:/program files (x86)/arm gnu toolchain arm-none-eabi/12.2 mpacbti-rel1/bin/../lib/gcc/arm-none-eabi/12.2.1/thumb/v7e-m+fp/hard\libc.a(libc_a-fflush.o)
 .data          0x00000000        0x0 c:/program files (x86)/arm gnu toolchain arm-none-eabi/12.2 mpacbti-rel1/bin/../lib/gcc/arm-none-eabi/12.2.1/thumb/v7e-m+fp/hard\libc.a(libc_a-fflush.o)
 .bss           0x00000000        0x0 c:/program files (x86)/arm gnu toolchain arm-none-eabi/12.2 mpacbti-rel1/bin/../lib/gcc/arm-none-eabi/12.2.1/thumb/v7e-m+fp/hard\libc.a(libc_a-fflush.o)
 .text.__sflush_r
                0x00000000      0x138 c:/program files (x86)/arm gnu toolchain arm-none-eabi/12.2 mpacbti-rel1/bin/../lib/gcc/arm-none-eabi/12.2.1/thumb/v7e-m+fp/hard\libc.a(libc_a-fflush.o)
 .text._fflush_r
                0x00000000       0x54 c:/program files (x86)/arm gnu toolchain arm-none-eabi/12.2 mpacbti-rel1/bin/../lib/gcc/arm-none-eabi/12.2.1/thumb/v7e-m+fp/hard\libc.a(libc_a-fflush.o)
 .text.fflush   0x00000000       0x74 c:/program files (x86)/arm gnu toolchain arm-none-eabi/12.2 mpacbti-rel1/bin/../lib/gcc/arm-none-eabi/12.2.1/thumb/v7e-m+fp/hard\libc.a(libc_a-fflush.o)
 .debug_frame   0x00000000       0x70 c:/program files (x86)/arm gnu toolchain arm-none-eabi/12.2 mpacbti-rel1/bin/../lib/gcc/arm-none-eabi/12.2.1/thumb/v7e-m+fp/hard\libc.a(libc_a-fflush.o)
 .text          0x00000000        0x0 c:/program files (x86)/arm gnu toolchain arm-none-eabi/12.2 mpacbti-rel1/bin/../lib/gcc/arm-none-eabi/12.2.1/thumb/v7e-m+fp/hard\libm.a(libm_a-w_sqrt.o)
 .data          0x00000000        0x0 c:/program files (x86)/arm gnu toolchain arm-none-eabi/12.2 mpacbti-rel1/bin/../lib/gcc/arm-none-eabi/12.2.1/thumb/v7e-m+fp/hard\libm.a(libm_a-w_sqrt.o)
 .bss           0x00000000        0x0 c:/program files (x86)/arm gnu toolchain arm-none-eabi/12.2 mpacbti-rel1/bin/../lib/gcc/arm-none-eabi/12.2.1/thumb/v7e-m+fp/hard\libm.a(libm_a-w_sqrt.o)
 .text          0x00000000        0x0 c:/program files (x86)/arm gnu toolchain arm-none-eabi/12.2 mpacbti-rel1/bin/../lib/gcc/arm-none-eabi/12.2.1/thumb/v7e-m+fp/hard\libm.a(libm_a-e_sqrt.o)
 .data          0x00000000        0x0 c:/program files (x86)/arm gnu toolchain arm-none-eabi/12.2 mpacbti-rel1/bin/../lib/gcc/arm-none-eabi/12.2.1/thumb/v7e-m+fp/hard\libm.a(libm_a-e_sqrt.o)
 .bss           0x00000000        0x0 c:/program files (x86)/arm gnu toolchain arm-none-eabi/12.2 mpacbti-rel1/bin/../lib/gcc/arm-none-eabi/12.2.1/thumb/v7e-m+fp/hard\libm.a(libm_a-e_sqrt.o)
 .text          0x00000000      0x254 c:/program files (x86)/arm gnu toolchain arm-none-eabi/12.2 mpacbti-rel1/bin/../lib/gcc/arm-none-eabi/12.2.1/thumb/v7e-m+fp/hard\libgcc.a(_arm_muldf3.o)
 .data          0x00000000        0x0 c:/program files (x86)/arm gnu toolchain arm-none-eabi/12.2 mpacbti-rel1/bin/../lib/gcc/arm-none-eabi/12.2.1/thumb/v7e-m+fp/hard\libgcc.a(_arm_muldf3.o)
 .bss           0x00000000        0x0 c:/program files (x86)/arm gnu toolchain arm-none-eabi/12.2 mpacbti-rel1/bin/../lib/gcc/arm-none-eabi/12.2.1/thumb/v7e-m+fp/hard\libgcc.a(_arm_muldf3.o)
 .debug_line_str
                0x00000000       0xde c:/program files (x86)/arm gnu toolchain arm-none-eabi/12.2 mpacbti-rel1/bin/../lib/gcc/arm-none-eabi/12.2.1/thumb/v7e-m+fp/hard\libgcc.a(_arm_muldf3.o)
 .debug_frame   0x00000000       0x30 c:/program files (x86)/arm gnu toolchain arm-none-eabi/12.2 mpacbti-rel1/bin/../lib/gcc/arm-none-eabi/12.2.1/thumb/v7e-m+fp/hard\libgcc.a(_arm_muldf3.o)
 .data          0x00000000        0x0 c:/program files (x86)/arm gnu toolchain arm-none-eabi/12.2 mpacbti-rel1/bin/../lib/gcc/arm-none-eabi/12.2.1/thumb/v7e-m+fp/hard\libgcc.a(_arm_addsubdf3.o)
 .bss           0x00000000        0x0 c:/program files (x86)/arm gnu toolchain arm-none-eabi/12.2 mpacbti-rel1/bin/../lib/gcc/arm-none-eabi/12.2.1/thumb/v7e-m+fp/hard\libgcc.a(_arm_addsubdf3.o)
 .data          0x00000000        0x0 c:/program files (x86)/arm gnu toolchain arm-none-eabi/12.2 mpacbti-rel1/bin/../lib/gcc/arm-none-eabi/12.2.1/thumb/v7e-m+fp/hard\libgcc.a(_arm_muldivdf3.o)
 .bss           0x00000000        0x0 c:/program files (x86)/arm gnu toolchain arm-none-eabi/12.2 mpacbti-rel1/bin/../lib/gcc/arm-none-eabi/12.2.1/thumb/v7e-m+fp/hard\libgcc.a(_arm_muldivdf3.o)
 .data          0x00000000        0x0 c:/program files (x86)/arm gnu toolchain arm-none-eabi/12.2 mpacbti-rel1/bin/../lib/gcc/arm-none-eabi/12.2.1/thumb/v7e-m+fp/hard\libgcc.a(_arm_cmpdf2.o)
 .bss           0x00000000        0x0 c:/program files (x86)/arm gnu toolchain arm-none-eabi/12.2 mpacbti-rel1/bin/../lib/gcc/arm-none-eabi/12.2.1/thumb/v7e-m+fp/hard\libgcc.a(_arm_cmpdf2.o)
 .data          0x00000000        0x0 c:/program files (x86)/arm gnu toolchain arm-none-eabi/12.2 mpacbti-rel1/bin/../lib/gcc/arm-none-eabi/12.2.1/thumb/v7e-m+fp/hard\libgcc.a(_arm_unorddf2.o)
 .bss           0x00000000        0x0 c:/program files (x86)/arm gnu toolchain arm-none-eabi/12.2 mpacbti-rel1/bin/../lib/gcc/arm-none-eabi/12.2.1/thumb/v7e-m+fp/hard\libgcc.a(_arm_unorddf2.o)
 .data          0x00000000        0x0 c:/program files (x86)/arm gnu toolchain arm-none-eabi/12.2 mpacbti-rel1/bin/../lib/gcc/arm-none-eabi/12.2.1/thumb/v7e-m+fp/hard\libgcc.a(_arm_fixdfsi.o)
 .bss           0x00000000        0x0 c:/program files (x86)/arm gnu toolchain arm-none-eabi/12.2 mpacbti-rel1/bin/../lib/gcc/arm-none-eabi/12.2.1/thumb/v7e-m+fp/hard\libgcc.a(_arm_fixdfsi.o)
 .data          0x00000000        0x0 c:/program files (x86)/arm gnu toolchain arm-none-eabi/12.2 mpacbti-rel1/bin/../lib/gcc/arm-none-eabi/12.2.1/thumb/v7e-m+fp/hard\libgcc.a(_arm_fixunsdfsi.o)
 .bss           0x00000000        0x0 c:/program files (x86)/arm gnu toolchain arm-none-eabi/12.2 mpacbti-rel1/bin/../lib/gcc/arm-none-eabi/12.2.1/thumb/v7e-m+fp/hard\libgcc.a(_arm_fixunsdfsi.o)
 .data          0x00000000        0x0 c:/program files (x86)/arm gnu toolchain arm-none-eabi/12.2 mpacbti-rel1/bin/../lib/gcc/arm-none-eabi/12.2.1/thumb/v7e-m+fp/hard\libgcc.a(_aeabi_ldivmod.o)
 .bss           0x00000000        0x0 c:/program files (x86)/arm gnu toolchain arm-none-eabi/12.2 mpacbti-rel1/bin/../lib/gcc/arm-none-eabi/12.2.1/thumb/v7e-m+fp/hard\libgcc.a(_aeabi_ldivmod.o)
 .data          0x00000000        0x0 c:/program files (x86)/arm gnu toolchain arm-none-eabi/12.2 mpacbti-rel1/bin/../lib/gcc/arm-none-eabi/12.2.1/thumb/v7e-m+fp/hard\libgcc.a(_aeabi_uldivmod.o)
 .bss           0x00000000        0x0 c:/program files (x86)/arm gnu toolchain arm-none-eabi/12.2 mpacbti-rel1/bin/../lib/gcc/arm-none-eabi/12.2.1/thumb/v7e-m+fp/hard\libgcc.a(_aeabi_uldivmod.o)
 .text          0x00000000        0x0 c:/program files (x86)/arm gnu toolchain arm-none-eabi/12.2 mpacbti-rel1/bin/../lib/gcc/arm-none-eabi/12.2.1/thumb/v7e-m+fp/hard\libgcc.a(_udivmoddi4.o)
 .data          0x00000000        0x0 c:/program files (x86)/arm gnu toolchain arm-none-eabi/12.2 mpacbti-rel1/bin/../lib/gcc/arm-none-eabi/12.2.1/thumb/v7e-m+fp/hard\libgcc.a(_udivmoddi4.o)
 .bss           0x00000000        0x0 c:/program files (x86)/arm gnu toolchain arm-none-eabi/12.2 mpacbti-rel1/bin/../lib/gcc/arm-none-eabi/12.2.1/thumb/v7e-m+fp/hard\libgcc.a(_udivmoddi4.o)
 .ARM.extab.text.__udivmoddi4
                0x00000000        0x0 c:/program files (x86)/arm gnu toolchain arm-none-eabi/12.2 mpacbti-rel1/bin/../lib/gcc/arm-none-eabi/12.2.1/thumb/v7e-m+fp/hard\libgcc.a(_udivmoddi4.o)
 .data          0x00000000        0x0 c:/program files (x86)/arm gnu toolchain arm-none-eabi/12.2 mpacbti-rel1/bin/../lib/gcc/arm-none-eabi/12.2.1/thumb/v7e-m+fp/hard\libgcc.a(_dvmd_tls.o)
 .bss           0x00000000        0x0 c:/program files (x86)/arm gnu toolchain arm-none-eabi/12.2 mpacbti-rel1/bin/../lib/gcc/arm-none-eabi/12.2.1/thumb/v7e-m+fp/hard\libgcc.a(_dvmd_tls.o)

Memory Configuration

Name             Origin             Length             Attributes
RAM              0x20000000         0x00020000         xrw
EXTSRAM          0x10000000         0x00010000         xrw
FLASH            0x08008000         0x000f8000         xr
FLASHB1          0x00000000         0x00000000         xr
EXTMEMB0         0x00000000         0x00000000         xr
EXTMEMB1         0x00000000         0x00000000         xr
EXTMEMB2         0x00000000         0x00000000         xr
EXTMEMB3         0x00000000         0x00000000         xr
*default*        0x00000000         0xffffffff

Linker script and memory map

LOAD FLASH_RUN/main.o
LOAD FLASH_RUN/serial.o
LOAD FLASH_RUN/i2c_app.o
LOAD FLASH_RUN/key.o
LOAD FLASH_RUN/lcd.o
LOAD FLASH_RUN/print.o
LOAD FLASH_RUN/random_disp.o
LOAD FLASH_RUN/touch_panel.o
LOAD FLASH_RUN/touch_pad.o
LOAD FLASH_RUN/ir_remocon.o
LOAD FLASH_RUN/adc.o
LOAD FLASH_RUN/dac1.o
LOAD FLASH_RUN/wm8978.o
LOAD FLASH_RUN/sdio_sdcard.o
LOAD FLASH_RUN/i2s.o
LOAD FLASH_RUN/ext_sram.o
LOAD FLASH_RUN/rtc.o
LOAD FLASH_RUN/ff.o
LOAD FLASH_RUN/diskio.o
LOAD FLASH_RUN/cc949.o
LOAD FLASH_RUN/audio.o
LOAD FLASH_RUN/mp3play.o
LOAD FLASH_RUN/wavplay.o
LOAD FLASH_RUN/flacplay.o
LOAD FLASH_RUN/apeplay.o
LOAD c:/project/stm32fx_iolib/stm32f4x_iolib/stm32f4x_iolib_168MHz_8MHz.a
LOAD source/audio_codec/mp3/mp3.a
LOAD source/audio_codec/flac/flac.a
LOAD source/audio_codec/ape/ape.a
LOAD c:/program files (x86)/arm gnu toolchain arm-none-eabi/12.2 mpacbti-rel1/bin/../lib/gcc/arm-none-eabi/12.2.1/thumb/v7e-m+fp/hard\libc.a
LOAD c:/program files (x86)/arm gnu toolchain arm-none-eabi/12.2 mpacbti-rel1/bin/../lib/gcc/arm-none-eabi/12.2.1/thumb/v7e-m+fp/hard\libm.a
LOAD c:/program files (x86)/arm gnu toolchain arm-none-eabi/12.2 mpacbti-rel1/bin/../lib/gcc/arm-none-eabi/12.2.1/thumb/v7e-m+fp/hard\libc.a
LOAD c:/program files (x86)/arm gnu toolchain arm-none-eabi/12.2 mpacbti-rel1/bin/../lib/gcc/arm-none-eabi/12.2.1/thumb/v7e-m+fp/hard\libgcc.a
LOAD c:/program files (x86)/arm gnu toolchain arm-none-eabi/12.2 mpacbti-rel1/bin/../lib/gcc/arm-none-eabi/12.2.1/thumb/v7e-m+fp/hard\libstdc++.a
START GROUP
LOAD c:/program files (x86)/arm gnu toolchain arm-none-eabi/12.2 mpacbti-rel1/bin/../lib/gcc/arm-none-eabi/12.2.1/thumb/v7e-m+fp/hard\libgcc.a
LOAD c:/program files (x86)/arm gnu toolchain arm-none-eabi/12.2 mpacbti-rel1/bin/../lib/gcc/arm-none-eabi/12.2.1/thumb/v7e-m+fp/hard\libg.a
LOAD c:/program files (x86)/arm gnu toolchain arm-none-eabi/12.2 mpacbti-rel1/bin/../lib/gcc/arm-none-eabi/12.2.1/thumb/v7e-m+fp/hard\libc.a
END GROUP
                0x20020000                        _estack = (ORIGIN (RAM) + LENGTH (RAM))
                0x00001000                        _Minimum_Stack_Size = 0x1000
                0x00000001                        ASSERT ((ORIGIN (FLASH) == ALIGN (ORIGIN (FLASH), 0x80)), Start of memory region flash not aligned for startup vector table)

.text           0x08008000    0x14f60
                0x08008000                        . = ALIGN (0x80)
                0x00008000                        _isr_vectorsflash_offs = (. - 0x8000000)
 *(.isr_vectorsflash)
 .isr_vectorsflash
                0x08008000      0x1d8 c:/project/stm32fx_iolib/stm32f4x_iolib/stm32f4x_iolib_168MHz_8MHz.a(startup_stm32f4xx.o)
                0x08008000                g_pfnVectors
                0x080081d8                        . = ALIGN (0x4)
 CREATE_OBJECT_SYMBOLS
 *(.text .text.* .gnu.linkonce.t.*)
 .text.wait_ms  0x080081d8       0x2c FLASH_RUN/main.o
                0x080081d8                wait_ms
 .text.Periph_Configuration
                0x08008204       0x38 FLASH_RUN/main.o
                0x08008204                Periph_Configuration
 .text.GPIO_Configuration
                0x0800823c       0xe8 FLASH_RUN/main.o
                0x0800823c                GPIO_Configuration
 .text.NVIC_Configuration
                0x08008324       0x10 FLASH_RUN/main.o
                0x08008324                NVIC_Configuration
 .text.watch_dog_init
                0x08008334       0x24 FLASH_RUN/main.o
                0x08008334                watch_dog_init
 .text.tick_process
                0x08008358      0x1ac FLASH_RUN/main.o
                0x08008358                tick_process
 .text.memo_process
                0x08008504       0x70 FLASH_RUN/main.o
                0x08008504                memo_process
 .text.startup.main
                0x08008574      0x4e4 FLASH_RUN/main.o
                0x08008574                main
 .text.NVIC_SystemReset
                0x08008a58       0x24 FLASH_RUN/serial.o
 .text.USART1_IRQHandler
                0x08008a7c       0xec FLASH_RUN/serial.o
                0x08008a7c                USART1_IRQHandler
 .text.USART2_IRQHandler
                0x08008b68       0xf8 FLASH_RUN/serial.o
                0x08008b68                USART2_IRQHandler
 .text.USART3_IRQHandler
                0x08008c60       0xec FLASH_RUN/serial.o
                0x08008c60                USART3_IRQHandler
 .text.receive_check1
                0x08008d4c       0x7c FLASH_RUN/serial.o
                0x08008d4c                receive_check1
 .text.receive_check2
                0x08008dc8       0x7c FLASH_RUN/serial.o
                0x08008dc8                receive_check2
 .text.receive_check3
                0x08008e44       0x7c FLASH_RUN/serial.o
                0x08008e44                receive_check3
 .text.serial_check
                0x08008ec0       0x68 FLASH_RUN/serial.o
                0x08008ec0                serial_check
 .text.serial_init
                0x08008f28      0x27c FLASH_RUN/serial.o
                0x08008f28                serial_init
 .text.I2C_LowLevel_Init
                0x080091a4      0x114 FLASH_RUN/i2c_app.o
                0x080091a4                I2C_LowLevel_Init
 .text.init_i2c_24xx
                0x080092b8       0x30 FLASH_RUN/i2c_app.o
                0x080092b8                init_i2c_24xx
 .text.i2c_write
                0x080092e8      0x130 FLASH_RUN/i2c_app.o
                0x080092e8                i2c_write
 .text.u8_write
                0x08009418       0x40 FLASH_RUN/i2c_app.o
                0x08009418                u8_write
 .text.eeprom_write
                0x08009458        0xa FLASH_RUN/i2c_app.o
                0x08009458                eeprom_write
 *fill*         0x08009462        0x2 
 .text.i2c_read
                0x08009464      0x1c4 FLASH_RUN/i2c_app.o
                0x08009464                i2c_read
 .text.u8_read  0x08009628       0x30 FLASH_RUN/i2c_app.o
                0x08009628                u8_read
 .text.eeprom_read
                0x08009658        0x8 FLASH_RUN/i2c_app.o
                0x08009658                eeprom_read
 .text.beep_control
                0x08009660       0x2c FLASH_RUN/key.o
                0x08009660                beep_control
 .text.beep_check
                0x0800968c       0x48 FLASH_RUN/key.o
                0x0800968c                beep_check
 .text.key_read
                0x080096d4      0x104 FLASH_RUN/key.o
                0x080096d4                key_read
 .text.key_init
                0x080097d8       0x80 FLASH_RUN/key.o
                0x080097d8                key_init
 .text.delay_us
                0x08009858       0x3c FLASH_RUN/lcd.o
                0x08009858                delay_us
 .text.LCD_WR_REG
                0x08009894       0x22 FLASH_RUN/lcd.o
                0x08009894                LCD_WR_REG
 .text.LCD_WR_DATA
                0x080098b6       0x22 FLASH_RUN/lcd.o
                0x080098b6                LCD_WR_DATA
 .text.LCD_RD_DATA
                0x080098d8       0x1a FLASH_RUN/lcd.o
                0x080098d8                LCD_RD_DATA
 .text.LCD_ReadReg
                0x080098f2       0x14 FLASH_RUN/lcd.o
                0x080098f2                LCD_ReadReg
 *fill*         0x08009906        0x2 
 .text.LCD_WriteRAM_Prepare
                0x08009908       0x14 FLASH_RUN/lcd.o
                0x08009908                LCD_WriteRAM_Prepare
 .text.LCD_SetCursor
                0x0800991c       0x34 FLASH_RUN/lcd.o
                0x0800991c                LCD_SetCursor
 .text.LCD_Scan_Dir
                0x08009950       0xdc FLASH_RUN/lcd.o
                0x08009950                LCD_Scan_Dir
 .text.LCD_DrawPoint
                0x08009a2c       0x34 FLASH_RUN/lcd.o
                0x08009a2c                LCD_DrawPoint
 .text.LCD_Fast_DrawPoint
                0x08009a60       0x58 FLASH_RUN/lcd.o
                0x08009a60                LCD_Fast_DrawPoint
 .text.LCD_Display_Dir
                0x08009ab8       0x80 FLASH_RUN/lcd.o
                0x08009ab8                LCD_Display_Dir
 .text.LCD_Clear
                0x08009b38       0x30 FLASH_RUN/lcd.o
                0x08009b38                LCD_Clear
 .text.LCD_Fill
                0x08009b68       0x40 FLASH_RUN/lcd.o
                0x08009b68                LCD_Fill
 .text.LCD_DrawLine
                0x08009ba8       0x94 FLASH_RUN/lcd.o
                0x08009ba8                LCD_DrawLine
 .text.LCD_Draw_Circle
                0x08009c3c       0xc2 FLASH_RUN/lcd.o
                0x08009c3c                LCD_Draw_Circle
 *fill*         0x08009cfe        0x2 
 .text.set_color
                0x08009d00        0xc FLASH_RUN/lcd.o
                0x08009d00                set_color
 .text.set_background_color
                0x08009d0c        0xc FLASH_RUN/lcd.o
                0x08009d0c                set_background_color
 .text.set_pixel
                0x08009d18       0x14 FLASH_RUN/lcd.o
                0x08009d18                set_pixel
 .text.out_lcd  0x08009d2c       0x4c FLASH_RUN/lcd.o
                0x08009d2c                out_lcd
 .text.uni_to_kssm
                0x08009d78       0x62 FLASH_RUN/lcd.o
                0x08009d78                uni_to_kssm
 *fill*         0x08009dda        0x2 
 .text.ks5601_to_kssm
                0x08009ddc       0x3c FLASH_RUN/lcd.o
                0x08009ddc                ks5601_to_kssm
 .text.put_eng  0x08009e18       0xf8 FLASH_RUN/lcd.o
                0x08009e18                put_eng
 .text.put_han  0x08009f10      0x2c8 FLASH_RUN/lcd.o
                0x08009f10                put_han
 .text.lput_char
                0x0800a1d8       0x38 FLASH_RUN/lcd.o
                0x0800a1d8                lput_char
 .text.lcd_printf
                0x0800a210       0x3c FLASH_RUN/lcd.o
                0x0800a210                lcd_printf
 .text.LCD_Init
                0x0800a24c     0x12b8 FLASH_RUN/lcd.o
                0x0800a24c                LCD_Init
 .text._sputc   0x0800b504        0xc FLASH_RUN/print.o
                0x0800b504                _sputc
 .text._serror  0x0800b510        0x4 FLASH_RUN/print.o
                0x0800b510                _serror
 .text.__vfprintf
                0x0800b514      0x754 FLASH_RUN/print.o
                0x0800b514                __vfprintf
 .text.vsprintf
                0x0800bc68       0x2c FLASH_RUN/print.o
                0x0800bc68                vsprintf
 .text.random_display
                0x0800bc94       0xbc FLASH_RUN/random_disp.o
                0x0800bc94                random_display
 .text.TP_Adj_Info_Show
                0x0800bd50       0x9c FLASH_RUN/touch_panel.o
                0x0800bd50                TP_Adj_Info_Show
 .text.TP_Save_Adjdata
                0x0800bdec       0xc8 FLASH_RUN/touch_panel.o
                0x0800bdec                TP_Save_Adjdata
 .text.TP_Get_Adjdata
                0x0800beb4       0xf4 FLASH_RUN/touch_panel.o
                0x0800beb4                TP_Get_Adjdata
 .text.TP_Write_Byte
                0x0800bfa8       0x48 FLASH_RUN/touch_panel.o
                0x0800bfa8                TP_Write_Byte
 .text.TP_Read_AD
                0x0800bff0       0x80 FLASH_RUN/touch_panel.o
                0x0800bff0                TP_Read_AD
 .text.TP_Read_XOY
                0x0800c070       0x62 FLASH_RUN/touch_panel.o
                0x0800c070                TP_Read_XOY
 *fill*         0x0800c0d2        0x2 
 .text.TP_Read_XY
                0x0800c0d4       0x28 FLASH_RUN/touch_panel.o
                0x0800c0d4                TP_Read_XY
 .text.TP_Read_XY2
                0x0800c0fc       0x76 FLASH_RUN/touch_panel.o
                0x0800c0fc                TP_Read_XY2
 *fill*         0x0800c172        0x2 
 .text.TP_Scan  0x0800c174       0xcc FLASH_RUN/touch_panel.o
                0x0800c174                TP_Scan
 .text.TP_Drow_Touch_Point
                0x0800c240       0x70 FLASH_RUN/touch_panel.o
                0x0800c240                TP_Drow_Touch_Point
 .text.TP_Drow_Touch_Point2
                0x0800c2b0       0x86 FLASH_RUN/touch_panel.o
                0x0800c2b0                TP_Drow_Touch_Point2
 *fill*         0x0800c336        0x2 
 .text.TP_Adjust
                0x0800c338      0x59c FLASH_RUN/touch_panel.o
                0x0800c338                TP_Adjust
 .text.TP_Init  0x0800c8d4       0xa4 FLASH_RUN/touch_panel.o
                0x0800c8d4                TP_Init
 .text.ir_remocon_init
                0x0800c978       0xb0 FLASH_RUN/ir_remocon.o
                0x0800c978                ir_remocon_init
 .text.TIM1_UP_TIM10_IRQHandler
                0x0800ca28       0x50 FLASH_RUN/ir_remocon.o
                0x0800ca28                TIM1_UP_TIM10_IRQHandler
 .text.TIM1_CC_IRQHandler
                0x0800ca78       0xd8 FLASH_RUN/ir_remocon.o
                0x0800ca78                TIM1_CC_IRQHandler
 .text.remocon_scan
                0x0800cb50       0x54 FLASH_RUN/ir_remocon.o
                0x0800cb50                remocon_scan
 .text.ir_process
                0x0800cba4      0x1f4 FLASH_RUN/ir_remocon.o
                0x0800cba4                ir_process
 .text.cal_temperature
                0x0800cd98       0x68 FLASH_RUN/adc.o
                0x0800cd98                cal_temperature
 .text.ADC_Config
                0x0800ce00       0xcc FLASH_RUN/adc.o
                0x0800ce00                ADC_Config
 .text.adc_process
                0x0800cecc       0xc8 FLASH_RUN/adc.o
                0x0800cecc                adc_process
 *fill*         0x0800cf94        0x4 
 .text.Dac1_Set_Voltage
                0x0800cf98       0x68 FLASH_RUN/dac1.o
                0x0800cf98                Dac1_Set_Voltage
 .text.Dac1_Init
                0x0800d000       0x4c FLASH_RUN/dac1.o
                0x0800d000                Dac1_Init
 .text.wm8978_read_para
                0x0800d04c       0x76 FLASH_RUN/wm8978.o
                0x0800d04c                wm8978_read_para
 .text.wm8978_save_para
                0x0800d0c2       0x78 FLASH_RUN/wm8978.o
                0x0800d0c2                wm8978_save_para
 *fill*         0x0800d13a        0x2 
 .text.WM8978_Write_Reg
                0x0800d13c       0x40 FLASH_RUN/wm8978.o
                0x0800d13c                WM8978_Write_Reg
 .text.WM8978_LINEIN_Gain
                0x0800d17c       0x3c FLASH_RUN/wm8978.o
                0x0800d17c                WM8978_LINEIN_Gain
 .text.WM8978_AUX_Gain
                0x0800d1b8       0x38 FLASH_RUN/wm8978.o
                0x0800d1b8                WM8978_AUX_Gain
 .text.WM8978_ADDA_Cfg
                0x0800d1f0       0x3c FLASH_RUN/wm8978.o
                0x0800d1f0                WM8978_ADDA_Cfg
 .text.WM8978_Input_Cfg
                0x0800d22c       0x5c FLASH_RUN/wm8978.o
                0x0800d22c                WM8978_Input_Cfg
 .text.WM8978_Output_Cfg
                0x0800d288       0x22 FLASH_RUN/wm8978.o
                0x0800d288                WM8978_Output_Cfg
 .text.WM8978_I2S_Cfg
                0x0800d2aa       0x14 FLASH_RUN/wm8978.o
                0x0800d2aa                WM8978_I2S_Cfg
 .text.WM8978_HPvol_Set
                0x0800d2be       0x28 FLASH_RUN/wm8978.o
                0x0800d2be                WM8978_HPvol_Set
 .text.WM8978_SPKvol_Set
                0x0800d2e6       0x20 FLASH_RUN/wm8978.o
                0x0800d2e6                WM8978_SPKvol_Set
 .text.WM8978_3D_Set
                0x0800d306        0xa FLASH_RUN/wm8978.o
                0x0800d306                WM8978_3D_Set
 .text.WM8978_EQ1_Set
                0x0800d310       0x28 FLASH_RUN/wm8978.o
                0x0800d310                WM8978_EQ1_Set
 .text.WM8978_EQ2_Set
                0x0800d338       0x1a FLASH_RUN/wm8978.o
                0x0800d338                WM8978_EQ2_Set
 .text.WM8978_EQ3_Set
                0x0800d352       0x1a FLASH_RUN/wm8978.o
                0x0800d352                WM8978_EQ3_Set
 .text.WM8978_EQ4_Set
                0x0800d36c       0x1a FLASH_RUN/wm8978.o
                0x0800d36c                WM8978_EQ4_Set
 .text.WM8978_EQ5_Set
                0x0800d386       0x1a FLASH_RUN/wm8978.o
                0x0800d386                WM8978_EQ5_Set
 .text.WM8978_Init
                0x0800d3a0       0xf0 FLASH_RUN/wm8978.o
                0x0800d3a0                WM8978_Init
 .text.CmdError
                0x0800d490       0x28 FLASH_RUN/sdio_sdcard.o
                0x0800d490                CmdError
 .text.CmdResp1Error
                0x0800d4b8       0x50 FLASH_RUN/sdio_sdcard.o
                0x0800d4b8                CmdResp1Error
 .text.CmdResp2Error
                0x0800d508       0x4c FLASH_RUN/sdio_sdcard.o
                0x0800d508                CmdResp2Error
 .text.CmdResp3Error
                0x0800d554       0x30 FLASH_RUN/sdio_sdcard.o
                0x0800d554                CmdResp3Error
 .text.CmdResp6Error
                0x0800d584       0x74 FLASH_RUN/sdio_sdcard.o
                0x0800d584                CmdResp6Error
 .text.CmdResp7Error
                0x0800d5f8       0x3c FLASH_RUN/sdio_sdcard.o
                0x0800d5f8                CmdResp7Error
 .text.convert_from_bytes_to_power_of_two
                0x0800d634       0x14 FLASH_RUN/sdio_sdcard.o
                0x0800d634                convert_from_bytes_to_power_of_two
 .text.FindSCR  0x0800d648      0x144 FLASH_RUN/sdio_sdcard.o
                0x0800d648                FindSCR
 .text.IsCardProgramming
                0x0800d78c       0x90 FLASH_RUN/sdio_sdcard.o
                0x0800d78c                IsCardProgramming
 .text.SDEnWideBus
                0x0800d81c       0x8c FLASH_RUN/sdio_sdcard.o
                0x0800d81c                SDEnWideBus
 .text.SDIO_Register_Deinit
                0x0800d8a8       0x24 FLASH_RUN/sdio_sdcard.o
                0x0800d8a8                SDIO_Register_Deinit
 .text.SDIO_Clock_Set
                0x0800d8cc       0x14 FLASH_RUN/sdio_sdcard.o
                0x0800d8cc                SDIO_Clock_Set
 .text.SD_PowerON
                0x0800d8e0      0x190 FLASH_RUN/sdio_sdcard.o
                0x0800d8e0                SD_PowerON
 .text.SD_InitializeCards
                0x0800da70      0x118 FLASH_RUN/sdio_sdcard.o
                0x0800da70                SD_InitializeCards
 .text.SD_GetCardInfo
                0x0800db88      0x204 FLASH_RUN/sdio_sdcard.o
                0x0800db88                SD_GetCardInfo
 .text.SD_SelectDeselect
                0x0800dd8c       0x2c FLASH_RUN/sdio_sdcard.o
                0x0800dd8c                SD_SelectDeselect
 .text.SD_EnableWideBusOperation
                0x0800ddb8       0x48 FLASH_RUN/sdio_sdcard.o
                0x0800ddb8                SD_EnableWideBusOperation
 .text.SD_Init  0x0800de00      0x134 FLASH_RUN/sdio_sdcard.o
                0x0800de00                SD_Init
 .text.SD_DMA_Config
                0x0800df34       0x80 FLASH_RUN/sdio_sdcard.o
                0x0800df34                SD_DMA_Config
 .text.SD_ReadBlock
                0x0800dfb4      0x224 FLASH_RUN/sdio_sdcard.o
                0x0800dfb4                SD_ReadBlock
 .text.SD_ReadMultiBlocks
                0x0800e1d8      0x284 FLASH_RUN/sdio_sdcard.o
                0x0800e1d8                SD_ReadMultiBlocks
 .text.SD_WriteBlock
                0x0800e45c      0x2f8 FLASH_RUN/sdio_sdcard.o
                0x0800e45c                SD_WriteBlock
 .text.SD_WriteMultiBlocks
                0x0800e754      0x334 FLASH_RUN/sdio_sdcard.o
                0x0800e754                SD_WriteMultiBlocks
 .text.SD_ProcessIRQSrc
                0x0800ea88      0x120 FLASH_RUN/sdio_sdcard.o
                0x0800ea88                SD_ProcessIRQSrc
 .text.SDIO_IRQHandler
                0x0800eba8        0x4 FLASH_RUN/sdio_sdcard.o
                0x0800eba8                SDIO_IRQHandler
 .text.SD_ReadDisk
                0x0800ebac       0x78 FLASH_RUN/sdio_sdcard.o
                0x0800ebac                SD_ReadDisk
 .text.SD_WriteDisk
                0x0800ec24       0x74 FLASH_RUN/sdio_sdcard.o
                0x0800ec24                SD_WriteDisk
 .text.I2S2_Init
                0x0800ec98       0x68 FLASH_RUN/i2s.o
                0x0800ec98                I2S2_Init
 .text.I2S2_SampleRate_Set
                0x0800ed00       0x78 FLASH_RUN/i2s.o
                0x0800ed00                I2S2_SampleRate_Set
 .text.I2S2_TX_DMA_Init
                0x0800ed78       0xa8 FLASH_RUN/i2s.o
                0x0800ed78                I2S2_TX_DMA_Init
 .text.DMA1_Stream4_IRQHandler
                0x0800ee20       0x30 FLASH_RUN/i2s.o
                0x0800ee20                DMA1_Stream4_IRQHandler
 .text.DMA1_Stream3_IRQHandler
                0x0800ee50       0x30 FLASH_RUN/i2s.o
                0x0800ee50                DMA1_Stream3_IRQHandler
 .text.I2S_Play_Start
                0x0800ee80        0xc FLASH_RUN/i2s.o
                0x0800ee80                I2S_Play_Start
 .text.I2S_Play_Stop
                0x0800ee8c        0xc FLASH_RUN/i2s.o
                0x0800ee8c                I2S_Play_Stop
 .text.FSMC_SRAM_Init
                0x0800ee98      0x268 FLASH_RUN/ext_sram.o
                0x0800ee98                FSMC_SRAM_Init
 .text.RTC_Set_Time
                0x0800f100       0x20 FLASH_RUN/rtc.o
                0x0800f100                RTC_Set_Time
 .text.RTC_Set_Date
                0x0800f120       0x20 FLASH_RUN/rtc.o
                0x0800f120                RTC_Set_Date
 .text.RTC_Get_Time
                0x0800f140       0x2e FLASH_RUN/rtc.o
                0x0800f140                RTC_Get_Time
 .text.RTC_Get_Date
                0x0800f16e       0x2e FLASH_RUN/rtc.o
                0x0800f16e                RTC_Get_Date
 .text.rtc_init
                0x0800f19c       0x8e FLASH_RUN/rtc.o
                0x0800f19c                rtc_init
 *fill*         0x0800f22a        0x2 
 .text.RTC_Alarm_IRQHandler
                0x0800f22c       0x2c FLASH_RUN/rtc.o
                0x0800f22c                RTC_Alarm_IRQHandler
 .text.RTC_WKUP_IRQHandler
                0x0800f258       0x2c FLASH_RUN/rtc.o
                0x0800f258                RTC_WKUP_IRQHandler
 .text.mem_cpy  0x0800f284       0x12 FLASH_RUN/ff.o
 .text.mem_set  0x0800f296        0xc FLASH_RUN/ff.o
 *fill*         0x0800f2a2        0x2 
 .text.chk_lock
                0x0800f2a4       0x9c FLASH_RUN/ff.o
 .text.inc_lock
                0x0800f340       0x98 FLASH_RUN/ff.o
 .text.dec_lock
                0x0800f3d8       0x40 FLASH_RUN/ff.o
 .text.clear_lock
                0x0800f418       0x1c FLASH_RUN/ff.o
 .text.clmt_clust
                0x0800f434       0x28 FLASH_RUN/ff.o
 .text.sum_sfn  0x0800f45c       0x1e FLASH_RUN/ff.o
 .text.get_ldnumber
                0x0800f47a       0x3a FLASH_RUN/ff.o
 .text.sync_window
                0x0800f4b4       0x58 FLASH_RUN/ff.o
 .text.validate
                0x0800f50c       0x2e FLASH_RUN/ff.o
 .text.get_fileinfo
                0x0800f53a       0xfa FLASH_RUN/ff.o
 .text.move_window
                0x0800f634       0x36 FLASH_RUN/ff.o
 *fill*         0x0800f66a        0x2 
 .text.check_fs
                0x0800f66c       0x50 FLASH_RUN/ff.o
 .text.find_volume
                0x0800f6bc      0x224 FLASH_RUN/ff.o
 .text.sync_fs  0x0800f8e0       0x84 FLASH_RUN/ff.o
 .text.ld_clust.isra.0
                0x0800f964       0x10 FLASH_RUN/ff.o
 .text.clust2sect
                0x0800f974       0x1c FLASH_RUN/ff.o
                0x0800f974                clust2sect
 .text.get_fat  0x0800f990       0xc2 FLASH_RUN/ff.o
                0x0800f990                get_fat
 .text.dir_sdi  0x0800fa52       0x9e FLASH_RUN/ff.o
 .text.put_fat  0x0800faf0       0xf4 FLASH_RUN/ff.o
                0x0800faf0                put_fat
 .text.create_chain
                0x0800fbe4       0xb2 FLASH_RUN/ff.o
 .text.dir_next
                0x0800fc96      0x116 FLASH_RUN/ff.o
 .text.dir_find
                0x0800fdac      0x13c FLASH_RUN/ff.o
 .text.follow_path
                0x0800fee8      0x2d0 FLASH_RUN/ff.o
 .text.dir_register
                0x080101b8      0x288 FLASH_RUN/ff.o
 .text.dir_read.constprop.0
                0x08010440      0x100 FLASH_RUN/ff.o
 .text.remove_chain
                0x08010540       0x66 FLASH_RUN/ff.o
 *fill*         0x080105a6        0x2 
 .text.f_mount  0x080105a8       0x58 FLASH_RUN/ff.o
                0x080105a8                f_mount
 .text.f_open   0x08010600      0x1f4 FLASH_RUN/ff.o
                0x08010600                f_open
 .text.f_read   0x080107f4      0x18e FLASH_RUN/ff.o
                0x080107f4                f_read
 .text.f_sync   0x08010982       0xc2 FLASH_RUN/ff.o
                0x08010982                f_sync
 .text.f_close  0x08010a44       0x22 FLASH_RUN/ff.o
                0x08010a44                f_close
 .text.f_lseek  0x08010a66      0x290 FLASH_RUN/ff.o
                0x08010a66                f_lseek
 .text.f_opendir
                0x08010cf6       0xb2 FLASH_RUN/ff.o
                0x08010cf6                f_opendir
 .text.f_readdir
                0x08010da8       0x80 FLASH_RUN/ff.o
                0x08010da8                f_readdir
 .text.disk_initialize
                0x08010e28       0x1c FLASH_RUN/diskio.o
                0x08010e28                disk_initialize
 .text.disk_status
                0x08010e44        0xc FLASH_RUN/diskio.o
                0x08010e44                disk_status
 .text.disk_read
                0x08010e50       0x4a FLASH_RUN/diskio.o
                0x08010e50                disk_read
 .text.disk_write
                0x08010e9a       0x4a FLASH_RUN/diskio.o
                0x08010e9a                disk_write
 .text.disk_ioctl
                0x08010ee4       0x5c FLASH_RUN/diskio.o
                0x08010ee4                disk_ioctl
 .text.get_fattime
                0x08010f40       0x46 FLASH_RUN/diskio.o
                0x08010f40                get_fattime
 .text.ff_memalloc
                0x08010f86        0x4 FLASH_RUN/diskio.o
                0x08010f86                ff_memalloc
 .text.ff_memfree
                0x08010f8a        0x4 FLASH_RUN/diskio.o
                0x08010f8a                ff_memfree
 *fill*         0x08010f8e        0x2 
 .text.ff_convert
                0x08010f90       0x48 FLASH_RUN/cc949.o
                0x08010f90                ff_convert
 .text.ff_wtoupper
                0x08010fd8       0x24 FLASH_RUN/cc949.o
                0x08010fd8                ff_wtoupper
 .text._kill    0x08010ffc       0x10 FLASH_RUN/audio.o
                0x08010ffc                _kill
 .text._exit    0x0801100c       0x14 FLASH_RUN/audio.o
                0x0801100c                _exit
 .text._getpid  0x08011020        0x4 FLASH_RUN/audio.o
                0x08011020                _getpid
 .text._sbrk    0x08011024       0x38 FLASH_RUN/audio.o
                0x08011024                _sbrk
 .text.audio_file_list
                0x0801105c       0xac FLASH_RUN/audio.o
                0x0801105c                audio_file_list
 .text.find_music
                0x08011108       0xec FLASH_RUN/audio.o
                0x08011108                find_music
 .text.wm8978_volset
                0x080111f4       0x28 FLASH_RUN/audio.o
                0x080111f4                wm8978_volset
 .text.wm8978_eqset
                0x0801121c       0x38 FLASH_RUN/audio.o
                0x0801121c                wm8978_eqset
 .text.audio_start
                0x08011254       0x1c FLASH_RUN/audio.o
                0x08011254                audio_start
 .text.audio_stop
                0x08011270       0x1c FLASH_RUN/audio.o
                0x08011270                audio_stop
 .text.audio_init
                0x0801128c      0x164 FLASH_RUN/audio.o
                0x0801128c                audio_init
 .text.music_start
                0x080113f0      0x200 FLASH_RUN/audio.o
                0x080113f0                music_start
 .text.audio_process
                0x080115f0      0x310 FLASH_RUN/audio.o
                0x080115f0                audio_process
 .text.mp3_i2s_dma_tx_callback
                0x08011900       0x5c FLASH_RUN/mp3play.o
                0x08011900                mp3_i2s_dma_tx_callback
 .text.mp3_file_seek
                0x0801195c       0x24 FLASH_RUN/mp3play.o
                0x0801195c                mp3_file_seek
 .text.mp3_fill_buffer
                0x08011980       0x88 FLASH_RUN/mp3play.o
                0x08011980                mp3_fill_buffer
 .text.mp3_id3v1_decode
                0x08011a08       0x40 FLASH_RUN/mp3play.o
                0x08011a08                mp3_id3v1_decode
 .text.mp3_id3v2_decode
                0x08011a48       0xf4 FLASH_RUN/mp3play.o
                0x08011a48                mp3_id3v2_decode
 .text.mp3_get_info
                0x08011b3c      0x1a8 FLASH_RUN/mp3play.o
                0x08011b3c                mp3_get_info
 .text.mp3_get_curtime
                0x08011ce4       0x24 FLASH_RUN/mp3play.o
                0x08011ce4                mp3_get_curtime
 .text.mp3_stop
                0x08011d08       0x8c FLASH_RUN/mp3play.o
                0x08011d08                mp3_stop
 .text.mp3_play_song
                0x08011d94      0x220 FLASH_RUN/mp3play.o
                0x08011d94                mp3_play_song
 .text.mp3_play
                0x08011fb4      0x238 FLASH_RUN/mp3play.o
                0x08011fb4                mp3_play
 .text.wav_i2s_dma_tx_callback
                0x080121ec       0x5c FLASH_RUN/wavplay.o
                0x080121ec                wav_i2s_dma_tx_callback
 .text.wav_file_seek
                0x08012248       0x4c FLASH_RUN/wavplay.o
                0x08012248                wav_file_seek
 .text.wav_decode_init
                0x08012294      0x18c FLASH_RUN/wavplay.o
                0x08012294                wav_decode_init
 .text.wav_buffill
                0x08012420       0x80 FLASH_RUN/wavplay.o
                0x08012420                wav_buffill
 .text.wav_get_curtime
                0x080124a0       0x2e FLASH_RUN/wavplay.o
                0x080124a0                wav_get_curtime
 *fill*         0x080124ce        0x2 
 .text.wave_stop
                0x080124d0       0x5c FLASH_RUN/wavplay.o
                0x080124d0                wave_stop
 .text.wav_play_song
                0x0801252c      0x128 FLASH_RUN/wavplay.o
                0x0801252c                wav_play_song
 .text.wave_play
                0x08012654      0x118 FLASH_RUN/wavplay.o
                0x08012654                wave_play
 .text.flac_i2s_dma_tx_callback
                0x0801276c       0x88 FLASH_RUN/flacplay.o
                0x0801276c                flac_i2s_dma_tx_callback
 .text.flac_file_seek
                0x080127f4       0x24 FLASH_RUN/flacplay.o
                0x080127f4                flac_file_seek
 .text.flac_init
                0x08012818      0x148 FLASH_RUN/flacplay.o
                0x08012818                flac_init
 .text.flac_get_curtime
                0x08012960       0x34 FLASH_RUN/flacplay.o
                0x08012960                flac_get_curtime
 .text.flac_stop
                0x08012994       0x98 FLASH_RUN/flacplay.o
                0x08012994                flac_stop
 .text.flac_play_song
                0x08012a2c      0x300 FLASH_RUN/flacplay.o
                0x08012a2c                flac_play_song
 .text.flac_play
                0x08012d2c      0x250 FLASH_RUN/flacplay.o
                0x08012d2c                flac_play
 .text.ape_i2s_dma_tx_callback
                0x08012f7c       0x5c FLASH_RUN/apeplay.o
                0x08012f7c                ape_i2s_dma_tx_callback
 .text.ape_file_seek
                0x08012fd8       0x10 FLASH_RUN/apeplay.o
                0x08012fd8                ape_file_seek
 .text.ape_fill_buffer
                0x08012fe8       0x5c FLASH_RUN/apeplay.o
                0x08012fe8                ape_fill_buffer
 .text.ape_get_curtime
                0x08013044       0x34 FLASH_RUN/apeplay.o
                0x08013044                ape_get_curtime
 .text.ape_stop
                0x08013078       0xb4 FLASH_RUN/apeplay.o
                0x08013078                ape_stop
 .text.ape_play_song
                0x0801312c      0x2d8 FLASH_RUN/apeplay.o
                0x0801312c                ape_play_song
 .text.ape_play
                0x08013404      0x2ac FLASH_RUN/apeplay.o
                0x08013404                ape_play
 .text.Default_Handler
                0x080136b0       0x30 c:/project/stm32fx_iolib/stm32f4x_iolib/stm32f4x_iolib_168MHz_8MHz.a(startup_stm32f4xx.o)
                0x080136b0                HASH_RNG_IRQHandler
                0x080136b0                EXTI2_IRQHandler
                0x080136b0                TIM8_CC_IRQHandler
                0x080136b0                DebugMon_Handler
                0x080136b0                UART8_IRQHandler
                0x080136b0                FMPI2C1_EV_IRQHandler
                0x080136b0                SPI4_IRQHandler
                0x080136b0                DMA2_Stream5_IRQHandler
                0x080136b0                HardFault_Handler
                0x080136b0                DMA1_Stream5_IRQHandler
                0x080136b0                PVD_IRQHandler
                0x080136b0                TAMP_STAMP_IRQHandler
                0x080136b0                PendSV_Handler
                0x080136b0                NMI_Handler
                0x080136b0                CAN2_RX1_IRQHandler
                0x080136b0                EXTI3_IRQHandler
                0x080136b0                TIM8_TRG_COM_TIM14_IRQHandler
                0x080136b0                TIM8_UP_TIM13_IRQHandler
                0x080136b0                I2C3_ER_IRQHandler
                0x080136b0                EXTI0_IRQHandler
                0x080136b0                I2C2_EV_IRQHandler
                0x080136b0                DMA1_Stream2_IRQHandler
                0x080136b0                CAN1_RX0_IRQHandler
                0x080136b0                FPU_IRQHandler
                0x080136b0                OTG_HS_WKUP_IRQHandler
                0x080136b0                UsageFault_Handler
                0x080136b0                LTDC_ER_IRQHandler
                0x080136b0                CAN2_SCE_IRQHandler
                0x080136b0                DMA2_Stream2_IRQHandler
                0x080136b0                SPI1_IRQHandler
                0x080136b0                TIM6_DAC_IRQHandler
                0x080136b0                TIM1_BRK_TIM9_IRQHandler
                0x080136b0                DCMI_IRQHandler
                0x080136b0                CAN2_RX0_IRQHandler
                0x080136b0                DMA2_Stream3_IRQHandler
                0x080136b0                SAI2_IRQHandler
                0x080136b0                USART6_IRQHandler
                0x080136b0                CRYP_IRQHandler
                0x080136b0                DFSDM2_FLT3_IRQHandler
                0x080136b0                CAN1_RX1_IRQHandler
                0x080136b0                UART5_IRQHandler
                0x080136b0                DMA2_Stream0_IRQHandler
                0x080136b0                TIM4_IRQHandler
                0x080136b0                QUADSPI_IRQHandler
                0x080136b0                I2C1_EV_IRQHandler
                0x080136b0                DMA1_Stream6_IRQHandler
                0x080136b0                DMA1_Stream1_IRQHandler
                0x080136b0                UART4_IRQHandler
                0x080136b0                TIM3_IRQHandler
                0x080136b0                RCC_IRQHandler
                0x080136b0                TIM8_BRK_TIM12_IRQHandler
                0x080136b0                Default_Handler
                0x080136b0                CEC_IRQHandler
                0x080136b0                EXTI15_10_IRQHandler
                0x080136b0                ADC_IRQHandler
                0x080136b0                DMA1_Stream7_IRQHandler
                0x080136b0                DFSDM2_FLT0_IRQHandler
                0x080136b0                SPI5_IRQHandler
                0x080136b0                TIM7_IRQHandler
                0x080136b0                CAN2_TX_IRQHandler
                0x080136b0                TIM5_IRQHandler
                0x080136b0                DMA2_Stream7_IRQHandler
                0x080136b0                I2C3_EV_IRQHandler
                0x080136b0                DFSDM2_FLT2_IRQHandler
                0x080136b0                EXTI9_5_IRQHandler
                0x080136b0                LTDC_IRQHandler
                0x080136b0                ETH_WKUP_IRQHandler
                0x080136b0                SPDIF_RX_IRQHandler
                0x080136b0                SPI2_IRQHandler
                0x080136b0                OTG_HS_EP1_IN_IRQHandler
                0x080136b0                MemManage_Handler
                0x080136b0                DMA1_Stream0_IRQHandler
                0x080136b0                CAN1_TX_IRQHandler
                0x080136b0                SVC_Handler
                0x080136b0                FMPI2C1_ER_IRQHandler
                0x080136b0                EXTI4_IRQHandler
                0x080136b0                DFSDM2_FLT1_IRQHandler
                0x080136b0                FSMC_IRQHandler
                0x080136b0                ETH_IRQHandler
                0x080136b0                OTG_HS_EP1_OUT_IRQHandler
                0x080136b0                WWDG_IRQHandler
                0x080136b0                SPI6_IRQHandler
                0x080136b0                TIM2_IRQHandler
                0x080136b0                OTG_FS_WKUP_IRQHandler
                0x080136b0                TIM1_TRG_COM_TIM11_IRQHandler
                0x080136b0                OTG_HS_IRQHandler
                0x080136b0                DMA2D_IRQHandler
                0x080136b0                EXTI1_IRQHandler
                0x080136b0                UART7_IRQHandler
                0x080136b0                I2C2_ER_IRQHandler
                0x080136b0                DMA2_Stream1_IRQHandler
                0x080136b0                CAN1_SCE_IRQHandler
                0x080136b0                FLASH_IRQHandler
                0x080136b0                DMA2_Stream4_IRQHandler
                0x080136b0                BusFault_Handler
                0x080136b0                OTG_FS_IRQHandler
                0x080136b0                SPI3_IRQHandler
                0x080136b0                I2C1_ER_IRQHandler
                0x080136b0                LPTIM1_IRQHandler
                0x080136b0                DMA2_Stream6_IRQHandler
                0x080136b0                SAI1_IRQHandler
 .text.__Init_Data_and_BSS
                0x080136e0       0x54 c:/project/stm32fx_iolib/stm32f4x_iolib/stm32f4x_iolib_168MHz_8MHz.a(startup_stm32f4xx.o)
                0x080136e0                __Init_Data_and_BSS
 .text.Reset_Handler
                0x08013734       0x28 c:/project/stm32fx_iolib/stm32f4x_iolib/stm32f4x_iolib_168MHz_8MHz.a(startup_stm32f4xx.o)
                0x08013734                Reset_Handler
 .text.SystemInit
                0x0801375c       0xf4 c:/project/stm32fx_iolib/stm32f4x_iolib/stm32f4x_iolib_168MHz_8MHz.a(system_stm32f4xx.o)
                0x0801375c                SystemInit
 .text.NVIC_PriorityGroupConfig
                0x08013850       0x14 c:/project/stm32fx_iolib/stm32f4x_iolib/stm32f4x_iolib_168MHz_8MHz.a(misc.o)
                0x08013850                NVIC_PriorityGroupConfig
 .text.NVIC_Init
                0x08013864       0x58 c:/project/stm32fx_iolib/stm32f4x_iolib/stm32f4x_iolib_168MHz_8MHz.a(misc.o)
                0x08013864                NVIC_Init
 .text.NVIC_SetVectorTable
                0x080138bc       0x14 c:/project/stm32fx_iolib/stm32f4x_iolib/stm32f4x_iolib_168MHz_8MHz.a(misc.o)
                0x080138bc                NVIC_SetVectorTable
 .text.ADC_Init
                0x080138d0       0x4c c:/project/stm32fx_iolib/stm32f4x_iolib/stm32f4x_iolib_168MHz_8MHz.a(stm32f4xx_adc.o)
                0x080138d0                ADC_Init
 .text.ADC_CommonInit
                0x0801391c       0x28 c:/project/stm32fx_iolib/stm32f4x_iolib/stm32f4x_iolib_168MHz_8MHz.a(stm32f4xx_adc.o)
                0x0801391c                ADC_CommonInit
 .text.ADC_Cmd  0x08013944       0x12 c:/project/stm32fx_iolib/stm32f4x_iolib/stm32f4x_iolib_168MHz_8MHz.a(stm32f4xx_adc.o)
                0x08013944                ADC_Cmd
 *fill*         0x08013956        0x2 
 .text.ADC_TempSensorVrefintCmd
                0x08013958       0x18 c:/project/stm32fx_iolib/stm32f4x_iolib/stm32f4x_iolib_168MHz_8MHz.a(stm32f4xx_adc.o)
                0x08013958                ADC_TempSensorVrefintCmd
 .text.ADC_RegularChannelConfig
                0x08013970       0x8c c:/project/stm32fx_iolib/stm32f4x_iolib/stm32f4x_iolib_168MHz_8MHz.a(stm32f4xx_adc.o)
                0x08013970                ADC_RegularChannelConfig
 .text.ADC_SoftwareStartConv
                0x080139fc        0xa c:/project/stm32fx_iolib/stm32f4x_iolib/stm32f4x_iolib_168MHz_8MHz.a(stm32f4xx_adc.o)
                0x080139fc                ADC_SoftwareStartConv
 .text.ADC_GetConversionValue
                0x08013a06        0x6 c:/project/stm32fx_iolib/stm32f4x_iolib/stm32f4x_iolib_168MHz_8MHz.a(stm32f4xx_adc.o)
                0x08013a06                ADC_GetConversionValue
 .text.ADC_GetFlagStatus
                0x08013a0c        0xc c:/project/stm32fx_iolib/stm32f4x_iolib/stm32f4x_iolib_168MHz_8MHz.a(stm32f4xx_adc.o)
                0x08013a0c                ADC_GetFlagStatus
 .text.DAC_Init
                0x08013a18       0x2c c:/project/stm32fx_iolib/stm32f4x_iolib/stm32f4x_iolib_168MHz_8MHz.a(stm32f4xx_dac.o)
                0x08013a18                DAC_Init
 .text.DAC_Cmd  0x08013a44       0x1c c:/project/stm32fx_iolib/stm32f4x_iolib/stm32f4x_iolib_168MHz_8MHz.a(stm32f4xx_dac.o)
                0x08013a44                DAC_Cmd
 .text.DAC_SetChannel1Data
                0x08013a60       0x20 c:/project/stm32fx_iolib/stm32f4x_iolib/stm32f4x_iolib_168MHz_8MHz.a(stm32f4xx_dac.o)
                0x08013a60                DAC_SetChannel1Data
 .text.DMA_DeInit
                0x08013a80      0x110 c:/project/stm32fx_iolib/stm32f4x_iolib/stm32f4x_iolib_168MHz_8MHz.a(stm32f4xx_dma.o)
                0x08013a80                DMA_DeInit
 .text.DMA_Init
                0x08013b90       0x54 c:/project/stm32fx_iolib/stm32f4x_iolib/stm32f4x_iolib_168MHz_8MHz.a(stm32f4xx_dma.o)
                0x08013b90                DMA_Init
 .text.DMA_Cmd  0x08013be4       0x12 c:/project/stm32fx_iolib/stm32f4x_iolib/stm32f4x_iolib_168MHz_8MHz.a(stm32f4xx_dma.o)
                0x08013be4                DMA_Cmd
 .text.DMA_FlowControllerConfig
                0x08013bf6       0x12 c:/project/stm32fx_iolib/stm32f4x_iolib/stm32f4x_iolib_168MHz_8MHz.a(stm32f4xx_dma.o)
                0x08013bf6                DMA_FlowControllerConfig
 .text.DMA_DoubleBufferModeConfig
                0x08013c08       0x14 c:/project/stm32fx_iolib/stm32f4x_iolib/stm32f4x_iolib_168MHz_8MHz.a(stm32f4xx_dma.o)
                0x08013c08                DMA_DoubleBufferModeConfig
 .text.DMA_DoubleBufferModeCmd
                0x08013c1c       0x12 c:/project/stm32fx_iolib/stm32f4x_iolib/stm32f4x_iolib_168MHz_8MHz.a(stm32f4xx_dma.o)
                0x08013c1c                DMA_DoubleBufferModeCmd
 .text.DMA_GetCmdStatus
                0x08013c2e        0x8 c:/project/stm32fx_iolib/stm32f4x_iolib/stm32f4x_iolib_168MHz_8MHz.a(stm32f4xx_dma.o)
                0x08013c2e                DMA_GetCmdStatus
 *fill*         0x08013c36        0x2 
 .text.DMA_ClearFlag
                0x08013c38       0x2c c:/project/stm32fx_iolib/stm32f4x_iolib/stm32f4x_iolib_168MHz_8MHz.a(stm32f4xx_dma.o)
                0x08013c38                DMA_ClearFlag
 .text.DMA_ITConfig
                0x08013c64       0x3e c:/project/stm32fx_iolib/stm32f4x_iolib/stm32f4x_iolib_168MHz_8MHz.a(stm32f4xx_dma.o)
                0x08013c64                DMA_ITConfig
 *fill*         0x08013ca2        0x2 
 .text.DMA_GetITStatus
                0x08013ca4       0x54 c:/project/stm32fx_iolib/stm32f4x_iolib/stm32f4x_iolib_168MHz_8MHz.a(stm32f4xx_dma.o)
                0x08013ca4                DMA_GetITStatus
 .text.DMA_ClearITPendingBit
                0x08013cf8        0x4 c:/project/stm32fx_iolib/stm32f4x_iolib/stm32f4x_iolib_168MHz_8MHz.a(stm32f4xx_dma.o)
                0x08013cf8                DMA_ClearITPendingBit
 .text.EXTI_ClearITPendingBit
                0x08013cfc        0xc c:/project/stm32fx_iolib/stm32f4x_iolib/stm32f4x_iolib_168MHz_8MHz.a(stm32f4xx_exti.o)
                0x08013cfc                EXTI_ClearITPendingBit
 .text.FLASH_Unlock
                0x08013d08       0x1c c:/project/stm32fx_iolib/stm32f4x_iolib/stm32f4x_iolib_168MHz_8MHz.a(stm32f4xx_flash.o)
                0x08013d08                FLASH_Unlock
 .text.FLASH_Lock
                0x08013d24       0x10 c:/project/stm32fx_iolib/stm32f4x_iolib/stm32f4x_iolib_168MHz_8MHz.a(stm32f4xx_flash.o)
                0x08013d24                FLASH_Lock
 .text.FLASH_OB_Unlock
                0x08013d34       0x1c c:/project/stm32fx_iolib/stm32f4x_iolib/stm32f4x_iolib_168MHz_8MHz.a(stm32f4xx_flash.o)
                0x08013d34                FLASH_OB_Unlock
 .text.FLASH_OB_Lock
                0x08013d50       0x10 c:/project/stm32fx_iolib/stm32f4x_iolib/stm32f4x_iolib_168MHz_8MHz.a(stm32f4xx_flash.o)
                0x08013d50                FLASH_OB_Lock
 .text.FLASH_OB_GetRDP
                0x08013d60       0x10 c:/project/stm32fx_iolib/stm32f4x_iolib/stm32f4x_iolib_168MHz_8MHz.a(stm32f4xx_flash.o)
                0x08013d60                FLASH_OB_GetRDP
 .text.FLASH_GetStatus
                0x08013d70       0x40 c:/project/stm32fx_iolib/stm32f4x_iolib/stm32f4x_iolib_168MHz_8MHz.a(stm32f4xx_flash.o)
                0x08013d70                FLASH_GetStatus
 .text.FLASH_WaitForLastOperation
                0x08013db0       0x22 c:/project/stm32fx_iolib/stm32f4x_iolib/stm32f4x_iolib_168MHz_8MHz.a(stm32f4xx_flash.o)
                0x08013db0                FLASH_WaitForLastOperation
 *fill*         0x08013dd2        0x2 
 .text.FLASH_OB_RDPConfig
                0x08013dd4       0x18 c:/project/stm32fx_iolib/stm32f4x_iolib/stm32f4x_iolib_168MHz_8MHz.a(stm32f4xx_flash.o)
                0x08013dd4                FLASH_OB_RDPConfig
 .text.FLASH_OB_Launch
                0x08013dec       0x14 c:/project/stm32fx_iolib/stm32f4x_iolib/stm32f4x_iolib_168MHz_8MHz.a(stm32f4xx_flash.o)
                0x08013dec                FLASH_OB_Launch
 .text.GPIO_Init
                0x08013e00       0x84 c:/project/stm32fx_iolib/stm32f4x_iolib/stm32f4x_iolib_168MHz_8MHz.a(stm32f4xx_gpio.o)
                0x08013e00                GPIO_Init
 .text.GPIO_PinAFConfig
                0x08013e84       0x24 c:/project/stm32fx_iolib/stm32f4x_iolib/stm32f4x_iolib_168MHz_8MHz.a(stm32f4xx_gpio.o)
                0x08013e84                GPIO_PinAFConfig
 .text.GPIO_Init_Pin
                0x08013ea8       0x86 c:/project/stm32fx_iolib/stm32f4x_iolib/stm32f4x_iolib_168MHz_8MHz.a(stm32f4xx_gpio.o)
                0x08013ea8                GPIO_Init_Pin
 *fill*         0x08013f2e        0x2 
 .text.I2C_DeInit
                0x08013f30       0x60 c:/project/stm32fx_iolib/stm32f4x_iolib/stm32f4x_iolib_168MHz_8MHz.a(stm32f4xx_i2c.o)
                0x08013f30                I2C_DeInit
 .text.I2C_Init
                0x08013f90       0xd0 c:/project/stm32fx_iolib/stm32f4x_iolib/stm32f4x_iolib_168MHz_8MHz.a(stm32f4xx_i2c.o)
                0x08013f90                I2C_Init
 .text.I2C_Cmd  0x08014060       0x18 c:/project/stm32fx_iolib/stm32f4x_iolib/stm32f4x_iolib_168MHz_8MHz.a(stm32f4xx_i2c.o)
                0x08014060                I2C_Cmd
 .text.I2C_GenerateSTART
                0x08014078       0x18 c:/project/stm32fx_iolib/stm32f4x_iolib/stm32f4x_iolib_168MHz_8MHz.a(stm32f4xx_i2c.o)
                0x08014078                I2C_GenerateSTART
 .text.I2C_GenerateSTOP
                0x08014090       0x18 c:/project/stm32fx_iolib/stm32f4x_iolib/stm32f4x_iolib_168MHz_8MHz.a(stm32f4xx_i2c.o)
                0x08014090                I2C_GenerateSTOP
 .text.I2C_Send7bitAddress
                0x080140a8       0x12 c:/project/stm32fx_iolib/stm32f4x_iolib/stm32f4x_iolib_168MHz_8MHz.a(stm32f4xx_i2c.o)
                0x080140a8                I2C_Send7bitAddress
 .text.I2C_AcknowledgeConfig
                0x080140ba       0x18 c:/project/stm32fx_iolib/stm32f4x_iolib/stm32f4x_iolib_168MHz_8MHz.a(stm32f4xx_i2c.o)
                0x080140ba                I2C_AcknowledgeConfig
 .text.I2C_SendData
                0x080140d2        0x4 c:/project/stm32fx_iolib/stm32f4x_iolib/stm32f4x_iolib_168MHz_8MHz.a(stm32f4xx_i2c.o)
                0x080140d2                I2C_SendData
 .text.I2C_ReceiveData
                0x080140d6        0x6 c:/project/stm32fx_iolib/stm32f4x_iolib/stm32f4x_iolib_168MHz_8MHz.a(stm32f4xx_i2c.o)
                0x080140d6                I2C_ReceiveData
 .text.I2C_CheckEvent
                0x080140dc       0x18 c:/project/stm32fx_iolib/stm32f4x_iolib/stm32f4x_iolib_168MHz_8MHz.a(stm32f4xx_i2c.o)
                0x080140dc                I2C_CheckEvent
 .text.I2C_GetLastEvent
                0x080140f4       0x10 c:/project/stm32fx_iolib/stm32f4x_iolib/stm32f4x_iolib_168MHz_8MHz.a(stm32f4xx_i2c.o)
                0x080140f4                I2C_GetLastEvent
 .text.I2C_GetFlagStatus
                0x08014104       0x34 c:/project/stm32fx_iolib/stm32f4x_iolib/stm32f4x_iolib_168MHz_8MHz.a(stm32f4xx_i2c.o)
                0x08014104                I2C_GetFlagStatus
 .text.I2C_ClearFlag
                0x08014138        0x8 c:/project/stm32fx_iolib/stm32f4x_iolib/stm32f4x_iolib_168MHz_8MHz.a(stm32f4xx_i2c.o)
                0x08014138                I2C_ClearFlag
 .text.IWDG_WriteAccessCmd
                0x08014140        0xc c:/project/stm32fx_iolib/stm32f4x_iolib/stm32f4x_iolib_168MHz_8MHz.a(stm32f4xx_iwdg.o)
                0x08014140                IWDG_WriteAccessCmd
 .text.IWDG_SetPrescaler
                0x0801414c        0xc c:/project/stm32fx_iolib/stm32f4x_iolib/stm32f4x_iolib_168MHz_8MHz.a(stm32f4xx_iwdg.o)
                0x0801414c                IWDG_SetPrescaler
 .text.IWDG_SetReload
                0x08014158        0xc c:/project/stm32fx_iolib/stm32f4x_iolib/stm32f4x_iolib_168MHz_8MHz.a(stm32f4xx_iwdg.o)
                0x08014158                IWDG_SetReload
 .text.IWDG_ReloadCounter
                0x08014164       0x10 c:/project/stm32fx_iolib/stm32f4x_iolib/stm32f4x_iolib_168MHz_8MHz.a(stm32f4xx_iwdg.o)
                0x08014164                IWDG_ReloadCounter
 .text.IWDG_Enable
                0x08014174       0x10 c:/project/stm32fx_iolib/stm32f4x_iolib/stm32f4x_iolib_168MHz_8MHz.a(stm32f4xx_iwdg.o)
                0x08014174                IWDG_Enable
 .text.PWR_BackupAccessCmd
                0x08014184        0xc c:/project/stm32fx_iolib/stm32f4x_iolib/stm32f4x_iolib_168MHz_8MHz.a(stm32f4xx_pwr.o)
                0x08014184                PWR_BackupAccessCmd
 .text.RCC_LSEConfig
                0x08014190       0x28 c:/project/stm32fx_iolib/stm32f4x_iolib/stm32f4x_iolib_168MHz_8MHz.a(stm32f4xx_rcc.o)
                0x08014190                RCC_LSEConfig
 .text.RCC_PLLI2SConfig
                0x080141b8       0x14 c:/project/stm32fx_iolib/stm32f4x_iolib/stm32f4x_iolib_168MHz_8MHz.a(stm32f4xx_rcc.o)
                0x080141b8                RCC_PLLI2SConfig
 .text.RCC_PLLI2SCmd
                0x080141cc        0xc c:/project/stm32fx_iolib/stm32f4x_iolib/stm32f4x_iolib_168MHz_8MHz.a(stm32f4xx_rcc.o)
                0x080141cc                RCC_PLLI2SCmd
 .text.RCC_GetClocksFreq
                0x080141d8       0x88 c:/project/stm32fx_iolib/stm32f4x_iolib/stm32f4x_iolib_168MHz_8MHz.a(stm32f4xx_rcc.o)
                0x080141d8                RCC_GetClocksFreq
 .text.RCC_RTCCLKConfig
                0x08014260       0x30 c:/project/stm32fx_iolib/stm32f4x_iolib/stm32f4x_iolib_168MHz_8MHz.a(stm32f4xx_rcc.o)
                0x08014260                RCC_RTCCLKConfig
 .text.RCC_RTCCLKCmd
                0x08014290        0xc c:/project/stm32fx_iolib/stm32f4x_iolib/stm32f4x_iolib_168MHz_8MHz.a(stm32f4xx_rcc.o)
                0x08014290                RCC_RTCCLKCmd
 .text.RCC_AHB1PeriphClockCmd
                0x0801429c       0x18 c:/project/stm32fx_iolib/stm32f4x_iolib/stm32f4x_iolib_168MHz_8MHz.a(stm32f4xx_rcc.o)
                0x0801429c                RCC_AHB1PeriphClockCmd
 .text.RCC_AHB3PeriphClockCmd
                0x080142b4       0x18 c:/project/stm32fx_iolib/stm32f4x_iolib/stm32f4x_iolib_168MHz_8MHz.a(stm32f4xx_rcc.o)
                0x080142b4                RCC_AHB3PeriphClockCmd
 .text.RCC_APB1PeriphClockCmd
                0x080142cc       0x18 c:/project/stm32fx_iolib/stm32f4x_iolib/stm32f4x_iolib_168MHz_8MHz.a(stm32f4xx_rcc.o)
                0x080142cc                RCC_APB1PeriphClockCmd
 .text.RCC_APB2PeriphClockCmd
                0x080142e4       0x18 c:/project/stm32fx_iolib/stm32f4x_iolib/stm32f4x_iolib_168MHz_8MHz.a(stm32f4xx_rcc.o)
                0x080142e4                RCC_APB2PeriphClockCmd
 .text.RCC_APB1PeriphResetCmd
                0x080142fc       0x18 c:/project/stm32fx_iolib/stm32f4x_iolib/stm32f4x_iolib_168MHz_8MHz.a(stm32f4xx_rcc.o)
                0x080142fc                RCC_APB1PeriphResetCmd
 .text.RCC_APB2PeriphResetCmd
                0x08014314       0x18 c:/project/stm32fx_iolib/stm32f4x_iolib/stm32f4x_iolib_168MHz_8MHz.a(stm32f4xx_rcc.o)
                0x08014314                RCC_APB2PeriphResetCmd
 .text.RCC_GetFlagStatus
                0x0801432c       0x28 c:/project/stm32fx_iolib/stm32f4x_iolib/stm32f4x_iolib_168MHz_8MHz.a(stm32f4xx_rcc.o)
                0x0801432c                RCC_GetFlagStatus
 .text.RTC_ByteToBcd2
                0x08014354       0x1a c:/project/stm32fx_iolib/stm32f4x_iolib/stm32f4x_iolib_168MHz_8MHz.a(stm32f4xx_rtc.o)
 .text.RTC_Bcd2ToByte
                0x0801436e       0x12 c:/project/stm32fx_iolib/stm32f4x_iolib/stm32f4x_iolib_168MHz_8MHz.a(stm32f4xx_rtc.o)
 .text.RTC_EnterInitMode
                0x08014380       0x40 c:/project/stm32fx_iolib/stm32f4x_iolib/stm32f4x_iolib_168MHz_8MHz.a(stm32f4xx_rtc.o)
                0x08014380                RTC_EnterInitMode
 .text.RTC_ExitInitMode
                0x080143c0       0x10 c:/project/stm32fx_iolib/stm32f4x_iolib/stm32f4x_iolib_168MHz_8MHz.a(stm32f4xx_rtc.o)
                0x080143c0                RTC_ExitInitMode
 .text.RTC_Init
                0x080143d0       0x44 c:/project/stm32fx_iolib/stm32f4x_iolib/stm32f4x_iolib_168MHz_8MHz.a(stm32f4xx_rtc.o)
                0x080143d0                RTC_Init
 .text.RTC_WaitForSynchro
                0x08014414       0x44 c:/project/stm32fx_iolib/stm32f4x_iolib/stm32f4x_iolib_168MHz_8MHz.a(stm32f4xx_rtc.o)
                0x08014414                RTC_WaitForSynchro
 .text.RTC_SetTime
                0x08014458       0x94 c:/project/stm32fx_iolib/stm32f4x_iolib/stm32f4x_iolib_168MHz_8MHz.a(stm32f4xx_rtc.o)
                0x08014458                RTC_SetTime
 .text.RTC_GetTime
                0x080144ec       0x44 c:/project/stm32fx_iolib/stm32f4x_iolib/stm32f4x_iolib_168MHz_8MHz.a(stm32f4xx_rtc.o)
                0x080144ec                RTC_GetTime
 .text.RTC_SetDate
                0x08014530       0x88 c:/project/stm32fx_iolib/stm32f4x_iolib/stm32f4x_iolib_168MHz_8MHz.a(stm32f4xx_rtc.o)
                0x08014530                RTC_SetDate
 .text.RTC_GetDate
                0x080145b8       0x40 c:/project/stm32fx_iolib/stm32f4x_iolib/stm32f4x_iolib_168MHz_8MHz.a(stm32f4xx_rtc.o)
                0x080145b8                RTC_GetDate
 .text.RTC_WriteBackupRegister
                0x080145f8       0x20 c:/project/stm32fx_iolib/stm32f4x_iolib/stm32f4x_iolib_168MHz_8MHz.a(stm32f4xx_rtc.o)
                0x080145f8                RTC_WriteBackupRegister
 .text.RTC_ReadBackupRegister
                0x08014618       0x20 c:/project/stm32fx_iolib/stm32f4x_iolib/stm32f4x_iolib_168MHz_8MHz.a(stm32f4xx_rtc.o)
                0x08014618                RTC_ReadBackupRegister
 .text.RTC_GetFlagStatus
                0x08014638       0x1c c:/project/stm32fx_iolib/stm32f4x_iolib/stm32f4x_iolib_168MHz_8MHz.a(stm32f4xx_rtc.o)
                0x08014638                RTC_GetFlagStatus
 .text.RTC_ClearFlag
                0x08014654       0x1c c:/project/stm32fx_iolib/stm32f4x_iolib/stm32f4x_iolib_168MHz_8MHz.a(stm32f4xx_rtc.o)
                0x08014654                RTC_ClearFlag
 .text.SDIO_Init
                0x08014670       0x30 c:/project/stm32fx_iolib/stm32f4x_iolib/stm32f4x_iolib_168MHz_8MHz.a(stm32f4xx_sdio.o)
                0x08014670                SDIO_Init
 .text.SDIO_SetPowerState
                0x080146a0        0xc c:/project/stm32fx_iolib/stm32f4x_iolib/stm32f4x_iolib_168MHz_8MHz.a(stm32f4xx_sdio.o)
                0x080146a0                SDIO_SetPowerState
 .text.SDIO_GetPowerState
                0x080146ac       0x10 c:/project/stm32fx_iolib/stm32f4x_iolib/stm32f4x_iolib_168MHz_8MHz.a(stm32f4xx_sdio.o)
                0x080146ac                SDIO_GetPowerState
 .text.SDIO_SendCommand
                0x080146bc       0x2c c:/project/stm32fx_iolib/stm32f4x_iolib/stm32f4x_iolib_168MHz_8MHz.a(stm32f4xx_sdio.o)
                0x080146bc                SDIO_SendCommand
 .text.SDIO_DataConfig
                0x080146e8       0x2c c:/project/stm32fx_iolib/stm32f4x_iolib/stm32f4x_iolib_168MHz_8MHz.a(stm32f4xx_sdio.o)
                0x080146e8                SDIO_DataConfig
 .text.SDIO_GetFlagStatus
                0x08014714       0x14 c:/project/stm32fx_iolib/stm32f4x_iolib/stm32f4x_iolib_168MHz_8MHz.a(stm32f4xx_sdio.o)
                0x08014714                SDIO_GetFlagStatus
 .text.SDIO_ClearFlag
                0x08014728        0xc c:/project/stm32fx_iolib/stm32f4x_iolib/stm32f4x_iolib_168MHz_8MHz.a(stm32f4xx_sdio.o)
                0x08014728                SDIO_ClearFlag
 .text.I2S_Init
                0x08014734       0xd4 c:/project/stm32fx_iolib/stm32f4x_iolib/stm32f4x_iolib_168MHz_8MHz.a(stm32f4xx_spi.o)
                0x08014734                I2S_Init
 .text.I2S_Cmd  0x08014808       0x18 c:/project/stm32fx_iolib/stm32f4x_iolib/stm32f4x_iolib_168MHz_8MHz.a(stm32f4xx_spi.o)
                0x08014808                I2S_Cmd
 .text.SPI_I2S_DMACmd
                0x08014820       0x12 c:/project/stm32fx_iolib/stm32f4x_iolib/stm32f4x_iolib_168MHz_8MHz.a(stm32f4xx_spi.o)
                0x08014820                SPI_I2S_DMACmd
 .text.TI1_Config
                0x08014832       0x34 c:/project/stm32fx_iolib/stm32f4x_iolib/stm32f4x_iolib_168MHz_8MHz.a(stm32f4xx_tim.o)
 .text.TI2_Config
                0x08014866       0x3a c:/project/stm32fx_iolib/stm32f4x_iolib/stm32f4x_iolib_168MHz_8MHz.a(stm32f4xx_tim.o)
 .text.TIM_TimeBaseInit
                0x080148a0       0x7c c:/project/stm32fx_iolib/stm32f4x_iolib/stm32f4x_iolib_168MHz_8MHz.a(stm32f4xx_tim.o)
                0x080148a0                TIM_TimeBaseInit
 .text.TIM_SetCounter
                0x0801491c        0x4 c:/project/stm32fx_iolib/stm32f4x_iolib/stm32f4x_iolib_168MHz_8MHz.a(stm32f4xx_tim.o)
                0x0801491c                TIM_SetCounter
 .text.TIM_Cmd  0x08014920       0x18 c:/project/stm32fx_iolib/stm32f4x_iolib/stm32f4x_iolib_168MHz_8MHz.a(stm32f4xx_tim.o)
                0x08014920                TIM_Cmd
 .text.TIM_OC1PolarityConfig
                0x08014938       0x10 c:/project/stm32fx_iolib/stm32f4x_iolib/stm32f4x_iolib_168MHz_8MHz.a(stm32f4xx_tim.o)
                0x08014938                TIM_OC1PolarityConfig
 .text.TIM_GetCapture1
                0x08014948        0x4 c:/project/stm32fx_iolib/stm32f4x_iolib/stm32f4x_iolib_168MHz_8MHz.a(stm32f4xx_tim.o)
                0x08014948                TIM_GetCapture1
 .text.TIM_SetIC1Prescaler
                0x0801494c       0x16 c:/project/stm32fx_iolib/stm32f4x_iolib/stm32f4x_iolib_168MHz_8MHz.a(stm32f4xx_tim.o)
                0x0801494c                TIM_SetIC1Prescaler
 .text.TIM_SetIC2Prescaler
                0x08014962       0x1a c:/project/stm32fx_iolib/stm32f4x_iolib/stm32f4x_iolib_168MHz_8MHz.a(stm32f4xx_tim.o)
                0x08014962                TIM_SetIC2Prescaler
 .text.TIM_SetIC3Prescaler
                0x0801497c       0x16 c:/project/stm32fx_iolib/stm32f4x_iolib/stm32f4x_iolib_168MHz_8MHz.a(stm32f4xx_tim.o)
                0x0801497c                TIM_SetIC3Prescaler
 .text.TIM_SetIC4Prescaler
                0x08014992       0x1a c:/project/stm32fx_iolib/stm32f4x_iolib/stm32f4x_iolib_168MHz_8MHz.a(stm32f4xx_tim.o)
                0x08014992                TIM_SetIC4Prescaler
 .text.TIM_ICInit
                0x080149ac       0xb8 c:/project/stm32fx_iolib/stm32f4x_iolib/stm32f4x_iolib_168MHz_8MHz.a(stm32f4xx_tim.o)
                0x080149ac                TIM_ICInit
 .text.TIM_ITConfig
                0x08014a64       0x12 c:/project/stm32fx_iolib/stm32f4x_iolib/stm32f4x_iolib_168MHz_8MHz.a(stm32f4xx_tim.o)
                0x08014a64                TIM_ITConfig
 .text.TIM_GetITStatus
                0x08014a76       0x16 c:/project/stm32fx_iolib/stm32f4x_iolib/stm32f4x_iolib_168MHz_8MHz.a(stm32f4xx_tim.o)
                0x08014a76                TIM_GetITStatus
 .text.TIM_ClearITPendingBit
                0x08014a8c        0x8 c:/project/stm32fx_iolib/stm32f4x_iolib/stm32f4x_iolib_168MHz_8MHz.a(stm32f4xx_tim.o)
                0x08014a8c                TIM_ClearITPendingBit
 .text.USART_DeInit
                0x08014a94       0xe8 c:/project/stm32fx_iolib/stm32f4x_iolib/stm32f4x_iolib_168MHz_8MHz.a(stm32f4xx_usart.o)
                0x08014a94                USART_DeInit
 .text.USART_Init
                0x08014b7c       0xac c:/project/stm32fx_iolib/stm32f4x_iolib/stm32f4x_iolib_168MHz_8MHz.a(stm32f4xx_usart.o)
                0x08014b7c                USART_Init
 .text.USART_Cmd
                0x08014c28       0x18 c:/project/stm32fx_iolib/stm32f4x_iolib/stm32f4x_iolib_168MHz_8MHz.a(stm32f4xx_usart.o)
                0x08014c28                USART_Cmd
 .text.USART_SendData
                0x08014c40        0x8 c:/project/stm32fx_iolib/stm32f4x_iolib/stm32f4x_iolib_168MHz_8MHz.a(stm32f4xx_usart.o)
                0x08014c40                USART_SendData
 .text.USART_ReceiveData
                0x08014c48        0x8 c:/project/stm32fx_iolib/stm32f4x_iolib/stm32f4x_iolib_168MHz_8MHz.a(stm32f4xx_usart.o)
                0x08014c48                USART_ReceiveData
 .text.USART_ITConfig
                0x08014c50       0x30 c:/project/stm32fx_iolib/stm32f4x_iolib/stm32f4x_iolib_168MHz_8MHz.a(stm32f4xx_usart.o)
                0x08014c50                USART_ITConfig
 .text.USART_GetITStatus
                0x08014c80       0x40 c:/project/stm32fx_iolib/stm32f4x_iolib/stm32f4x_iolib_168MHz_8MHz.a(stm32f4xx_usart.o)
                0x08014c80                USART_GetITStatus
 .text.USART_ClearITPendingBit
                0x08014cc0        0xe c:/project/stm32fx_iolib/stm32f4x_iolib/stm32f4x_iolib_168MHz_8MHz.a(stm32f4xx_usart.o)
                0x08014cc0                USART_ClearITPendingBit
 *fill*         0x08014cce        0x2 
 .text.FSMC_NORSRAMInit
                0x08014cd0       0xc0 c:/project/stm32fx_iolib/stm32f4x_iolib/stm32f4x_iolib_168MHz_8MHz.a(stm32f4xx_fsmc.o)
                0x08014cd0                FSMC_NORSRAMInit
 .text.FSMC_NORSRAMCmd
                0x08014d90       0x24 c:/project/stm32fx_iolib/stm32f4x_iolib/stm32f4x_iolib_168MHz_8MHz.a(stm32f4xx_fsmc.o)
                0x08014d90                FSMC_NORSRAMCmd
 .text.MP3ClearBadFrame
                0x08014db4       0x24 source/audio_codec/mp3/mp3.a(mp3dec.o)
 .text.MP3InitDecoder
                0x08014dd8        0x4 source/audio_codec/mp3/mp3.a(mp3dec.o)
                0x08014dd8                MP3InitDecoder
 .text.MP3FreeDecoder
                0x08014ddc        0x8 source/audio_codec/mp3/mp3.a(mp3dec.o)
                0x08014ddc                MP3FreeDecoder
 .text.MP3FindSyncWord
                0x08014de4       0x26 source/audio_codec/mp3/mp3.a(mp3dec.o)
                0x08014de4                MP3FindSyncWord
 *fill*         0x08014e0a        0x2 
 .text.MP3GetLastFrameInfo
                0x08014e0c       0x54 source/audio_codec/mp3/mp3.a(mp3dec.o)
                0x08014e0c                MP3GetLastFrameInfo
 .text.MP3GetNextFrameInfo
                0x08014e60       0x32 source/audio_codec/mp3/mp3.a(mp3dec.o)
                0x08014e60                MP3GetNextFrameInfo
 .text.MP3Decode
                0x08014e92      0x318 source/audio_codec/mp3/mp3.a(mp3dec.o)
                0x08014e92                MP3Decode
 *fill*         0x080151aa        0x2 
 .text.xmp3_UnpackScaleFactors
                0x080151ac      0x60c source/audio_codec/mp3/mp3.a(scalfact.o)
                0x080151ac                xmp3_UnpackScaleFactors
 .text.xmp3_Subband
                0x080157b8       0xf8 source/audio_codec/mp3/mp3.a(subband.o)
                0x080157b8                xmp3_Subband
 .text          0x080158b0      0x80e source/audio_codec/mp3/mp3.a(asmpoly_thumb2.o)
                0x080158b0                xmp3_PolyphaseStereo
                0x08015dcc                xmp3_PolyphaseMono
 .text.xmp3_SetBitstreamPointer
                0x080160be        0xc source/audio_codec/mp3/mp3.a(bitstream.o)
                0x080160be                xmp3_SetBitstreamPointer
 .text.xmp3_GetBits
                0x080160ca       0xb4 source/audio_codec/mp3/mp3.a(bitstream.o)
                0x080160ca                xmp3_GetBits
 .text.xmp3_CalcBitsUsed
                0x0801617e        0xe source/audio_codec/mp3/mp3.a(bitstream.o)
                0x0801617e                xmp3_CalcBitsUsed
 .text.xmp3_CheckPadBit
                0x0801618c       0x16 source/audio_codec/mp3/mp3.a(bitstream.o)
                0x0801618c                xmp3_CheckPadBit
 *fill*         0x080161a2        0x2 
 .text.xmp3_UnpackFrameHeader
                0x080161a4      0x1c8 source/audio_codec/mp3/mp3.a(bitstream.o)
                0x080161a4                xmp3_UnpackFrameHeader
 .text.xmp3_UnpackSideInfo
                0x0801636c      0x20a source/audio_codec/mp3/mp3.a(bitstream.o)
                0x0801636c                xmp3_UnpackSideInfo
 .text.ClearBuffer
                0x08016576        0xa source/audio_codec/mp3/mp3.a(buffers.o)
                0x08016576                ClearBuffer
 .text.xmp3_FreeBuffers
                0x08016580       0x4a source/audio_codec/mp3/mp3.a(buffers.o)
                0x08016580                xmp3_FreeBuffers
 .text.xmp3_AllocateBuffers
                0x080165ca       0xde source/audio_codec/mp3/mp3.a(buffers.o)
                0x080165ca                xmp3_AllocateBuffers
 .text.xmp3_FDCT32
                0x080166a8      0x6c8 source/audio_codec/mp3/mp3.a(dct32.o)
                0x080166a8                xmp3_FDCT32
 .text.xmp3_Dequantize
                0x08016d70      0x240 source/audio_codec/mp3/mp3.a(dequant.o)
                0x08016d70                xmp3_Dequantize
 .text.DequantBlock
                0x08016fb0      0x1a0 source/audio_codec/mp3/mp3.a(dqchan.o)
 .text.xmp3_DequantChannel
                0x08017150      0x21c source/audio_codec/mp3/mp3.a(dqchan.o)
                0x08017150                xmp3_DequantChannel
 .text.xmp3_DecodeHuffman
                0x0801736c      0x694 source/audio_codec/mp3/mp3.a(huffman.o)
                0x0801736c                xmp3_DecodeHuffman
 .text.idct9    0x08017a00      0x160 source/audio_codec/mp3/mp3.a(imdct.o)
 .text.imdct12  0x08017b60       0xb8 source/audio_codec/mp3/mp3.a(imdct.o)
 .text.WinPrevious
                0x08017c18      0x150 source/audio_codec/mp3/mp3.a(imdct.o)
 .text.FreqInvertRescale
                0x08017d68      0x170 source/audio_codec/mp3/mp3.a(imdct.o)
 .text.xmp3_IMDCT
                0x08017ed8      0x928 source/audio_codec/mp3/mp3.a(imdct.o)
                0x08017ed8                xmp3_IMDCT
 .text.xmp3_MidSideProc
                0x08018800       0x4c source/audio_codec/mp3/mp3.a(stproc.o)
                0x08018800                xmp3_MidSideProc
 .text.xmp3_IntensityProcMPEG1
                0x0801884c      0x270 source/audio_codec/mp3/mp3.a(stproc.o)
                0x0801884c                xmp3_IntensityProcMPEG1
 .text.xmp3_IntensityProcMPEG2
                0x08018abc      0x254 source/audio_codec/mp3/mp3.a(stproc.o)
                0x08018abc                xmp3_IntensityProcMPEG2
 .text          0x08018d10       0x18 source/audio_codec/mp3/mp3.a(asmmisc.o)
                0x08018d10                xmp3_MULSHIFT32
                0x08018d18                xmp3_FASTABS
 .text.swap32   0x08018d28       0x1c source/audio_codec/flac/flac.a(flacdecoder.o)
 .text.get_bits1
                0x08018d44       0x18 source/audio_codec/flac/flac.a(flacdecoder.o)
 .text.get_sbits
                0x08018d5c       0x22 source/audio_codec/flac/flac.a(flacdecoder.o)
 .text.get_bits
                0x08018d7e       0x22 source/audio_codec/flac/flac.a(flacdecoder.o)
 .text.decode_residuals
                0x08018da0      0x190 source/audio_codec/flac/flac.a(flacdecoder.o)
 .text.decode_subframe_lpc
                0x08018f30      0x178 source/audio_codec/flac/flac.a(flacdecoder.o)
                0x08018f30                decode_subframe_lpc
 .text.decode_subframe
                0x080190a8      0x1c0 source/audio_codec/flac/flac.a(flacdecoder.o)
 .text.decode_frame
                0x08019268      0x200 source/audio_codec/flac/flac.a(flacdecoder.o)
 .text.flac_seek_frame
                0x08019468       0x60 source/audio_codec/flac/flac.a(flacdecoder.o)
                0x08019468                flac_seek_frame
 .text.flac_decode_frame24
                0x080194c8      0x102 source/audio_codec/flac/flac.a(flacdecoder.o)
                0x080194c8                flac_decode_frame24
 .text.flac_decode_frame16
                0x080195ca      0x106 source/audio_codec/flac/flac.a(flacdecoder.o)
                0x080195ca                flac_decode_frame16
 .text.align_get_bits
                0x080196d0       0x10 source/audio_codec/flac/flac.a(bitstreamf.o)
                0x080196d0                align_get_bits
 .text.init_frame_decoder
                0x080196e0       0x40 source/audio_codec/ape/ape.a(apedecoder.o)
                0x080196e0                init_frame_decoder
 .text.decode_chunk
                0x08019720      0x130 source/audio_codec/ape/ape.a(apedecoder.o)
                0x08019720                decode_chunk
 .text.skip_byte
                0x08019850       0x24 source/audio_codec/ape/ape.a(entropy.o)
 .text.read_byte
                0x08019874       0x24 source/audio_codec/ape/ape.a(entropy.o)
 .text.range_dec_normalize
                0x08019898       0x30 source/audio_codec/ape/ape.a(entropy.o)
 .text.range_decode_culshift
                0x080198c8       0x20 source/audio_codec/ape/ape.a(entropy.o)
 .text.range_decode_update
                0x080198e8       0x18 source/audio_codec/ape/ape.a(entropy.o)
 .text.range_decode_short
                0x08019900       0x16 source/audio_codec/ape/ape.a(entropy.o)
 .text.update_rice
                0x08019916       0x3a source/audio_codec/ape/ape.a(entropy.o)
 .text.entropy_decode3980
                0x08019950       0xe0 source/audio_codec/ape/ape.a(entropy.o)
 .text.entropy_decode3970
                0x08019a30       0xa0 source/audio_codec/ape/ape.a(entropy.o)
 .text.init_entropy_decoder
                0x08019ad0       0xdc source/audio_codec/ape/ape.a(entropy.o)
                0x08019ad0                init_entropy_decoder
 .text.entropy_decode
                0x08019bac       0xdc source/audio_codec/ape/ape.a(entropy.o)
                0x08019bac                entropy_decode
 .text.vector_add
                0x08019c88       0x82 source/audio_codec/ape/ape.a(filter_16_11.o)
 .text.vector_sub
                0x08019d0a       0x82 source/audio_codec/ape/ape.a(filter_16_11.o)
 .text.scalarproduct
                0x08019d8c       0x84 source/audio_codec/ape/ape.a(filter_16_11.o)
 .text.init_filter_16_11
                0x08019e10       0x4c source/audio_codec/ape/ape.a(filter_16_11.o)
                0x08019e10                init_filter_16_11
 .text.apply_filter_16_11
                0x08019e5c      0x21c source/audio_codec/ape/ape.a(filter_16_11.o)
                0x08019e5c                apply_filter_16_11
 .text.vector_add
                0x0801a078      0x1d4 source/audio_codec/ape/ape.a(filter_64_11.o)
 .text.vector_sub
                0x0801a24c      0x1d4 source/audio_codec/ape/ape.a(filter_64_11.o)
 .text.scalarproduct
                0x0801a420      0x198 source/audio_codec/ape/ape.a(filter_64_11.o)
 .text.init_filter_64_11
                0x0801a5b8       0x50 source/audio_codec/ape/ape.a(filter_64_11.o)
                0x0801a5b8                init_filter_64_11
 .text.apply_filter_64_11
                0x0801a608      0x220 source/audio_codec/ape/ape.a(filter_64_11.o)
                0x0801a608                apply_filter_64_11
 .text.read_uint16
                0x0801a828       0x24 source/audio_codec/ape/ape.a(parser.o)
 .text.read_uint32
                0x0801a84c       0x22 source/audio_codec/ape/ape.a(parser.o)
 *fill*         0x0801a86e        0x2 
 .text.ape_parseheader
                0x0801a870      0x310 source/audio_codec/ape/ape.a(parser.o)
                0x0801a870                ape_parseheader
 .text.init_predictor_decoder
                0x0801ab80       0x74 source/audio_codec/ape/ape.a(predictor.o)
                0x0801ab80                init_predictor_decoder
 .text          0x0801abf4      0x422 source/audio_codec/ape/ape.a(predictor-arm.o)
                0x0801abf4                predictor_decode_stereo
                0x0801af0e                predictor_decode_mono
 *fill*         0x0801b016        0x2 
 .text.abort    0x0801b018       0x10 c:/program files (x86)/arm gnu toolchain arm-none-eabi/12.2 mpacbti-rel1/bin/../lib/gcc/arm-none-eabi/12.2.1/thumb/v7e-m+fp/hard\libc.a(libc_a-abort.o)
                0x0801b018                abort
 .text.malloc   0x0801b028       0x10 c:/program files (x86)/arm gnu toolchain arm-none-eabi/12.2 mpacbti-rel1/bin/../lib/gcc/arm-none-eabi/12.2.1/thumb/v7e-m+fp/hard\libc.a(libc_a-malloc.o)
                0x0801b028                malloc
 .text.free     0x0801b038       0x10 c:/program files (x86)/arm gnu toolchain arm-none-eabi/12.2 mpacbti-rel1/bin/../lib/gcc/arm-none-eabi/12.2.1/thumb/v7e-m+fp/hard\libc.a(libc_a-malloc.o)
                0x0801b038                free
 .text._malloc_r
                0x0801b048      0x574 c:/program files (x86)/arm gnu toolchain arm-none-eabi/12.2 mpacbti-rel1/bin/../lib/gcc/arm-none-eabi/12.2.1/thumb/v7e-m+fp/hard\libc.a(libc_a-mallocr.o)
                0x0801b048                _malloc_r
 .text.__malloc_lock
                0x0801b5bc        0xc c:/program files (x86)/arm gnu toolchain arm-none-eabi/12.2 mpacbti-rel1/bin/../lib/gcc/arm-none-eabi/12.2.1/thumb/v7e-m+fp/hard\libc.a(libc_a-mlock.o)
                0x0801b5bc                __malloc_lock
 .text.__malloc_unlock
                0x0801b5c8        0xc c:/program files (x86)/arm gnu toolchain arm-none-eabi/12.2 mpacbti-rel1/bin/../lib/gcc/arm-none-eabi/12.2.1/thumb/v7e-m+fp/hard\libc.a(libc_a-mlock.o)
                0x0801b5c8                __malloc_unlock
 .text.rand     0x0801b5d4       0x40 c:/program files (x86)/arm gnu toolchain arm-none-eabi/12.2 mpacbti-rel1/bin/../lib/gcc/arm-none-eabi/12.2.1/thumb/v7e-m+fp/hard\libc.a(libc_a-rand.o)
                0x0801b5d4                rand
 .text.memcmp   0x0801b614       0x60 c:/program files (x86)/arm gnu toolchain arm-none-eabi/12.2 mpacbti-rel1/bin/../lib/gcc/arm-none-eabi/12.2.1/thumb/v7e-m+fp/hard\libc.a(libc_a-memcmp.o)
                0x0801b614                memcmp
 .text.memmove  0x0801b674      0x100 c:/program files (x86)/arm gnu toolchain arm-none-eabi/12.2 mpacbti-rel1/bin/../lib/gcc/arm-none-eabi/12.2.1/thumb/v7e-m+fp/hard\libc.a(libc_a-memmove.o)
                0x0801b674                memmove
 .text.memset   0x0801b774       0xa4 c:/program files (x86)/arm gnu toolchain arm-none-eabi/12.2 mpacbti-rel1/bin/../lib/gcc/arm-none-eabi/12.2.1/thumb/v7e-m+fp/hard\libc.a(libc_a-memset.o)
                0x0801b774                memset
 .text.strcasecmp
                0x0801b818       0x4c c:/program files (x86)/arm gnu toolchain arm-none-eabi/12.2 mpacbti-rel1/bin/../lib/gcc/arm-none-eabi/12.2.1/thumb/v7e-m+fp/hard\libc.a(libc_a-strcasecmp.o)
                0x0801b818                strcasecmp
 .text.strcat   0x0801b864       0x40 c:/program files (x86)/arm gnu toolchain arm-none-eabi/12.2 mpacbti-rel1/bin/../lib/gcc/arm-none-eabi/12.2.1/thumb/v7e-m+fp/hard\libc.a(libc_a-strcat.o)
                0x0801b864                strcat
 .text.strncmp  0x0801b8a4       0x84 c:/program files (x86)/arm gnu toolchain arm-none-eabi/12.2 mpacbti-rel1/bin/../lib/gcc/arm-none-eabi/12.2.1/thumb/v7e-m+fp/hard\libc.a(libc_a-strncmp.o)
                0x0801b8a4                strncmp
 .text.strncpy  0x0801b928       0x68 c:/program files (x86)/arm gnu toolchain arm-none-eabi/12.2 mpacbti-rel1/bin/../lib/gcc/arm-none-eabi/12.2.1/thumb/v7e-m+fp/hard\libc.a(libc_a-strncpy.o)
                0x0801b928                strncpy
 .text.raise    0x0801b990       0x58 c:/program files (x86)/arm gnu toolchain arm-none-eabi/12.2 mpacbti-rel1/bin/../lib/gcc/arm-none-eabi/12.2.1/thumb/v7e-m+fp/hard\libc.a(libc_a-signal.o)
                0x0801b990                raise
 .text._kill_r  0x0801b9e8       0x2c c:/program files (x86)/arm gnu toolchain arm-none-eabi/12.2 mpacbti-rel1/bin/../lib/gcc/arm-none-eabi/12.2.1/thumb/v7e-m+fp/hard\libc.a(libc_a-signalr.o)
                0x0801b9e8                _kill_r
 .text._getpid_r
                0x0801ba14        0x4 c:/program files (x86)/arm gnu toolchain arm-none-eabi/12.2 mpacbti-rel1/bin/../lib/gcc/arm-none-eabi/12.2.1/thumb/v7e-m+fp/hard\libc.a(libc_a-signalr.o)
                0x0801ba14                _getpid_r
 .text._sbrk_r  0x0801ba18       0x24 c:/program files (x86)/arm gnu toolchain arm-none-eabi/12.2 mpacbti-rel1/bin/../lib/gcc/arm-none-eabi/12.2.1/thumb/v7e-m+fp/hard\libc.a(libc_a-sbrkr.o)
                0x0801ba18                _sbrk_r
 .text.__errno  0x0801ba3c        0xc c:/program files (x86)/arm gnu toolchain arm-none-eabi/12.2 mpacbti-rel1/bin/../lib/gcc/arm-none-eabi/12.2.1/thumb/v7e-m+fp/hard\libc.a(libc_a-errno.o)
                0x0801ba3c                __errno
 .text.__retarget_lock_acquire_recursive
                0x0801ba48        0x4 c:/program files (x86)/arm gnu toolchain arm-none-eabi/12.2 mpacbti-rel1/bin/../lib/gcc/arm-none-eabi/12.2.1/thumb/v7e-m+fp/hard\libc.a(libc_a-lock.o)
                0x0801ba48                __retarget_lock_acquire_recursive
 .text.__retarget_lock_release_recursive
                0x0801ba4c        0x4 c:/program files (x86)/arm gnu toolchain arm-none-eabi/12.2 mpacbti-rel1/bin/../lib/gcc/arm-none-eabi/12.2.1/thumb/v7e-m+fp/hard\libc.a(libc_a-lock.o)
                0x0801ba4c                __retarget_lock_release_recursive
 .text.sysconf  0x0801ba50       0x1c c:/program files (x86)/arm gnu toolchain arm-none-eabi/12.2 mpacbti-rel1/bin/../lib/gcc/arm-none-eabi/12.2.1/thumb/v7e-m+fp/hard\libc.a(libc_a-sysconf.o)
                0x0801ba50                sysconf
 .text.strcpy   0x0801ba6c       0xbc c:/program files (x86)/arm gnu toolchain arm-none-eabi/12.2 mpacbti-rel1/bin/../lib/gcc/arm-none-eabi/12.2.1/thumb/v7e-m+fp/hard\libc.a(libc_a-strcpy.o)
                0x0801ba6c                strcpy
 .text          0x0801bb28      0x134 c:/program files (x86)/arm gnu toolchain arm-none-eabi/12.2 mpacbti-rel1/bin/../lib/gcc/arm-none-eabi/12.2.1/thumb/v7e-m+fp/hard\libc.a(libc_a-memcpy.o)
                0x0801bb28                memcpy
 *fill*         0x0801bc5c       0x24 
 .text          0x0801bc80       0xd8 c:/program files (x86)/arm gnu toolchain arm-none-eabi/12.2 mpacbti-rel1/bin/../lib/gcc/arm-none-eabi/12.2.1/thumb/v7e-m+fp/hard\libc.a(libc_a-strlen.o)
                0x0801bc80                strlen
 .text._malloc_trim_r
                0x0801bd58       0xb8 c:/program files (x86)/arm gnu toolchain arm-none-eabi/12.2 mpacbti-rel1/bin/../lib/gcc/arm-none-eabi/12.2.1/thumb/v7e-m+fp/hard\libc.a(libc_a-freer.o)
                0x0801bd58                _malloc_trim_r
 .text._free_r  0x0801be10      0x1fc c:/program files (x86)/arm gnu toolchain arm-none-eabi/12.2 mpacbti-rel1/bin/../lib/gcc/arm-none-eabi/12.2.1/thumb/v7e-m+fp/hard\libc.a(libc_a-freer.o)
                0x0801be10                _free_r
 .text.sqrt     0x0801c00c       0x68 c:/program files (x86)/arm gnu toolchain arm-none-eabi/12.2 mpacbti-rel1/bin/../lib/gcc/arm-none-eabi/12.2.1/thumb/v7e-m+fp/hard\libm.a(libm_a-w_sqrt.o)
                0x0801c00c                sqrt
 .text.__ieee754_sqrt
                0x0801c074      0x1f4 c:/program files (x86)/arm gnu toolchain arm-none-eabi/12.2 mpacbti-rel1/bin/../lib/gcc/arm-none-eabi/12.2.1/thumb/v7e-m+fp/hard\libm.a(libm_a-e_sqrt.o)
                0x0801c074                __ieee754_sqrt
 .text          0x0801c268      0x378 c:/program files (x86)/arm gnu toolchain arm-none-eabi/12.2 mpacbti-rel1/bin/../lib/gcc/arm-none-eabi/12.2.1/thumb/v7e-m+fp/hard\libgcc.a(_arm_addsubdf3.o)
                0x0801c268                __aeabi_drsub
                0x0801c270                __aeabi_dsub
                0x0801c270                __subdf3
                0x0801c274                __aeabi_dadd
                0x0801c274                __adddf3
                0x0801c4ec                __floatunsidf
                0x0801c4ec                __aeabi_ui2d
                0x0801c50c                __floatsidf
                0x0801c50c                __aeabi_i2d
                0x0801c530                __aeabi_f2d
                0x0801c530                __extendsfdf2
                0x0801c574                __floatundidf
                0x0801c574                __aeabi_ul2d
                0x0801c584                __floatdidf
                0x0801c584                __aeabi_l2d
 .text          0x0801c5e0      0x424 c:/program files (x86)/arm gnu toolchain arm-none-eabi/12.2 mpacbti-rel1/bin/../lib/gcc/arm-none-eabi/12.2.1/thumb/v7e-m+fp/hard\libgcc.a(_arm_muldivdf3.o)
                0x0801c5e0                __aeabi_dmul
                0x0801c5e0                __muldf3
                0x0801c834                __divdf3
                0x0801c834                __aeabi_ddiv
 .text          0x0801ca04      0x110 c:/program files (x86)/arm gnu toolchain arm-none-eabi/12.2 mpacbti-rel1/bin/../lib/gcc/arm-none-eabi/12.2.1/thumb/v7e-m+fp/hard\libgcc.a(_arm_cmpdf2.o)
                0x0801ca04                __gtdf2
                0x0801ca04                __gedf2
                0x0801ca0c                __ltdf2
                0x0801ca0c                __ledf2
                0x0801ca14                __nedf2
                0x0801ca14                __eqdf2
                0x0801ca14                __cmpdf2
                0x0801ca90                __aeabi_cdrcmple
                0x0801caa0                __aeabi_cdcmpeq
                0x0801caa0                __aeabi_cdcmple
                0x0801cab0                __aeabi_dcmpeq
                0x0801cac4                __aeabi_dcmplt
                0x0801cad8                __aeabi_dcmple
                0x0801caec                __aeabi_dcmpge
                0x0801cb00                __aeabi_dcmpgt
 .text          0x0801cb14       0x2c c:/program files (x86)/arm gnu toolchain arm-none-eabi/12.2 mpacbti-rel1/bin/../lib/gcc/arm-none-eabi/12.2.1/thumb/v7e-m+fp/hard\libgcc.a(_arm_unorddf2.o)
                0x0801cb14                __unorddf2
                0x0801cb14                __aeabi_dcmpun
 .text          0x0801cb40       0x50 c:/program files (x86)/arm gnu toolchain arm-none-eabi/12.2 mpacbti-rel1/bin/../lib/gcc/arm-none-eabi/12.2.1/thumb/v7e-m+fp/hard\libgcc.a(_arm_fixdfsi.o)
                0x0801cb40                __aeabi_d2iz
                0x0801cb40                __fixdfsi
 .text          0x0801cb90       0x40 c:/program files (x86)/arm gnu toolchain arm-none-eabi/12.2 mpacbti-rel1/bin/../lib/gcc/arm-none-eabi/12.2.1/thumb/v7e-m+fp/hard\libgcc.a(_arm_fixunsdfsi.o)
                0x0801cb90                __aeabi_d2uiz
                0x0801cb90                __fixunsdfsi
 .text          0x0801cbd0       0xa0 c:/program files (x86)/arm gnu toolchain arm-none-eabi/12.2 mpacbti-rel1/bin/../lib/gcc/arm-none-eabi/12.2.1/thumb/v7e-m+fp/hard\libgcc.a(_aeabi_ldivmod.o)
                0x0801cbd0                __aeabi_ldivmod
 .text          0x0801cc70       0x30 c:/program files (x86)/arm gnu toolchain arm-none-eabi/12.2 mpacbti-rel1/bin/../lib/gcc/arm-none-eabi/12.2.1/thumb/v7e-m+fp/hard\libgcc.a(_aeabi_uldivmod.o)
                0x0801cc70                __aeabi_uldivmod
 .text.__udivmoddi4
                0x0801cca0      0x2bc c:/program files (x86)/arm gnu toolchain arm-none-eabi/12.2 mpacbti-rel1/bin/../lib/gcc/arm-none-eabi/12.2.1/thumb/v7e-m+fp/hard\libgcc.a(_udivmoddi4.o)
                0x0801cca0                __udivmoddi4
 .text          0x0801cf5c        0x4 c:/program files (x86)/arm gnu toolchain arm-none-eabi/12.2 mpacbti-rel1/bin/../lib/gcc/arm-none-eabi/12.2.1/thumb/v7e-m+fp/hard\libgcc.a(_dvmd_tls.o)
                0x0801cf5c                __aeabi_idiv0
                0x0801cf5c                __aeabi_ldiv0
 *(.plt)
 *(.gnu.warning)
 *(.glue_7t)
 .glue_7t       0x0801cf60        0x0 linker stubs
 *(.glue_7)
 .glue_7        0x0801cf60        0x0 linker stubs
 *(.vfp11_veneer)
 .vfp11_veneer  0x0801cf60        0x0 linker stubs
 *(.ARM.extab* .gnu.linkonce.armextab.*)
 *(.gcc_except_table)

.v4_bx          0x0801cf60        0x0
 .v4_bx         0x0801cf60        0x0 linker stubs

.iplt           0x0801cf60        0x0
 .iplt          0x0801cf60        0x0 FLASH_RUN/main.o

.eh_frame_hdr
 *(.eh_frame_hdr)

.eh_frame       0x0801cf60       0x4c
 *(.eh_frame)
 .eh_frame      0x0801cf60       0x2c c:/program files (x86)/arm gnu toolchain arm-none-eabi/12.2 mpacbti-rel1/bin/../lib/gcc/arm-none-eabi/12.2.1/thumb/v7e-m+fp/hard\libc.a(libc_a-memcpy.o)
 .eh_frame      0x0801cf8c       0x20 c:/program files (x86)/arm gnu toolchain arm-none-eabi/12.2 mpacbti-rel1/bin/../lib/gcc/arm-none-eabi/12.2.1/thumb/v7e-m+fp/hard\libc.a(libc_a-strlen.o)
                                 0x34 (size before relaxing)
                0x0801cfac                        __exidx_start = .

.ARM.exidx      0x0801cfac        0x8
 *(.ARM.exidx* .gnu.linkonce.armexidx.*)
 .ARM.exidx     0x0801cfac        0x8 c:/program files (x86)/arm gnu toolchain arm-none-eabi/12.2 mpacbti-rel1/bin/../lib/gcc/arm-none-eabi/12.2.1/thumb/v7e-m+fp/hard\libc.a(libc_a-memcpy.o)
 .ARM.exidx     0x0801cfb4        0x0 c:/program files (x86)/arm gnu toolchain arm-none-eabi/12.2 mpacbti-rel1/bin/../lib/gcc/arm-none-eabi/12.2.1/thumb/v7e-m+fp/hard\libc.a(libc_a-strlen.o)
                                  0x8 (size before relaxing)
 .ARM.exidx.text.__udivmoddi4
                0x0801cfb4        0x0 c:/program files (x86)/arm gnu toolchain arm-none-eabi/12.2 mpacbti-rel1/bin/../lib/gcc/arm-none-eabi/12.2.1/thumb/v7e-m+fp/hard\libgcc.a(_udivmoddi4.o)
                                  0x8 (size before relaxing)
                0x0801cfb4                        __exidx_end = .

.rodata         0x0801cfb4    0x2a1e4
 *(.rodata .rodata.* .gnu.linkonce.r.*)
 .rodata.tick_process.str1.1
                0x0801cfb4        0xd FLASH_RUN/main.o
 .rodata.main.str1.1
                0x0801cfc1       0xea FLASH_RUN/main.o
                                0x14f (size before relaxing)
 .rodata.LCD_Init.str1.1
                0x0801d0ab       0x1b FLASH_RUN/lcd.o
 .rodata.loc3   0x0801d0c6        0x8 FLASH_RUN/lcd.o
                0x0801d0c6                loc3
 .rodata.loc2   0x0801d0ce        0x8 FLASH_RUN/lcd.o
                0x0801d0ce                loc2
 .rodata.loc1   0x0801d0d6       0x10 FLASH_RUN/lcd.o
                0x0801d0d6                loc1
 .rodata.han_tbl
                0x0801d0e6       0x60 FLASH_RUN/lcd.o
                0x0801d0e6                han_tbl
 .rodata.s_bit  0x0801d146        0x8 FLASH_RUN/lcd.o
                0x0801d146                s_bit
 .rodata.KS_CODE
                0x0801d14e     0x12c0 FLASH_RUN/lcd.o
                0x0801d14e                KS_CODE
 .rodata.kor_font
                0x0801e40e     0x2d00 FLASH_RUN/lcd.o
                0x0801e40e                kor_font
 .rodata.eng_font
                0x0802110e      0x800 FLASH_RUN/lcd.o
                0x0802110e                eng_font
 .rodata.__vfprintf.str1.1
                0x0802190e       0x30 FLASH_RUN/print.o
                                 0x33 (size before relaxing)
 .rodata.TP_Adj_Info_Show.str1.1
                0x0802193e       0x4d FLASH_RUN/touch_panel.o
 .rodata.TP_Adjust.str1.1
                0x0802198b       0x51 FLASH_RUN/touch_panel.o
 .rodata.ir_process.str1.1
                0x080219dc        0x6 FLASH_RUN/ir_remocon.o
 .rodata.I2S_PSC_TBL
                0x080219dc       0x6e FLASH_RUN/i2s.o
                0x080219dc                I2S_PSC_TBL
 .rodata.follow_path.str1.1
                0x08021a4a       0x10 FLASH_RUN/ff.o
 .rodata.LfnOfs
                0x08021a5a        0xd FLASH_RUN/ff.o
 *fill*         0x08021a67        0x1 
 .rodata.tbl_upper.0
                0x08021a68      0x1e0 FLASH_RUN/cc949.o
 .rodata.tbl_lower.1
                0x08021c48      0x1e0 FLASH_RUN/cc949.o
 .rodata.oem2uni
                0x08021e28    0x10a64 FLASH_RUN/cc949.o
 .rodata.uni2oem
                0x0803288c    0x10a64 FLASH_RUN/cc949.o
 .rodata._exit.str1.1
                0x080432f0       0x20 FLASH_RUN/audio.o
 .rodata._sbrk.str1.1
                0x08043310       0x1a FLASH_RUN/audio.o
 .rodata.audio_file_list.str1.1
                0x0804332a        0x9 FLASH_RUN/audio.o
                                 0x46 (size before relaxing)
 .rodata.find_music.str1.1
                0x08043333       0x10 FLASH_RUN/audio.o
 .rodata.audio_init.str1.1
                0x08043343       0x1c FLASH_RUN/audio.o
 .rodata.music_start.str1.1
                0x0804335f       0x4b FLASH_RUN/audio.o
 .rodata.audio_process.str1.1
                0x080433aa       0x31 FLASH_RUN/audio.o
                                 0x5a (size before relaxing)
 .rodata.str1.1
                0x080433db       0x11 FLASH_RUN/audio.o
 .rodata.mp3_id3v1_decode.str1.1
                0x080433ec        0x4 FLASH_RUN/mp3play.o
 .rodata.mp3_id3v2_decode.str1.1
                0x080433f0       0x2f FLASH_RUN/mp3play.o
 .rodata.mp3_get_info.str1.1
                0x0804341f        0xf FLASH_RUN/mp3play.o
 .rodata.mp3_play_song.str1.1
                0x0804342e       0x52 FLASH_RUN/mp3play.o
                                 0x5f (size before relaxing)
 .rodata.mp3_play.str1.1
                0x08043480       0x2b FLASH_RUN/mp3play.o
 .rodata.wav_decode_init.str1.1
                0x080434ab       0x61 FLASH_RUN/wavplay.o
                                 0x98 (size before relaxing)
 .rodata.wave_play.str1.1
                0x0804350c       0x19 FLASH_RUN/wavplay.o
 .rodata.flac_init.str1.1
                0x0804350c        0x5 FLASH_RUN/flacplay.o
 .rodata.flac_play_song.str1.1
                0x08043511       0x97 FLASH_RUN/flacplay.o
                                 0xbe (size before relaxing)
 .rodata.flac_play.str1.1
                0x080435a8       0x15 FLASH_RUN/flacplay.o
                                 0x2e (size before relaxing)
 .rodata.ape_play_song.str1.1
                0x080435bd       0x23 FLASH_RUN/apeplay.o
                                 0x81 (size before relaxing)
 .rodata.ape_play.str1.1
                0x080435e0       0x29 FLASH_RUN/apeplay.o
                                 0x42 (size before relaxing)
 *fill*         0x08043609        0x1 
 .rodata.xmp3_bitrateTab
                0x0804360a      0x10e source/audio_codec/mp3/mp3.a(mp3tabs.o)
                0x0804360a                xmp3_bitrateTab
 .rodata.xmp3_samplerateTab
                0x08043718       0x24 source/audio_codec/mp3/mp3.a(mp3tabs.o)
                0x08043718                xmp3_samplerateTab
 .rodata.xmp3_samplesPerFrameTab
                0x0804373c       0x12 source/audio_codec/mp3/mp3.a(mp3tabs.o)
                0x0804373c                xmp3_samplesPerFrameTab
 .rodata.xmp3_sfBandTable
                0x0804374e      0x29a source/audio_codec/mp3/mp3.a(mp3tabs.o)
                0x0804374e                xmp3_sfBandTable
 .rodata.xmp3_sideBytesTab
                0x080439e8        0xc source/audio_codec/mp3/mp3.a(mp3tabs.o)
                0x080439e8                xmp3_sideBytesTab
 .rodata.xmp3_slotTab
                0x080439f4      0x10e source/audio_codec/mp3/mp3.a(mp3tabs.o)
                0x080439f4                xmp3_slotTab
 .rodata.NRTab  0x08043b02       0x48 source/audio_codec/mp3/mp3.a(scalfact.o)
 .rodata.SFLenTab
                0x08043b4a       0x20 source/audio_codec/mp3/mp3.a(scalfact.o)
 *fill*         0x08043b6a        0x2 
 .rodata.xmp3_ISFIIP
                0x08043b6c       0x10 source/audio_codec/mp3/mp3.a(trigtabs.o)
                0x08043b6c                xmp3_ISFIIP
 .rodata.xmp3_ISFMpeg1
                0x08043b7c       0x38 source/audio_codec/mp3/mp3.a(trigtabs.o)
                0x08043b7c                xmp3_ISFMpeg1
 .rodata.xmp3_ISFMpeg2
                0x08043bb4      0x100 source/audio_codec/mp3/mp3.a(trigtabs.o)
                0x08043bb4                xmp3_ISFMpeg2
 .rodata.xmp3_csa
                0x08043cb4       0x40 source/audio_codec/mp3/mp3.a(trigtabs.o)
                0x08043cb4                xmp3_csa
 .rodata.xmp3_imdctWin
                0x08043cf4      0x240 source/audio_codec/mp3/mp3.a(trigtabs.o)
                0x08043cf4                xmp3_imdctWin
 .rodata.xmp3_polyCoef
                0x08043f34      0x420 source/audio_codec/mp3/mp3.a(trigtabs.o)
                0x08043f34                xmp3_polyCoef
 .rodata.dcttab
                0x08044354       0xc0 source/audio_codec/mp3/mp3.a(dct32.o)
 .rodata.poly43hi
                0x08044414       0x14 source/audio_codec/mp3/mp3.a(dqchan.o)
 .rodata.poly43lo
                0x08044428       0x14 source/audio_codec/mp3/mp3.a(dqchan.o)
 .rodata.pow14  0x0804443c       0x10 source/audio_codec/mp3/mp3.a(dqchan.o)
 .rodata.pow2exp
                0x0804444c       0x20 source/audio_codec/mp3/mp3.a(dqchan.o)
 .rodata.pow2frac
                0x0804446c       0x20 source/audio_codec/mp3/mp3.a(dqchan.o)
 .rodata.pow43  0x0804448c       0xc0 source/audio_codec/mp3/mp3.a(dqchan.o)
 .rodata.pow43_14
                0x0804454c      0x100 source/audio_codec/mp3/mp3.a(dqchan.o)
 .rodata.preTab
                0x0804464c       0x16 source/audio_codec/mp3/mp3.a(dqchan.o)
 *fill*         0x08044662        0x2 
 .rodata.xmp3_huffTabLookup
                0x08044664      0x100 source/audio_codec/mp3/mp3.a(hufftabs.o)
                0x08044664                xmp3_huffTabLookup
 .rodata.xmp3_huffTabOffset
                0x08044764       0x80 source/audio_codec/mp3/mp3.a(hufftabs.o)
                0x08044764                xmp3_huffTabOffset
 .rodata.xmp3_huffTable
                0x080447e4     0x2124 source/audio_codec/mp3/mp3.a(hufftabs.o)
                0x080447e4                xmp3_huffTable
 .rodata.xmp3_quadTabMaxBits
                0x08046908        0x8 source/audio_codec/mp3/mp3.a(hufftabs.o)
                0x08046908                xmp3_quadTabMaxBits
 .rodata.xmp3_quadTabOffset
                0x08046910        0x8 source/audio_codec/mp3/mp3.a(hufftabs.o)
                0x08046910                xmp3_quadTabOffset
 .rodata.xmp3_quadTable
                0x08046918       0x50 source/audio_codec/mp3/mp3.a(hufftabs.o)
                0x08046918                xmp3_quadTable
 .rodata.c18    0x08046968       0x24 source/audio_codec/mp3/mp3.a(imdct.o)
 .rodata.fastWin36
                0x0804698c       0x48 source/audio_codec/mp3/mp3.a(imdct.o)
 .rodata.blocksize_table
                0x080469d4       0x40 source/audio_codec/flac/flac.a(flacdecoder.o)
 .rodata.sample_rate_table
                0x08046a14       0x40 source/audio_codec/flac/flac.a(flacdecoder.o)
 .rodata.sample_size_table
                0x08046a54       0x20 source/audio_codec/flac/flac.a(flacdecoder.o)
 .rodata.table_crc8
                0x08046a74      0x100 source/audio_codec/flac/flac.a(flacdecoder.o)
 .rodata.ff_log2_tab
                0x08046b74      0x100 source/audio_codec/flac/flac.a(tables.o)
                0x08046b74                ff_log2_tab
 .rodata.counts_3970
                0x08046c74      0x104 source/audio_codec/ape/ape.a(entropy.o)
 .rodata.counts_3980
                0x08046d78      0x104 source/audio_codec/ape/ape.a(entropy.o)
 .rodata.counts_diff_3970
                0x08046e7c      0x100 source/audio_codec/ape/ape.a(entropy.o)
 .rodata.counts_diff_3980
                0x08046f7c      0x100 source/audio_codec/ape/ape.a(entropy.o)
 .rodata.ape_parseheaderbuf.str1.1
                0x0804707c        0x5 source/audio_codec/ape/ape.a(parser.o)
 *fill*         0x08047081        0x3 
 .rodata.initial_coeffs
                0x08047084       0x10 source/audio_codec/ape/ape.a(predictor.o)
 .rodata._ctype_
                0x08047094      0x101 c:/program files (x86)/arm gnu toolchain arm-none-eabi/12.2 mpacbti-rel1/bin/../lib/gcc/arm-none-eabi/12.2.1/thumb/v7e-m+fp/hard\libc.a(libc_a-ctype_.o)
                0x08047094                _ctype_
                0x08047198                        . = ALIGN (0x4)
 *fill*         0x08047195        0x3 
 *(.init)
                0x08047198                        . = ALIGN (0x4)
                0x08047198                        __preinit_array_start = .
 *(.preinit_array)
                0x08047198                        __preinit_array_end = .
                0x08047198                        . = ALIGN (0x4)
                0x08047198                        __init_array_start = .
 *(SORT_BY_NAME(.init_array.*))
 *(.init_array)
                0x08047198                        __init_array_end = .
                0x08047198                        . = ALIGN (0x4)
 *(.fini)
                0x08047198                        . = ALIGN (0x4)
                0x08047198                        __fini_array_start = .
 *(.fini_array)
 *(SORT_BY_NAME(.fini_array.*))
                0x08047198                        __fini_array_end = .
                0x08047198                        . = ALIGN (0x4)
 *crtbegin.o(.ctors)
 *(EXCLUDE_FILE(*crtend.o) .ctors)
 *(SORT_BY_NAME(.ctors.*))
 *crtend.o(.ctors)
                0x08047198                        . = ALIGN (0x4)
 *crtbegin.o(.dtors)
 *(EXCLUDE_FILE(*crtend.o) .dtors)
 *(SORT_BY_NAME(.dtors.*))
 *crtend.o(.dtors)
 *(.init .init.*)
 *(.fini .fini.*)
                [!provide]                        PROVIDE (__preinit_array_start = .)
 *(.preinit_array)
                [!provide]                        PROVIDE (__preinit_array_end = .)
                [!provide]                        PROVIDE (__init_array_start = .)
 *(SORT_BY_NAME(.init_array.*))
 *(.init_array)
                [!provide]                        PROVIDE (__init_array_end = .)
                [!provide]                        PROVIDE (__fini_array_start = .)
 *(.fini_array)
 *(SORT_BY_NAME(.fini_array.*))
                [!provide]                        PROVIDE (__fini_array_end = .)
                0x08047198                        . = ALIGN (0x8)
 *fill*         0x08047198        0x0 
 *(.rom)
 *(.rom.b)
                0x08047198                        _etext = .
                0x08047198                        _sidata = _etext

.rel.dyn        0x08047198        0x0
 .rel.iplt      0x08047198        0x0 FLASH_RUN/main.o

.data           0x20000000      0x6ac load address 0x08047198
                0x20000000                        _sdata = .
                0x20000000                        . = ALIGN (0x80)
                0x00000000                        _isr_vectorsram_offs = (. - 0x20000000)
 *(.isr_vectorsram)
                0x20000000                        . = ALIGN (0x4)
 *(.jcr)
 *(.got.plt)
 *(.got)
 *(.shdata)
 *(.data .data.* .gnu.linkonce.d.*)
 .data.I2C1_PORT
                0x20000000        0x1 FLASH_RUN/i2c_app.o
                0x20000000                I2C1_PORT
 .data.CMD_RDY  0x20000001        0x1 FLASH_RUN/touch_panel.o
                0x20000001                CMD_RDY
 .data.CMD_RDX  0x20000002        0x1 FLASH_RUN/touch_panel.o
                0x20000002                CMD_RDX
 *fill*         0x20000003        0x1 
 .data.WM8978_REGVAL_TBL
                0x20000004       0x74 FLASH_RUN/wm8978.o
 .data.wm8978set
                0x20000078        0xe FLASH_RUN/wm8978.o
                0x20000078                wm8978set
 .data.DeviceMode
                0x20000086        0x1 FLASH_RUN/sdio_sdcard.o
 *fill*         0x20000087        0x1 
 .data.music_extend
                0x20000088       0x10 FLASH_RUN/audio.o
                0x20000088                music_extend
 .data.SystemCoreClock
                0x20000098        0x4 c:/project/stm32fx_iolib/stm32f4x_iolib/stm32f4x_iolib_168MHz_8MHz.a(system_stm32f4xx.o)
                0x20000098                SystemCoreClock
 .data.APBAHBPrescTable
                0x2000009c       0x10 c:/project/stm32fx_iolib/stm32f4x_iolib/stm32f4x_iolib_168MHz_8MHz.a(stm32f4xx_rcc.o)
 .data.__malloc_sbrk_base
                0x200000ac        0x4 c:/program files (x86)/arm gnu toolchain arm-none-eabi/12.2 mpacbti-rel1/bin/../lib/gcc/arm-none-eabi/12.2.1/thumb/v7e-m+fp/hard\libc.a(libc_a-mallocr.o)
                0x200000ac                __malloc_sbrk_base
 .data.__malloc_trim_threshold
                0x200000b0        0x4 c:/program files (x86)/arm gnu toolchain arm-none-eabi/12.2 mpacbti-rel1/bin/../lib/gcc/arm-none-eabi/12.2.1/thumb/v7e-m+fp/hard\libc.a(libc_a-mallocr.o)
                0x200000b0                __malloc_trim_threshold
 *fill*         0x200000b4        0x4 
 .data.__malloc_av_
                0x200000b8      0x408 c:/program files (x86)/arm gnu toolchain arm-none-eabi/12.2 mpacbti-rel1/bin/../lib/gcc/arm-none-eabi/12.2.1/thumb/v7e-m+fp/hard\libc.a(libc_a-mallocr.o)
                0x200000b8                __malloc_av_
 .data._impure_ptr
                0x200004c0        0x4 c:/program files (x86)/arm gnu toolchain arm-none-eabi/12.2 mpacbti-rel1/bin/../lib/gcc/arm-none-eabi/12.2.1/thumb/v7e-m+fp/hard\libc.a(libc_a-impure.o)
                0x200004c0                _impure_ptr
 *fill*         0x200004c4        0x4 
 .data._impure_data
                0x200004c8      0x120 c:/program files (x86)/arm gnu toolchain arm-none-eabi/12.2 mpacbti-rel1/bin/../lib/gcc/arm-none-eabi/12.2.1/thumb/v7e-m+fp/hard\libc.a(libc_a-impure.o)
                0x200004c8                _impure_data
 .data.tiny     0x200005e8        0x8 c:/program files (x86)/arm gnu toolchain arm-none-eabi/12.2 mpacbti-rel1/bin/../lib/gcc/arm-none-eabi/12.2.1/thumb/v7e-m+fp/hard\libm.a(libm_a-e_sqrt.o)
 .data.one      0x200005f0        0x8 c:/program files (x86)/arm gnu toolchain arm-none-eabi/12.2 mpacbti-rel1/bin/../lib/gcc/arm-none-eabi/12.2.1/thumb/v7e-m+fp/hard\libm.a(libm_a-e_sqrt.o)
                0x200005f8                        . = ALIGN (0x8)
 *(.ram)
 *(.ramfunc*)
 .ramfunc       0x200005f8       0xb4 FLASH_RUN/main.o
                0x200005f8                SysTick_Handler
                0x200006ac                        . = ALIGN (0x4)
                0x200006ac                        _edata = .

.igot.plt       0x200006ac        0x0 load address 0x08047844
 .igot.plt      0x200006ac        0x0 FLASH_RUN/main.o

.bss            0x200006b0     0x1068 load address 0x08047844
                0x200006b0                        . = ALIGN (0x4)
                0x200006b0                        _sbss = .
 *(.shbss)
 *(.bss .bss.* .gnu.linkonce.b.*)
 .bss.flip.0    0x200006b0        0x1 FLASH_RUN/main.o
 *fill*         0x200006b1        0x1 
 .bss.cnt.1     0x200006b2        0x2 FLASH_RUN/main.o
 .bss.tpad_press
                0x200006b4        0x2 FLASH_RUN/main.o
                0x200006b4                tpad_press
 .bss.pen_y2    0x200006b6        0x2 FLASH_RUN/main.o
                0x200006b6                pen_y2
 .bss.pen_x2    0x200006b8        0x2 FLASH_RUN/main.o
                0x200006b8                pen_x2
 .bss.pen_y     0x200006ba        0x2 FLASH_RUN/main.o
                0x200006ba                pen_y
 .bss.pen_x     0x200006bc        0x2 FLASH_RUN/main.o
                0x200006bc                pen_x
 .bss.old_y     0x200006be        0x2 FLASH_RUN/main.o
                0x200006be                old_y
 .bss.old_x     0x200006c0        0x2 FLASH_RUN/main.o
                0x200006c0                old_x
 .bss.my        0x200006c2        0x2 FLASH_RUN/main.o
                0x200006c2                my
 .bss.mx        0x200006c4        0x2 FLASH_RUN/main.o
                0x200006c4                mx
 .bss.volume_flag
                0x200006c6        0x1 FLASH_RUN/main.o
                0x200006c6                volume_flag
 .bss.volume    0x200006c7        0x1 FLASH_RUN/main.o
                0x200006c7                volume
 .bss.old_key   0x200006c8        0x1 FLASH_RUN/main.o
                0x200006c8                old_key
 .bss.read_key  0x200006c9        0x1 FLASH_RUN/main.o
                0x200006c9                read_key
 .bss.time_led  0x200006ca        0x1 FLASH_RUN/main.o
                0x200006ca                time_led
 *fill*         0x200006cb        0x1 
 .bss.jiffes    0x200006cc        0x2 FLASH_RUN/main.o
                0x200006cc                jiffes
 .bss.tick      0x200006ce        0x2 FLASH_RUN/main.o
                0x200006ce                tick
 .bss.USART3_PORT
                0x200006d0        0x1 FLASH_RUN/serial.o
                0x200006d0                USART3_PORT
 .bss.USART1_PORT
                0x200006d1        0x1 FLASH_RUN/serial.o
                0x200006d1                USART1_PORT
 .bss.txbuff3   0x200006d2      0x100 FLASH_RUN/serial.o
                0x200006d2                txbuff3
 .bss.rxbuff3   0x200007d2      0x100 FLASH_RUN/serial.o
                0x200007d2                rxbuff3
 .bss.txbuff2   0x200008d2      0x100 FLASH_RUN/serial.o
                0x200008d2                txbuff2
 .bss.rxbuff2   0x200009d2      0x100 FLASH_RUN/serial.o
                0x200009d2                rxbuff2
 .bss.txbuff1   0x20000ad2      0x100 FLASH_RUN/serial.o
                0x20000ad2                txbuff1
 .bss.rxbuff1   0x20000bd2      0x100 FLASH_RUN/serial.o
                0x20000bd2                rxbuff1
 .bss.this_id   0x20000cd2        0x1 FLASH_RUN/serial.o
                0x20000cd2                this_id
 .bss.tx_led    0x20000cd3        0x1 FLASH_RUN/serial.o
                0x20000cd3                tx_led
 .bss.rx_led    0x20000cd4        0x1 FLASH_RUN/serial.o
                0x20000cd4                rx_led
 .bss.rxck3     0x20000cd5        0x1 FLASH_RUN/serial.o
                0x20000cd5                rxck3
 .bss.rxck2     0x20000cd6        0x1 FLASH_RUN/serial.o
                0x20000cd6                rxck2
 .bss.rxck1     0x20000cd7        0x1 FLASH_RUN/serial.o
                0x20000cd7                rxck1
 .bss.maxtx3    0x20000cd8        0x2 FLASH_RUN/serial.o
                0x20000cd8                maxtx3
 .bss.txcnt3    0x20000cda        0x2 FLASH_RUN/serial.o
                0x20000cda                txcnt3
 .bss.rxcnt3    0x20000cdc        0x2 FLASH_RUN/serial.o
                0x20000cdc                rxcnt3
 .bss.maxtx2    0x20000cde        0x2 FLASH_RUN/serial.o
                0x20000cde                maxtx2
 .bss.txcnt2    0x20000ce0        0x2 FLASH_RUN/serial.o
                0x20000ce0                txcnt2
 .bss.rxcnt2    0x20000ce2        0x2 FLASH_RUN/serial.o
                0x20000ce2                rxcnt2
 .bss.maxtx1    0x20000ce4        0x2 FLASH_RUN/serial.o
                0x20000ce4                maxtx1
 .bss.txcnt1    0x20000ce6        0x2 FLASH_RUN/serial.o
                0x20000ce6                txcnt1
 .bss.rxcnt1    0x20000ce8        0x2 FLASH_RUN/serial.o
                0x20000ce8                rxcnt1
 *fill*         0x20000cea        0x2 
 .bss.time_out  0x20000cec        0x4 FLASH_RUN/i2c_app.o
                0x20000cec                time_out
 .bss.i2c_temp  0x20000cf0        0x2 FLASH_RUN/i2c_app.o
                0x20000cf0                i2c_temp
 .bss.i2c_error
                0x20000cf2        0x1 FLASH_RUN/i2c_app.o
                0x20000cf2                i2c_error
 .bss.I2C_CHANNEL
                0x20000cf3        0x1 FLASH_RUN/i2c_app.o
                0x20000cf3                I2C_CHANNEL
 .bss.beep_max  0x20000cf4        0x2 FLASH_RUN/key.o
                0x20000cf4                beep_max
 .bss.beep_cnt  0x20000cf6        0x2 FLASH_RUN/key.o
                0x20000cf6                beep_cnt
 .bss.beep_on   0x20000cf8        0x1 FLASH_RUN/key.o
                0x20000cf8                beep_on
 .bss.key_value
                0x20000cf9        0x1 FLASH_RUN/key.o
                0x20000cf9                key_value
 .bss.key_cnt4  0x20000cfa        0x1 FLASH_RUN/key.o
                0x20000cfa                key_cnt4
 .bss.key_cnt3  0x20000cfb        0x1 FLASH_RUN/key.o
                0x20000cfb                key_cnt3
 .bss.key_cnt2  0x20000cfc        0x1 FLASH_RUN/key.o
                0x20000cfc                key_cnt2
 .bss.key_cnt1  0x20000cfd        0x1 FLASH_RUN/key.o
                0x20000cfd                key_cnt1
 .bss.lcddev    0x20000cfe        0xe FLASH_RUN/lcd.o
                0x20000cfe                lcddev
 .bss.delay_tick
                0x20000d0c        0x2 FLASH_RUN/lcd.o
                0x20000d0c                delay_tick
 .bss.delay_count
                0x20000d0e        0x2 FLASH_RUN/lcd.o
                0x20000d0e                delay_count
 .bss.hangul_mode
                0x20000d10        0x1 FLASH_RUN/lcd.o
                0x20000d10                hangul_mode
 .bss.dumy_data
                0x20000d11       0x20 FLASH_RUN/lcd.o
                0x20000d11                dumy_data
 .bss.buff      0x20000d31      0x100 FLASH_RUN/lcd.o
                0x20000d31                buff
 *fill*         0x20000e31        0x1 
 .bss.page      0x20000e32        0x2 FLASH_RUN/lcd.o
                0x20000e32                page
 .bss.eng_mode  0x20000e34        0x2 FLASH_RUN/lcd.o
                0x20000e34                eng_mode
 .bss.ty        0x20000e36        0x2 FLASH_RUN/lcd.o
                0x20000e36                ty
 .bss.tx        0x20000e38        0x2 FLASH_RUN/lcd.o
                0x20000e38                tx
 .bss.max_row   0x20000e3a        0x2 FLASH_RUN/lcd.o
                0x20000e3a                max_row
 .bss.max_col   0x20000e3c        0x2 FLASH_RUN/lcd.o
                0x20000e3c                max_col
 .bss.ay        0x20000e3e        0x2 FLASH_RUN/lcd.o
                0x20000e3e                ay
 .bss.ax        0x20000e40        0x2 FLASH_RUN/lcd.o
                0x20000e40                ax
 .bss.maxy      0x20000e42        0x2 FLASH_RUN/lcd.o
                0x20000e42                maxy
 .bss.maxx      0x20000e44        0x2 FLASH_RUN/lcd.o
                0x20000e44                maxx
 .bss.background_color
                0x20000e46        0x2 FLASH_RUN/lcd.o
                0x20000e46                background_color
 .bss.foreground_color
                0x20000e48        0x2 FLASH_RUN/lcd.o
                0x20000e48                foreground_color
 *fill*         0x20000e4a        0x2 
 .bss.errno     0x20000e4c        0x4 FLASH_RUN/print.o
                0x20000e4c                errno
 .bss.tp_dev    0x20000e50       0x28 FLASH_RUN/touch_panel.o
                0x20000e50                tp_dev
 .bss.read_id   0x20000e78        0x1 FLASH_RUN/ir_remocon.o
                0x20000e78                read_id
 .bss.ir_time   0x20000e79        0x1 FLASH_RUN/ir_remocon.o
                0x20000e79                ir_time
 .bss.old_ir    0x20000e7a        0x1 FLASH_RUN/ir_remocon.o
                0x20000e7a                old_ir
 .bss.ir_ret    0x20000e7b        0x1 FLASH_RUN/ir_remocon.o
                0x20000e7b                ir_ret
 .bss.remocon_recv
                0x20000e7c        0x4 FLASH_RUN/ir_remocon.o
                0x20000e7c                remocon_recv
 .bss.re_ir_enable
                0x20000e80        0x2 FLASH_RUN/ir_remocon.o
                0x20000e80                re_ir_enable
 .bss.remocon_time
                0x20000e82        0x2 FLASH_RUN/ir_remocon.o
                0x20000e82                remocon_time
 .bss.remocon_status
                0x20000e84        0x1 FLASH_RUN/ir_remocon.o
                0x20000e84                remocon_status
 .bss.remote_count
                0x20000e85        0x1 FLASH_RUN/ir_remocon.o
                0x20000e85                remote_count
 .bss.adc_temperature
                0x20000e86        0x2 FLASH_RUN/adc.o
                0x20000e86                adc_temperature
 .bss.adc_voltage
                0x20000e88        0x2 FLASH_RUN/adc.o
                0x20000e88                adc_voltage
 *fill*         0x20000e8a        0x2 
 .bss.adc_tsum  0x20000e8c        0x4 FLASH_RUN/adc.o
                0x20000e8c                adc_tsum
 .bss.adc_vsum  0x20000e90        0x4 FLASH_RUN/adc.o
                0x20000e90                adc_vsum
 .bss.adc_tcount
                0x20000e94        0x2 FLASH_RUN/adc.o
                0x20000e94                adc_tcount
 .bss.adc_count
                0x20000e96        0x2 FLASH_RUN/adc.o
                0x20000e96                adc_count
 .bss.m_tempbuff
                0x20000e98        0x4 FLASH_RUN/sdio_sdcard.o
                0x20000e98                m_tempbuff
 .bss.SDIO_DATA_BUFFER
                0x20000e9c      0x200 FLASH_RUN/sdio_sdcard.o
                0x20000e9c                SDIO_DATA_BUFFER
 *fill*         0x2000109c        0x4 
 .bss.SDCardInfo
                0x200010a0       0x58 FLASH_RUN/sdio_sdcard.o
                0x200010a0                SDCardInfo
 .bss.TransferEnd
                0x200010f8        0x1 FLASH_RUN/sdio_sdcard.o
                0x200010f8                TransferEnd
 .bss.TransferError
                0x200010f9        0x1 FLASH_RUN/sdio_sdcard.o
                0x200010f9                TransferError
 .bss.StopCondition
                0x200010fa        0x1 FLASH_RUN/sdio_sdcard.o
 *fill*         0x200010fb        0x1 
 .bss.RCA       0x200010fc        0x4 FLASH_RUN/sdio_sdcard.o
 .bss.CID_Tab   0x20001100       0x10 FLASH_RUN/sdio_sdcard.o
 .bss.CSD_Tab   0x20001110       0x10 FLASH_RUN/sdio_sdcard.o
 .bss.CardType  0x20001120        0x1 FLASH_RUN/sdio_sdcard.o
 *fill*         0x20001121        0x3 
 .bss.SDIO_DataInitStructure
                0x20001124       0x18 FLASH_RUN/sdio_sdcard.o
                0x20001124                SDIO_DataInitStructure
 .bss.SDIO_CmdInitStructure
                0x2000113c       0x14 FLASH_RUN/sdio_sdcard.o
                0x2000113c                SDIO_CmdInitStructure
 .bss.SDIO_InitStructure
                0x20001150       0x18 FLASH_RUN/sdio_sdcard.o
                0x20001150                SDIO_InitStructure
 .bss.i2s_rx_callback
                0x20001168        0x4 FLASH_RUN/i2s.o
                0x20001168                i2s_rx_callback
 .bss.i2s_tx_callback
                0x2000116c        0x4 FLASH_RUN/i2s.o
                0x2000116c                i2s_tx_callback
 .bss.rtc_wkup  0x20001170        0x1 FLASH_RUN/rtc.o
                0x20001170                rtc_wkup
 .bss.rtc_alarm
                0x20001171        0x1 FLASH_RUN/rtc.o
                0x20001171                rtc_alarm
 *fill*         0x20001172        0x2 
 .bss.Files     0x20001174       0x18 FLASH_RUN/ff.o
 .bss.Fsid      0x2000118c        0x2 FLASH_RUN/ff.o
 *fill*         0x2000118e        0x2 
 .bss.FatFs     0x20001190        0xc FLASH_RUN/ff.o
 .bss.fs_disk_status
                0x2000119c        0x1 FLASH_RUN/diskio.o
                0x2000119c                fs_disk_status
 *fill*         0x2000119d        0x3 
 .bss.audio_br  0x200011a0        0x4 FLASH_RUN/audio.o
                0x200011a0                audio_br
 .bss.audio_old_sec
                0x200011a4        0x4 FLASH_RUN/audio.o
                0x200011a4                audio_old_sec
 .bss.old_volume
                0x200011a8        0x1 FLASH_RUN/audio.o
                0x200011a8                old_volume
 .bss.audio_repeat
                0x200011a9        0x1 FLASH_RUN/audio.o
                0x200011a9                audio_repeat
 .bss.audio_pause
                0x200011aa        0x1 FLASH_RUN/audio.o
                0x200011aa                audio_pause
 .bss.audio_run
                0x200011ab        0x1 FLASH_RUN/audio.o
                0x200011ab                audio_run
 .bss.audio_read_flag
                0x200011ac        0x1 FLASH_RUN/audio.o
                0x200011ac                audio_read_flag
 .bss.audio_decode_flag
                0x200011ad        0x1 FLASH_RUN/audio.o
                0x200011ad                audio_decode_flag
 .bss.audio_delay
                0x200011ae        0x1 FLASH_RUN/audio.o
                0x200011ae                audio_delay
 .bss.play_key_count
                0x200011af        0x1 FLASH_RUN/audio.o
                0x200011af                play_key_count
 .bss.play_audio
                0x200011b0        0x1 FLASH_RUN/audio.o
                0x200011b0                play_audio
 .bss.play_key  0x200011b1        0x1 FLASH_RUN/audio.o
                0x200011b1                play_key
 *fill*         0x200011b2        0x2 
 .bss.heap_end  0x200011b4        0x4 FLASH_RUN/audio.o
 .bss.fatbuf    0x200011b8        0x4 FLASH_RUN/audio.o
                0x200011b8                fatbuf
 .bss.dir       0x200011bc      0x228 FLASH_RUN/audio.o
                0x200011bc                dir
 .bss.fileinfo  0x200013e4       0x20 FLASH_RUN/audio.o
                0x200013e4                fileinfo
 .bss.ftemp     0x20001404        0x4 FLASH_RUN/audio.o
                0x20001404                ftemp
 .bss.file      0x20001408        0x4 FLASH_RUN/audio.o
                0x20001408                file
 .bss.fs        0x2000140c        0xc FLASH_RUN/audio.o
                0x2000140c                fs
 .bss.wait_count
                0x20001418        0x2 FLASH_RUN/audio.o
                0x20001418                wait_count
 .bss.audiodev  0x2000141a       0x3c FLASH_RUN/audio.o
                0x2000141a                audiodev
 .bss.rflag     0x20001456        0x1 FLASH_RUN/audio.o
                0x20001456                rflag
 .bss.display_line_flag
                0x20001457        0x1 FLASH_RUN/audio.o
                0x20001457                display_line_flag
 .bss.display_line
                0x20001458        0x1 FLASH_RUN/audio.o
                0x20001458                display_line
 .bss.dp_page   0x20001459        0x1 FLASH_RUN/audio.o
                0x20001459                dp_page
 .bss.music_play
                0x2000145a        0x1 FLASH_RUN/audio.o
                0x2000145a                music_play
 .bss.fnum      0x2000145b        0x1 FLASH_RUN/audio.o
                0x2000145b                fnum
 .bss.music_number
                0x2000145c        0x1 FLASH_RUN/audio.o
                0x2000145c                music_number
 *fill*         0x2000145d        0x3 
 .bss.audio_file
                0x20001460        0x4 FLASH_RUN/audio.o
                0x20001460                audio_file
 .bss.audio_stop_function
                0x20001464        0x4 FLASH_RUN/audio.o
                0x20001464                audio_stop_function
 .bss.audio_play_function
                0x20001468        0x4 FLASH_RUN/audio.o
                0x20001468                audio_play_function
 .bss.mp3_bytesleft
                0x2000146c        0x4 FLASH_RUN/mp3play.o
                0x2000146c                mp3_bytesleft
 .bss.mp3_outofdata
                0x20001470        0x4 FLASH_RUN/mp3play.o
                0x20001470                mp3_outofdata
 .bss.mp3_offset
                0x20001474        0x4 FLASH_RUN/mp3play.o
                0x20001474                mp3_offset
 .bss.mp3_readptr
                0x20001478        0x4 FLASH_RUN/mp3play.o
                0x20001478                mp3_readptr
 .bss.mp3_buffer
                0x2000147c        0x4 FLASH_RUN/mp3play.o
                0x2000147c                mp3_buffer
 .bss.mp3frameinfo
                0x20001480       0x1c FLASH_RUN/mp3play.o
                0x20001480                mp3frameinfo
 .bss.mp3decoder
                0x2000149c        0x4 FLASH_RUN/mp3play.o
                0x2000149c                mp3decoder
 .bss.mp3witchbuf
                0x200014a0        0x1 FLASH_RUN/mp3play.o
                0x200014a0                mp3witchbuf
 .bss.mp3transferend
                0x200014a1        0x1 FLASH_RUN/mp3play.o
                0x200014a1                mp3transferend
 *fill*         0x200014a2        0x2 
 .bss.mp3ctrl   0x200014a4        0x4 FLASH_RUN/mp3play.o
                0x200014a4                mp3ctrl
 .bss.fillnum   0x200014a8        0x4 FLASH_RUN/wavplay.o
                0x200014a8                fillnum
 .bss.wavwitchbuf
                0x200014ac        0x1 FLASH_RUN/wavplay.o
                0x200014ac                wavwitchbuf
 .bss.wavtransferend
                0x200014ad        0x1 FLASH_RUN/wavplay.o
                0x200014ad                wavtransferend
 .bss.wavctrl   0x200014ae       0x20 FLASH_RUN/wavplay.o
                0x200014ae                wavctrl
 *fill*         0x200014ce        0x2 
 .bss.flac_fptr
                0x200014d0        0x4 FLASH_RUN/flacplay.o
                0x200014d0                flac_fptr
 .bss.flac_decbuf1
                0x200014d4        0x4 FLASH_RUN/flacplay.o
                0x200014d4                flac_decbuf1
 .bss.flac_decbuf0
                0x200014d8        0x4 FLASH_RUN/flacplay.o
                0x200014d8                flac_decbuf0
 .bss.flac_buffer
                0x200014dc        0x4 FLASH_RUN/flacplay.o
                0x200014dc                flac_buffer
 .bss.flac_bytesleft
                0x200014e0        0x4 FLASH_RUN/flacplay.o
                0x200014e0                flac_bytesleft
 .bss.flac_fc   0x200014e4        0x4 FLASH_RUN/flacplay.o
                0x200014e4                flac_fc
 .bss.flacwitchbuf
                0x200014e8        0x1 FLASH_RUN/flacplay.o
                0x200014e8                flacwitchbuf
 .bss.flactransferend
                0x200014e9        0x1 FLASH_RUN/flacplay.o
                0x200014e9                flactransferend
 *fill*         0x200014ea        0x2 
 .bss.flacctrl  0x200014ec        0x4 FLASH_RUN/flacplay.o
                0x200014ec                flacctrl
 .bss.ape_res   0x200014f0        0x1 FLASH_RUN/apeplay.o
                0x200014f0                ape_res
 *fill*         0x200014f1        0x3 
 .bss.ape_decoded1
                0x200014f4        0x4 FLASH_RUN/apeplay.o
                0x200014f4                ape_decoded1
 .bss.ape_decoded0
                0x200014f8        0x4 FLASH_RUN/apeplay.o
                0x200014f8                ape_decoded0
 .bss.ape_buffer
                0x200014fc        0x4 FLASH_RUN/apeplay.o
                0x200014fc                ape_buffer
 .bss.ape_readptr
                0x20001500        0x4 FLASH_RUN/apeplay.o
                0x20001500                ape_readptr
 .bss.ape_firstbyte
                0x20001504        0x4 FLASH_RUN/apeplay.o
                0x20001504                ape_firstbyte
 .bss.ape_bytesinbuffer
                0x20001508        0x4 FLASH_RUN/apeplay.o
                0x20001508                ape_bytesinbuffer
 .bss.ape_bytesconsumed
                0x2000150c        0x4 FLASH_RUN/apeplay.o
                0x2000150c                ape_bytesconsumed
 .bss.ape_currentframe
                0x20001510        0x4 FLASH_RUN/apeplay.o
                0x20001510                ape_currentframe
 .bss.ape_nblocks
                0x20001514        0x4 FLASH_RUN/apeplay.o
                0x20001514                ape_nblocks
 .bss.apex      0x20001518        0x4 FLASH_RUN/apeplay.o
                0x20001518                apex
 .bss.apewitchbuf
                0x2000151c        0x1 FLASH_RUN/apeplay.o
                0x2000151c                apewitchbuf
 .bss.apetransferend
                0x2000151d        0x1 FLASH_RUN/apeplay.o
                0x2000151d                apetransferend
 *fill*         0x2000151e        0x2 
 .bss.apectrl   0x20001520        0x4 FLASH_RUN/apeplay.o
                0x20001520                apectrl
 .bss.HL2IRW    0x20001524        0x4 c:/project/stm32fx_iolib/stm32f4x_iolib/stm32f4x_iolib_168MHz_8MHz.a(startup_stm32f4xx.o)
                0x20001524                HL2IRW
 .bss.filterbuf64
                0x20001528        0x4 source/audio_codec/ape/ape.a(apedecoder.o)
                0x20001528                filterbuf64
 .bss.bytebuffer
                0x2000152c        0x4 source/audio_codec/ape/ape.a(entropy.o)
 .bss.bytebufferoffset
                0x20001530        0x4 source/audio_codec/ape/ape.a(entropy.o)
 .bss.rc        0x20001534       0x10 source/audio_codec/ape/ape.a(entropy.o)
 .bss.riceX     0x20001544        0x8 source/audio_codec/ape/ape.a(entropy.o)
 .bss.riceY     0x2000154c        0x8 source/audio_codec/ape/ape.a(entropy.o)
 .bss.filter    0x20001554       0x28 source/audio_codec/ape/ape.a(filter_16_11.o)
 .bss.filter    0x2000157c       0x28 source/audio_codec/ape/ape.a(filter_64_11.o)
 .bss.__malloc_current_mallinfo
                0x200015a4       0x28 c:/program files (x86)/arm gnu toolchain arm-none-eabi/12.2 mpacbti-rel1/bin/../lib/gcc/arm-none-eabi/12.2.1/thumb/v7e-m+fp/hard\libc.a(libc_a-mallocr.o)
                0x200015a4                __malloc_current_mallinfo
 .bss.__malloc_max_total_mem
                0x200015cc        0x4 c:/program files (x86)/arm gnu toolchain arm-none-eabi/12.2 mpacbti-rel1/bin/../lib/gcc/arm-none-eabi/12.2.1/thumb/v7e-m+fp/hard\libc.a(libc_a-mallocr.o)
                0x200015cc                __malloc_max_total_mem
 .bss.__malloc_max_sbrked_mem
                0x200015d0        0x4 c:/program files (x86)/arm gnu toolchain arm-none-eabi/12.2 mpacbti-rel1/bin/../lib/gcc/arm-none-eabi/12.2.1/thumb/v7e-m+fp/hard\libc.a(libc_a-mallocr.o)
                0x200015d0                __malloc_max_sbrked_mem
 .bss.__malloc_top_pad
                0x200015d4        0x4 c:/program files (x86)/arm gnu toolchain arm-none-eabi/12.2 mpacbti-rel1/bin/../lib/gcc/arm-none-eabi/12.2.1/thumb/v7e-m+fp/hard\libc.a(libc_a-mallocr.o)
                0x200015d4                __malloc_top_pad
 .bss.__lock___malloc_recursive_mutex
                0x200015d8        0x1 c:/program files (x86)/arm gnu toolchain arm-none-eabi/12.2 mpacbti-rel1/bin/../lib/gcc/arm-none-eabi/12.2.1/thumb/v7e-m+fp/hard\libc.a(libc_a-lock.o)
                0x200015d8                __lock___malloc_recursive_mutex
 *fill*         0x200015d9        0x3 
 .bss.__sf      0x200015dc      0x138 c:/program files (x86)/arm gnu toolchain arm-none-eabi/12.2 mpacbti-rel1/bin/../lib/gcc/arm-none-eabi/12.2.1/thumb/v7e-m+fp/hard\libc.a(libc_a-findfp.o)
                0x200015dc                __sf
 *(COMMON)
                0x20001718                        . = ALIGN (0x8)
 *fill*         0x20001714        0x4 
 *(.ram.b)
                0x20001718                        . = ALIGN (0x4)
                0x20001718                        _ebss = .
                0x20001718                        _end = .
                0x20001718                        __end = .

._usrstack      0x20001718     0x1000 load address 0x08047844
                0x20001718                        . = ALIGN (0x4)
                0x20001718                        _susrstack = .
                0x20002718                        . = (. + _Minimum_Stack_Size)
 *fill*         0x20001718     0x1000 
                0x20002718                        . = ALIGN (0x4)
                0x20002718                        _eusrstack = .

.b1text
 *(.b1text)
 *(.b1rodata)
 *(.b1rodata*)

.eb0text
 *(.eb0text)
 *(.eb0rodata)
 *(.eb0rodata*)

.eb1text
 *(.eb1text)
 *(.eb1rodata)
 *(.eb1rodata*)

.eb2text
 *(.eb2text)
 *(.eb2rodata)
 *(.eb2rodata*)

.eb3text
 *(.eb3text)
 *(.eb3rodata)
 *(.eb3rodata*)

.stab
 *(.stab)

.stabstr
 *(.stabstr)

.stab.excl
 *(.stab.excl)

.stab.exclstr
 *(.stab.exclstr)

.stab.index
 *(.stab.index)

.stab.indexstr
 *(.stab.indexstr)

.comment        0x00000000      0x164
 *(.comment)
 .comment       0x00000000       0x55 FLASH_RUN/main.o
                                 0x56 (size before relaxing)
 .comment       0x00000055       0x56 FLASH_RUN/serial.o
 .comment       0x00000055       0x56 FLASH_RUN/i2c_app.o
 .comment       0x00000055       0x56 FLASH_RUN/key.o
 .comment       0x00000055       0x56 FLASH_RUN/lcd.o
 .comment       0x00000055       0x56 FLASH_RUN/print.o
 .comment       0x00000055       0x56 FLASH_RUN/random_disp.o
 .comment       0x00000055       0x56 FLASH_RUN/touch_panel.o
 .comment       0x00000055       0x56 FLASH_RUN/ir_remocon.o
 .comment       0x00000055       0x56 FLASH_RUN/adc.o
 .comment       0x00000055       0x56 FLASH_RUN/dac1.o
 .comment       0x00000055       0x56 FLASH_RUN/wm8978.o
 .comment       0x00000055       0x56 FLASH_RUN/sdio_sdcard.o
 .comment       0x00000055       0x56 FLASH_RUN/i2s.o
 .comment       0x00000055       0x56 FLASH_RUN/ext_sram.o
 .comment       0x00000055       0x56 FLASH_RUN/rtc.o
 .comment       0x00000055       0x56 FLASH_RUN/ff.o
 .comment       0x00000055       0x56 FLASH_RUN/diskio.o
 .comment       0x00000055       0x56 FLASH_RUN/cc949.o
 .comment       0x00000055       0x56 FLASH_RUN/audio.o
 .comment       0x00000055       0x56 FLASH_RUN/mp3play.o
 .comment       0x00000055       0x56 FLASH_RUN/wavplay.o
 .comment       0x00000055       0x56 FLASH_RUN/flacplay.o
 .comment       0x00000055       0x56 FLASH_RUN/apeplay.o
 .comment       0x00000055       0x49 c:/project/stm32fx_iolib/stm32f4x_iolib/stm32f4x_iolib_168MHz_8MHz.a(startup_stm32f4xx.o)
                                 0x4a (size before relaxing)
 .comment       0x0000009e       0x4a c:/project/stm32fx_iolib/stm32f4x_iolib/stm32f4x_iolib_168MHz_8MHz.a(system_stm32f4xx.o)
 .comment       0x0000009e       0x4a c:/project/stm32fx_iolib/stm32f4x_iolib/stm32f4x_iolib_168MHz_8MHz.a(misc.o)
 .comment       0x0000009e       0x4a c:/project/stm32fx_iolib/stm32f4x_iolib/stm32f4x_iolib_168MHz_8MHz.a(stm32f4xx_adc.o)
 .comment       0x0000009e       0x4a c:/project/stm32fx_iolib/stm32f4x_iolib/stm32f4x_iolib_168MHz_8MHz.a(stm32f4xx_dac.o)
 .comment       0x0000009e       0x4a c:/project/stm32fx_iolib/stm32f4x_iolib/stm32f4x_iolib_168MHz_8MHz.a(stm32f4xx_dma.o)
 .comment       0x0000009e       0x4a c:/project/stm32fx_iolib/stm32f4x_iolib/stm32f4x_iolib_168MHz_8MHz.a(stm32f4xx_exti.o)
 .comment       0x0000009e       0x4a c:/project/stm32fx_iolib/stm32f4x_iolib/stm32f4x_iolib_168MHz_8MHz.a(stm32f4xx_flash.o)
 .comment       0x0000009e       0x4a c:/project/stm32fx_iolib/stm32f4x_iolib/stm32f4x_iolib_168MHz_8MHz.a(stm32f4xx_gpio.o)
 .comment       0x0000009e       0x4a c:/project/stm32fx_iolib/stm32f4x_iolib/stm32f4x_iolib_168MHz_8MHz.a(stm32f4xx_i2c.o)
 .comment       0x0000009e       0x4a c:/project/stm32fx_iolib/stm32f4x_iolib/stm32f4x_iolib_168MHz_8MHz.a(stm32f4xx_iwdg.o)
 .comment       0x0000009e       0x4a c:/project/stm32fx_iolib/stm32f4x_iolib/stm32f4x_iolib_168MHz_8MHz.a(stm32f4xx_pwr.o)
 .comment       0x0000009e       0x4a c:/project/stm32fx_iolib/stm32f4x_iolib/stm32f4x_iolib_168MHz_8MHz.a(stm32f4xx_rcc.o)
 .comment       0x0000009e       0x4a c:/project/stm32fx_iolib/stm32f4x_iolib/stm32f4x_iolib_168MHz_8MHz.a(stm32f4xx_rtc.o)
 .comment       0x0000009e       0x4a c:/project/stm32fx_iolib/stm32f4x_iolib/stm32f4x_iolib_168MHz_8MHz.a(stm32f4xx_sdio.o)
 .comment       0x0000009e       0x4a c:/project/stm32fx_iolib/stm32f4x_iolib/stm32f4x_iolib_168MHz_8MHz.a(stm32f4xx_spi.o)
 .comment       0x0000009e       0x4a c:/project/stm32fx_iolib/stm32f4x_iolib/stm32f4x_iolib_168MHz_8MHz.a(stm32f4xx_tim.o)
 .comment       0x0000009e       0x4a c:/project/stm32fx_iolib/stm32f4x_iolib/stm32f4x_iolib_168MHz_8MHz.a(stm32f4xx_usart.o)
 .comment       0x0000009e       0x4a c:/project/stm32fx_iolib/stm32f4x_iolib/stm32f4x_iolib_168MHz_8MHz.a(stm32f4xx_fsmc.o)
 .comment       0x0000009e       0x79 source/audio_codec/mp3/mp3.a(mp3dec.o)
                                 0x7a (size before relaxing)
 .comment       0x00000117       0x7a source/audio_codec/mp3/mp3.a(mp3tabs.o)
 .comment       0x00000117       0x7a source/audio_codec/mp3/mp3.a(scalfact.o)
 .comment       0x00000117       0x7a source/audio_codec/mp3/mp3.a(subband.o)
 .comment       0x00000117       0x7a source/audio_codec/mp3/mp3.a(trigtabs.o)
 .comment       0x00000117       0x7a source/audio_codec/mp3/mp3.a(bitstream.o)
 .comment       0x00000117       0x4d source/audio_codec/mp3/mp3.a(buffers.o)
                                 0x4e (size before relaxing)
 .comment       0x00000164       0x7a source/audio_codec/mp3/mp3.a(dct32.o)
 .comment       0x00000164       0x7a source/audio_codec/mp3/mp3.a(dequant.o)
 .comment       0x00000164       0x7a source/audio_codec/mp3/mp3.a(dqchan.o)
 .comment       0x00000164       0x7a source/audio_codec/mp3/mp3.a(huffman.o)
 .comment       0x00000164       0x7a source/audio_codec/mp3/mp3.a(hufftabs.o)
 .comment       0x00000164       0x7a source/audio_codec/mp3/mp3.a(imdct.o)
 .comment       0x00000164       0x7a source/audio_codec/mp3/mp3.a(stproc.o)
 .comment       0x00000164       0x7a source/audio_codec/flac/flac.a(flacdecoder.o)
 .comment       0x00000164       0x7a source/audio_codec/flac/flac.a(tables.o)
 .comment       0x00000164       0x7a source/audio_codec/flac/flac.a(bitstreamf.o)
 .comment       0x00000164       0x4e source/audio_codec/ape/ape.a(apedecoder.o)
 .comment       0x00000164       0x4e source/audio_codec/ape/ape.a(entropy.o)
 .comment       0x00000164       0x4e source/audio_codec/ape/ape.a(filter_16_11.o)
 .comment       0x00000164       0x4e source/audio_codec/ape/ape.a(filter_64_11.o)
 .comment       0x00000164       0x4e source/audio_codec/ape/ape.a(parser.o)
 .comment       0x00000164       0x4e source/audio_codec/ape/ape.a(predictor.o)

.debug
 *(.debug)

.line
 *(.line)

.debug_srcinfo
 *(.debug_srcinfo)

.debug_sfnames
 *(.debug_sfnames)

.debug_aranges  0x00000000     0x21c0
 *(.debug_aranges)
 .debug_aranges
                0x00000000       0x70 FLASH_RUN/main.o
 .debug_aranges
                0x00000070       0x80 FLASH_RUN/serial.o
 .debug_aranges
                0x000000f0       0x58 FLASH_RUN/i2c_app.o
 .debug_aranges
                0x00000148       0x38 FLASH_RUN/key.o
 .debug_aranges
                0x00000180      0x160 FLASH_RUN/lcd.o
 .debug_aranges
                0x000002e0       0x50 FLASH_RUN/print.o
 .debug_aranges
                0x00000330       0x20 FLASH_RUN/random_disp.o
 .debug_aranges
                0x00000350       0x80 FLASH_RUN/touch_panel.o
 .debug_aranges
                0x000003d0       0x40 FLASH_RUN/ir_remocon.o
 .debug_aranges
                0x00000410       0x38 FLASH_RUN/adc.o
 .debug_aranges
                0x00000448       0x28 FLASH_RUN/dac1.o
 .debug_aranges
                0x00000470       0xc0 FLASH_RUN/wm8978.o
 .debug_aranges
                0x00000530      0x110 FLASH_RUN/sdio_sdcard.o
 .debug_aranges
                0x00000640       0x70 FLASH_RUN/i2s.o
 .debug_aranges
                0x000006b0       0x40 FLASH_RUN/ext_sram.o
 .debug_aranges
                0x000006f0       0x68 FLASH_RUN/rtc.o
 .debug_aranges
                0x00000758      0x1c0 FLASH_RUN/ff.o
 .debug_aranges
                0x00000918       0x68 FLASH_RUN/diskio.o
 .debug_aranges
                0x00000980       0x28 FLASH_RUN/cc949.o
 .debug_aranges
                0x000009a8       0x98 FLASH_RUN/audio.o
 .debug_aranges
                0x00000a40       0x68 FLASH_RUN/mp3play.o
 .debug_aranges
                0x00000aa8       0x58 FLASH_RUN/wavplay.o
 .debug_aranges
                0x00000b00       0x50 FLASH_RUN/flacplay.o
 .debug_aranges
                0x00000b50       0x50 FLASH_RUN/apeplay.o
 .debug_aranges
                0x00000ba0       0x30 c:/project/stm32fx_iolib/stm32f4x_iolib/stm32f4x_iolib_168MHz_8MHz.a(startup_stm32f4xx.o)
 .debug_aranges
                0x00000bd0       0x28 c:/project/stm32fx_iolib/stm32f4x_iolib/stm32f4x_iolib_168MHz_8MHz.a(system_stm32f4xx.o)
 .debug_aranges
                0x00000bf8       0x40 c:/project/stm32fx_iolib/stm32f4x_iolib/stm32f4x_iolib_168MHz_8MHz.a(misc.o)
 .debug_aranges
                0x00000c38      0x148 c:/project/stm32fx_iolib/stm32f4x_iolib/stm32f4x_iolib_168MHz_8MHz.a(stm32f4xx_adc.o)
 .debug_aranges
                0x00000d80       0x90 c:/project/stm32fx_iolib/stm32f4x_iolib/stm32f4x_iolib_168MHz_8MHz.a(stm32f4xx_dac.o)
 .debug_aranges
                0x00000e10       0xa8 c:/project/stm32fx_iolib/stm32f4x_iolib/stm32f4x_iolib_168MHz_8MHz.a(stm32f4xx_dma.o)
 .debug_aranges
                0x00000eb8       0x48 c:/project/stm32fx_iolib/stm32f4x_iolib/stm32f4x_iolib_168MHz_8MHz.a(stm32f4xx_exti.o)
 .debug_aranges
                0x00000f00      0x140 c:/project/stm32fx_iolib/stm32f4x_iolib/stm32f4x_iolib_168MHz_8MHz.a(stm32f4xx_flash.o)
 .debug_aranges
                0x00001040       0x90 c:/project/stm32fx_iolib/stm32f4x_iolib/stm32f4x_iolib_168MHz_8MHz.a(stm32f4xx_gpio.o)
 .debug_aranges
                0x000010d0      0x120 c:/project/stm32fx_iolib/stm32f4x_iolib/stm32f4x_iolib_168MHz_8MHz.a(stm32f4xx_i2c.o)
 .debug_aranges
                0x000011f0       0x48 c:/project/stm32fx_iolib/stm32f4x_iolib/stm32f4x_iolib_168MHz_8MHz.a(stm32f4xx_iwdg.o)
 .debug_aranges
                0x00001238       0x90 c:/project/stm32fx_iolib/stm32f4x_iolib/stm32f4x_iolib_168MHz_8MHz.a(stm32f4xx_pwr.o)
 .debug_aranges
                0x000012c8      0x1c0 c:/project/stm32fx_iolib/stm32f4x_iolib/stm32f4x_iolib_168MHz_8MHz.a(stm32f4xx_rcc.o)
 .debug_aranges
                0x00001488      0x1e0 c:/project/stm32fx_iolib/stm32f4x_iolib/stm32f4x_iolib_168MHz_8MHz.a(stm32f4xx_rtc.o)
 .debug_aranges
                0x00001668       0xf8 c:/project/stm32fx_iolib/stm32f4x_iolib/stm32f4x_iolib_168MHz_8MHz.a(stm32f4xx_sdio.o)
 .debug_aranges
                0x00001760       0xe0 c:/project/stm32fx_iolib/stm32f4x_iolib/stm32f4x_iolib_168MHz_8MHz.a(stm32f4xx_spi.o)
 .debug_aranges
                0x00001840      0x2d8 c:/project/stm32fx_iolib/stm32f4x_iolib/stm32f4x_iolib_168MHz_8MHz.a(stm32f4xx_tim.o)
 .debug_aranges
                0x00001b18      0x100 c:/project/stm32fx_iolib/stm32f4x_iolib/stm32f4x_iolib_168MHz_8MHz.a(stm32f4xx_usart.o)
 .debug_aranges
                0x00001c18       0xb0 c:/project/stm32fx_iolib/stm32f4x_iolib/stm32f4x_iolib_168MHz_8MHz.a(stm32f4xx_fsmc.o)
 .debug_aranges
                0x00001cc8       0x50 source/audio_codec/mp3/mp3.a(mp3dec.o)
 .debug_aranges
                0x00001d18       0x18 source/audio_codec/mp3/mp3.a(mp3tabs.o)
 .debug_aranges
                0x00001d30       0x20 source/audio_codec/mp3/mp3.a(scalfact.o)
 .debug_aranges
                0x00001d50       0x20 source/audio_codec/mp3/mp3.a(subband.o)
 .debug_aranges
                0x00001d70       0x18 source/audio_codec/mp3/mp3.a(trigtabs.o)
 .debug_aranges
                0x00001d88       0x20 source/audio_codec/mp3/mp3.a(asmpoly_thumb2.o)
 .debug_aranges
                0x00001da8       0x48 source/audio_codec/mp3/mp3.a(bitstream.o)
 .debug_aranges
                0x00001df0       0x30 source/audio_codec/mp3/mp3.a(buffers.o)
 .debug_aranges
                0x00001e20       0x20 source/audio_codec/mp3/mp3.a(dct32.o)
 .debug_aranges
                0x00001e40       0x20 source/audio_codec/mp3/mp3.a(dequant.o)
 .debug_aranges
                0x00001e60       0x28 source/audio_codec/mp3/mp3.a(dqchan.o)
 .debug_aranges
                0x00001e88       0x20 source/audio_codec/mp3/mp3.a(huffman.o)
 .debug_aranges
                0x00001ea8       0x18 source/audio_codec/mp3/mp3.a(hufftabs.o)
 .debug_aranges
                0x00001ec0       0x40 source/audio_codec/mp3/mp3.a(imdct.o)
 .debug_aranges
                0x00001f00       0x30 source/audio_codec/mp3/mp3.a(stproc.o)
 .debug_aranges
                0x00001f30       0x20 source/audio_codec/mp3/mp3.a(asmmisc.o)
 .debug_aranges
                0x00001f50       0x70 source/audio_codec/flac/flac.a(flacdecoder.o)
 .debug_aranges
                0x00001fc0       0x18 source/audio_codec/flac/flac.a(tables.o)
 .debug_aranges
                0x00001fd8       0x40 source/audio_codec/flac/flac.a(bitstreamf.o)
 .debug_aranges
                0x00002018       0x30 source/audio_codec/ape/ape.a(apedecoder.o)
 .debug_aranges
                0x00002048       0x70 source/audio_codec/ape/ape.a(entropy.o)
 .debug_aranges
                0x000020b8       0x40 source/audio_codec/ape/ape.a(filter_16_11.o)
 .debug_aranges
                0x000020f8       0x40 source/audio_codec/ape/ape.a(filter_64_11.o)
 .debug_aranges
                0x00002138       0x48 source/audio_codec/ape/ape.a(parser.o)
 .debug_aranges
                0x00002180       0x20 source/audio_codec/ape/ape.a(predictor.o)
 .debug_aranges
                0x000021a0       0x20 source/audio_codec/ape/ape.a(predictor-arm.o)

.debug_pubnames
 *(.debug_pubnames)

.debug_info     0x00000000    0x3f682
 *(.debug_info .gnu.linkonce.wi.*)
 .debug_info    0x00000000     0x1c22 FLASH_RUN/main.o
 .debug_info    0x00001c22     0x1742 FLASH_RUN/serial.o
 .debug_info    0x00003364      0xe5a FLASH_RUN/i2c_app.o
 .debug_info    0x000041be      0x4c1 FLASH_RUN/key.o
 .debug_info    0x0000467f     0x59f1 FLASH_RUN/lcd.o
 .debug_info    0x0000a070      0xbd1 FLASH_RUN/print.o
 .debug_info    0x0000ac41      0x255 FLASH_RUN/random_disp.o
 .debug_info    0x0000ae96     0x1686 FLASH_RUN/touch_panel.o
 .debug_info    0x0000c51c      0xf7b FLASH_RUN/ir_remocon.o
 .debug_info    0x0000d497      0xa1a FLASH_RUN/adc.o
 .debug_info    0x0000deb1      0x474 FLASH_RUN/dac1.o
 .debug_info    0x0000e325     0x125f FLASH_RUN/wm8978.o
 .debug_info    0x0000f584     0x2fcc FLASH_RUN/sdio_sdcard.o
 .debug_info    0x00012550     0x1150 FLASH_RUN/i2s.o
 .debug_info    0x000136a0      0xbe1 FLASH_RUN/ext_sram.o
 .debug_info    0x00014281      0xf3b FLASH_RUN/rtc.o
 .debug_info    0x000151bc     0x4b10 FLASH_RUN/ff.o
 .debug_info    0x00019ccc      0xc7d FLASH_RUN/diskio.o
 .debug_info    0x0001a949      0x20a FLASH_RUN/cc949.o
 .debug_info    0x0001ab53     0x1982 FLASH_RUN/audio.o
 .debug_info    0x0001c4d5     0x195a FLASH_RUN/mp3play.o
 .debug_info    0x0001de2f     0x1108 FLASH_RUN/wavplay.o
 .debug_info    0x0001ef37     0x14aa FLASH_RUN/flacplay.o
 .debug_info    0x000203e1     0x136a FLASH_RUN/apeplay.o
 .debug_info    0x0002174b      0x459 c:/project/stm32fx_iolib/stm32f4x_iolib/stm32f4x_iolib_168MHz_8MHz.a(startup_stm32f4xx.o)
 .debug_info    0x00021ba4      0x670 c:/project/stm32fx_iolib/stm32f4x_iolib/stm32f4x_iolib_168MHz_8MHz.a(system_stm32f4xx.o)
 .debug_info    0x00022214      0x57c c:/project/stm32fx_iolib/stm32f4x_iolib/stm32f4x_iolib_168MHz_8MHz.a(misc.o)
 .debug_info    0x00022790      0xdd7 c:/project/stm32fx_iolib/stm32f4x_iolib/stm32f4x_iolib_168MHz_8MHz.a(stm32f4xx_adc.o)
 .debug_info    0x00023567      0x70f c:/project/stm32fx_iolib/stm32f4x_iolib/stm32f4x_iolib_168MHz_8MHz.a(stm32f4xx_dac.o)
 .debug_info    0x00023c76      0x7b8 c:/project/stm32fx_iolib/stm32f4x_iolib/stm32f4x_iolib_168MHz_8MHz.a(stm32f4xx_dma.o)
 .debug_info    0x0002442e      0x34d c:/project/stm32fx_iolib/stm32f4x_iolib/stm32f4x_iolib_168MHz_8MHz.a(stm32f4xx_exti.o)
 .debug_info    0x0002477b      0xb5c c:/project/stm32fx_iolib/stm32f4x_iolib/stm32f4x_iolib_168MHz_8MHz.a(stm32f4xx_flash.o)
 .debug_info    0x000252d7      0x893 c:/project/stm32fx_iolib/stm32f4x_iolib/stm32f4x_iolib_168MHz_8MHz.a(stm32f4xx_gpio.o)
 .debug_info    0x00025b6a      0xd0f c:/project/stm32fx_iolib/stm32f4x_iolib/stm32f4x_iolib_168MHz_8MHz.a(stm32f4xx_i2c.o)
 .debug_info    0x00026879      0x201 c:/project/stm32fx_iolib/stm32f4x_iolib/stm32f4x_iolib_168MHz_8MHz.a(stm32f4xx_iwdg.o)
 .debug_info    0x00026a7a      0x653 c:/project/stm32fx_iolib/stm32f4x_iolib/stm32f4x_iolib_168MHz_8MHz.a(stm32f4xx_pwr.o)
 .debug_info    0x000270cd     0x10ce c:/project/stm32fx_iolib/stm32f4x_iolib/stm32f4x_iolib_168MHz_8MHz.a(stm32f4xx_rcc.o)
 .debug_info    0x0002819b     0x1614 c:/project/stm32fx_iolib/stm32f4x_iolib/stm32f4x_iolib_168MHz_8MHz.a(stm32f4xx_rtc.o)
 .debug_info    0x000297af      0x892 c:/project/stm32fx_iolib/stm32f4x_iolib/stm32f4x_iolib_168MHz_8MHz.a(stm32f4xx_sdio.o)
 .debug_info    0x0002a041      0xd14 c:/project/stm32fx_iolib/stm32f4x_iolib/stm32f4x_iolib_168MHz_8MHz.a(stm32f4xx_spi.o)
 .debug_info    0x0002ad55     0x2417 c:/project/stm32fx_iolib/stm32f4x_iolib/stm32f4x_iolib_168MHz_8MHz.a(stm32f4xx_tim.o)
 .debug_info    0x0002d16c      0xbda c:/project/stm32fx_iolib/stm32f4x_iolib/stm32f4x_iolib_168MHz_8MHz.a(stm32f4xx_usart.o)
 .debug_info    0x0002dd46      0xa76 c:/project/stm32fx_iolib/stm32f4x_iolib/stm32f4x_iolib_168MHz_8MHz.a(stm32f4xx_fsmc.o)
 .debug_info    0x0002e7bc     0x147b source/audio_codec/mp3/mp3.a(mp3dec.o)
 .debug_info    0x0002fc37      0x1f1 source/audio_codec/mp3/mp3.a(mp3tabs.o)
 .debug_info    0x0002fe28     0x1017 source/audio_codec/mp3/mp3.a(scalfact.o)
 .debug_info    0x00030e3f      0x7db source/audio_codec/mp3/mp3.a(subband.o)
 .debug_info    0x0003161a      0x478 source/audio_codec/mp3/mp3.a(trigtabs.o)
 .debug_info    0x00031a92       0x26 source/audio_codec/mp3/mp3.a(asmpoly_thumb2.o)
 .debug_info    0x00031ab8      0xe4a source/audio_codec/mp3/mp3.a(bitstream.o)
 .debug_info    0x00032902      0xb42 source/audio_codec/mp3/mp3.a(buffers.o)
 .debug_info    0x00033444      0xb87 source/audio_codec/mp3/mp3.a(dct32.o)
 .debug_info    0x00033fcb      0xd08 source/audio_codec/mp3/mp3.a(dequant.o)
 .debug_info    0x00034cd3      0xcff source/audio_codec/mp3/mp3.a(dqchan.o)
 .debug_info    0x000359d2      0xe1e source/audio_codec/mp3/mp3.a(huffman.o)
 .debug_info    0x000367f0      0x447 source/audio_codec/mp3/mp3.a(hufftabs.o)
 .debug_info    0x00036c37     0x25bf source/audio_codec/mp3/mp3.a(imdct.o)
 .debug_info    0x000391f6      0xd22 source/audio_codec/mp3/mp3.a(stproc.o)
 .debug_info    0x00039f18       0x26 source/audio_codec/mp3/mp3.a(asmmisc.o)
 .debug_info    0x00039f3e     0x170d source/audio_codec/flac/flac.a(flacdecoder.o)
 .debug_info    0x0003b64b       0xa8 source/audio_codec/flac/flac.a(tables.o)
 .debug_info    0x0003b6f3      0xe83 source/audio_codec/flac/flac.a(bitstreamf.o)
 .debug_info    0x0003c576      0x7ac source/audio_codec/ape/ape.a(apedecoder.o)
 .debug_info    0x0003cd22      0xdd0 source/audio_codec/ape/ape.a(entropy.o)
 .debug_info    0x0003daf2      0x514 source/audio_codec/ape/ape.a(filter_16_11.o)
 .debug_info    0x0003e006      0x54a source/audio_codec/ape/ape.a(filter_64_11.o)
 .debug_info    0x0003e550      0xee1 source/audio_codec/ape/ape.a(parser.o)
 .debug_info    0x0003f431      0x22b source/audio_codec/ape/ape.a(predictor.o)
 .debug_info    0x0003f65c       0x26 source/audio_codec/ape/ape.a(predictor-arm.o)

.debug_abbrev   0x00000000     0xa4f2
 *(.debug_abbrev)
 .debug_abbrev  0x00000000      0x47d FLASH_RUN/main.o
 .debug_abbrev  0x0000047d      0x286 FLASH_RUN/serial.o
 .debug_abbrev  0x00000703      0x319 FLASH_RUN/i2c_app.o
 .debug_abbrev  0x00000a1c      0x233 FLASH_RUN/key.o
 .debug_abbrev  0x00000c4f      0x4dd FLASH_RUN/lcd.o
 .debug_abbrev  0x0000112c      0x387 FLASH_RUN/print.o
 .debug_abbrev  0x000014b3      0x134 FLASH_RUN/random_disp.o
 .debug_abbrev  0x000015e7      0x386 FLASH_RUN/touch_panel.o
 .debug_abbrev  0x0000196d      0x2b8 FLASH_RUN/ir_remocon.o
 .debug_abbrev  0x00001c25      0x287 FLASH_RUN/adc.o
 .debug_abbrev  0x00001eac      0x1a5 FLASH_RUN/dac1.o
 .debug_abbrev  0x00002051      0x31d FLASH_RUN/wm8978.o
 .debug_abbrev  0x0000236e      0x47d FLASH_RUN/sdio_sdcard.o
 .debug_abbrev  0x000027eb      0x289 FLASH_RUN/i2s.o
 .debug_abbrev  0x00002a74      0x1b7 FLASH_RUN/ext_sram.o
 .debug_abbrev  0x00002c2b      0x228 FLASH_RUN/rtc.o
 .debug_abbrev  0x00002e53      0x471 FLASH_RUN/ff.o
 .debug_abbrev  0x000032c4      0x37c FLASH_RUN/diskio.o
 .debug_abbrev  0x00003640       0xcc FLASH_RUN/cc949.o
 .debug_abbrev  0x0000370c      0x509 FLASH_RUN/audio.o
 .debug_abbrev  0x00003c15      0x428 FLASH_RUN/mp3play.o
 .debug_abbrev  0x0000403d      0x389 FLASH_RUN/wavplay.o
 .debug_abbrev  0x000043c6      0x330 FLASH_RUN/flacplay.o
 .debug_abbrev  0x000046f6      0x314 FLASH_RUN/apeplay.o
 .debug_abbrev  0x00004a0a      0x180 c:/project/stm32fx_iolib/stm32f4x_iolib/stm32f4x_iolib_168MHz_8MHz.a(startup_stm32f4xx.o)
 .debug_abbrev  0x00004b8a      0x192 c:/project/stm32fx_iolib/stm32f4x_iolib/stm32f4x_iolib_168MHz_8MHz.a(system_stm32f4xx.o)
 .debug_abbrev  0x00004d1c      0x187 c:/project/stm32fx_iolib/stm32f4x_iolib/stm32f4x_iolib_168MHz_8MHz.a(misc.o)
 .debug_abbrev  0x00004ea3      0x1e9 c:/project/stm32fx_iolib/stm32f4x_iolib/stm32f4x_iolib_168MHz_8MHz.a(stm32f4xx_adc.o)
 .debug_abbrev  0x0000508c      0x253 c:/project/stm32fx_iolib/stm32f4x_iolib/stm32f4x_iolib_168MHz_8MHz.a(stm32f4xx_dac.o)
 .debug_abbrev  0x000052df      0x1b1 c:/project/stm32fx_iolib/stm32f4x_iolib/stm32f4x_iolib_168MHz_8MHz.a(stm32f4xx_dma.o)
 .debug_abbrev  0x00005490      0x205 c:/project/stm32fx_iolib/stm32f4x_iolib/stm32f4x_iolib_168MHz_8MHz.a(stm32f4xx_exti.o)
 .debug_abbrev  0x00005695      0x257 c:/project/stm32fx_iolib/stm32f4x_iolib/stm32f4x_iolib_168MHz_8MHz.a(stm32f4xx_flash.o)
 .debug_abbrev  0x000058ec      0x230 c:/project/stm32fx_iolib/stm32f4x_iolib/stm32f4x_iolib_168MHz_8MHz.a(stm32f4xx_gpio.o)
 .debug_abbrev  0x00005b1c      0x276 c:/project/stm32fx_iolib/stm32f4x_iolib/stm32f4x_iolib_168MHz_8MHz.a(stm32f4xx_i2c.o)
 .debug_abbrev  0x00005d92      0x13b c:/project/stm32fx_iolib/stm32f4x_iolib/stm32f4x_iolib_168MHz_8MHz.a(stm32f4xx_iwdg.o)
 .debug_abbrev  0x00005ecd      0x218 c:/project/stm32fx_iolib/stm32f4x_iolib/stm32f4x_iolib_168MHz_8MHz.a(stm32f4xx_pwr.o)
 .debug_abbrev  0x000060e5      0x27f c:/project/stm32fx_iolib/stm32f4x_iolib/stm32f4x_iolib_168MHz_8MHz.a(stm32f4xx_rcc.o)
 .debug_abbrev  0x00006364      0x260 c:/project/stm32fx_iolib/stm32f4x_iolib/stm32f4x_iolib_168MHz_8MHz.a(stm32f4xx_rtc.o)
 .debug_abbrev  0x000065c4      0x237 c:/project/stm32fx_iolib/stm32f4x_iolib/stm32f4x_iolib_168MHz_8MHz.a(stm32f4xx_sdio.o)
 .debug_abbrev  0x000067fb      0x1dc c:/project/stm32fx_iolib/stm32f4x_iolib/stm32f4x_iolib_168MHz_8MHz.a(stm32f4xx_spi.o)
 .debug_abbrev  0x000069d7      0x2f3 c:/project/stm32fx_iolib/stm32f4x_iolib/stm32f4x_iolib_168MHz_8MHz.a(stm32f4xx_tim.o)
 .debug_abbrev  0x00006cca      0x1db c:/project/stm32fx_iolib/stm32f4x_iolib/stm32f4x_iolib_168MHz_8MHz.a(stm32f4xx_usart.o)
 .debug_abbrev  0x00006ea5      0x1e5 c:/project/stm32fx_iolib/stm32f4x_iolib/stm32f4x_iolib_168MHz_8MHz.a(stm32f4xx_fsmc.o)
 .debug_abbrev  0x0000708a      0x443 source/audio_codec/mp3/mp3.a(mp3dec.o)
 .debug_abbrev  0x000074cd       0x92 source/audio_codec/mp3/mp3.a(mp3tabs.o)
 .debug_abbrev  0x0000755f      0x270 source/audio_codec/mp3/mp3.a(scalfact.o)
 .debug_abbrev  0x000077cf      0x1b9 source/audio_codec/mp3/mp3.a(subband.o)
 .debug_abbrev  0x00007988      0x104 source/audio_codec/mp3/mp3.a(trigtabs.o)
 .debug_abbrev  0x00007a8c       0x14 source/audio_codec/mp3/mp3.a(asmpoly_thumb2.o)
 .debug_abbrev  0x00007aa0      0x315 source/audio_codec/mp3/mp3.a(bitstream.o)
 .debug_abbrev  0x00007db5      0x207 source/audio_codec/mp3/mp3.a(buffers.o)
 .debug_abbrev  0x00007fbc      0x1be source/audio_codec/mp3/mp3.a(dct32.o)
 .debug_abbrev  0x0000817a      0x270 source/audio_codec/mp3/mp3.a(dequant.o)
 .debug_abbrev  0x000083ea      0x272 source/audio_codec/mp3/mp3.a(dqchan.o)
 .debug_abbrev  0x0000865c      0x2a5 source/audio_codec/mp3/mp3.a(huffman.o)
 .debug_abbrev  0x00008901       0xf1 source/audio_codec/mp3/mp3.a(hufftabs.o)
 .debug_abbrev  0x000089f2      0x3eb source/audio_codec/mp3/mp3.a(imdct.o)
 .debug_abbrev  0x00008ddd      0x1b6 source/audio_codec/mp3/mp3.a(stproc.o)
 .debug_abbrev  0x00008f93       0x14 source/audio_codec/mp3/mp3.a(asmmisc.o)
 .debug_abbrev  0x00008fa7      0x3ea source/audio_codec/flac/flac.a(flacdecoder.o)
 .debug_abbrev  0x00009391       0x61 source/audio_codec/flac/flac.a(tables.o)
 .debug_abbrev  0x000093f2      0x3c6 source/audio_codec/flac/flac.a(bitstreamf.o)
 .debug_abbrev  0x000097b8      0x16a source/audio_codec/ape/ape.a(apedecoder.o)
 .debug_abbrev  0x00009922      0x362 source/audio_codec/ape/ape.a(entropy.o)
 .debug_abbrev  0x00009c84      0x274 source/audio_codec/ape/ape.a(filter_16_11.o)
 .debug_abbrev  0x00009ef8      0x288 source/audio_codec/ape/ape.a(filter_64_11.o)
 .debug_abbrev  0x0000a180      0x251 source/audio_codec/ape/ape.a(parser.o)
 .debug_abbrev  0x0000a3d1      0x10d source/audio_codec/ape/ape.a(predictor.o)
 .debug_abbrev  0x0000a4de       0x14 source/audio_codec/ape/ape.a(predictor-arm.o)

.debug_line     0x00000000    0x25e8c
 *(.debug_line)
 .debug_line    0x00000000      0xad9 FLASH_RUN/main.o
 .debug_line    0x00000ad9      0x9ca FLASH_RUN/serial.o
 .debug_line    0x000014a3      0x779 FLASH_RUN/i2c_app.o
 .debug_line    0x00001c1c      0x3e3 FLASH_RUN/key.o
 .debug_line    0x00001fff     0x1956 FLASH_RUN/lcd.o
 .debug_line    0x00003955      0xb55 FLASH_RUN/print.o
 .debug_line    0x000044aa      0x1ff FLASH_RUN/random_disp.o
 .debug_line    0x000046a9      0xd6f FLASH_RUN/touch_panel.o
 .debug_line    0x00005418      0x67d FLASH_RUN/ir_remocon.o
 .debug_line    0x00005a95      0x3af FLASH_RUN/adc.o
 .debug_line    0x00005e44      0x255 FLASH_RUN/dac1.o
 .debug_line    0x00006099      0x8a7 FLASH_RUN/wm8978.o
 .debug_line    0x00006940     0x243d FLASH_RUN/sdio_sdcard.o
 .debug_line    0x00008d7d      0x55c FLASH_RUN/i2s.o
 .debug_line    0x000092d9      0x3e0 FLASH_RUN/ext_sram.o
 .debug_line    0x000096b9      0x55b FLASH_RUN/rtc.o
 .debug_line    0x00009c14     0x4353 FLASH_RUN/ff.o
 .debug_line    0x0000df67      0x5a8 FLASH_RUN/diskio.o
 .debug_line    0x0000e50f      0x137 FLASH_RUN/cc949.o
 .debug_line    0x0000e646      0xe8f FLASH_RUN/audio.o
 .debug_line    0x0000f4d5      0xb82 FLASH_RUN/mp3play.o
 .debug_line    0x00010057      0x8d5 FLASH_RUN/wavplay.o
 .debug_line    0x0001092c      0xb13 FLASH_RUN/flacplay.o
 .debug_line    0x0001143f      0x96a FLASH_RUN/apeplay.o
 .debug_line    0x00011da9      0x242 c:/project/stm32fx_iolib/stm32f4x_iolib/stm32f4x_iolib_168MHz_8MHz.a(startup_stm32f4xx.o)
 .debug_line    0x00011feb      0x366 c:/project/stm32fx_iolib/stm32f4x_iolib/stm32f4x_iolib_168MHz_8MHz.a(system_stm32f4xx.o)
 .debug_line    0x00012351      0x2d3 c:/project/stm32fx_iolib/stm32f4x_iolib/stm32f4x_iolib_168MHz_8MHz.a(misc.o)
 .debug_line    0x00012624      0xc0f c:/project/stm32fx_iolib/stm32f4x_iolib/stm32f4x_iolib_168MHz_8MHz.a(stm32f4xx_adc.o)
 .debug_line    0x00013233      0x52f c:/project/stm32fx_iolib/stm32f4x_iolib/stm32f4x_iolib_168MHz_8MHz.a(stm32f4xx_dac.o)
 .debug_line    0x00013762      0x7ce c:/project/stm32fx_iolib/stm32f4x_iolib/stm32f4x_iolib_168MHz_8MHz.a(stm32f4xx_dma.o)
 .debug_line    0x00013f30      0x2db c:/project/stm32fx_iolib/stm32f4x_iolib/stm32f4x_iolib_168MHz_8MHz.a(stm32f4xx_exti.o)
 .debug_line    0x0001420b      0xa5e c:/project/stm32fx_iolib/stm32f4x_iolib/stm32f4x_iolib_168MHz_8MHz.a(stm32f4xx_flash.o)
 .debug_line    0x00014c69      0x694 c:/project/stm32fx_iolib/stm32f4x_iolib/stm32f4x_iolib_168MHz_8MHz.a(stm32f4xx_gpio.o)
 .debug_line    0x000152fd      0xa82 c:/project/stm32fx_iolib/stm32f4x_iolib/stm32f4x_iolib_168MHz_8MHz.a(stm32f4xx_i2c.o)
 .debug_line    0x00015d7f      0x201 c:/project/stm32fx_iolib/stm32f4x_iolib/stm32f4x_iolib_168MHz_8MHz.a(stm32f4xx_iwdg.o)
 .debug_line    0x00015f80      0x451 c:/project/stm32fx_iolib/stm32f4x_iolib/stm32f4x_iolib_168MHz_8MHz.a(stm32f4xx_pwr.o)
 .debug_line    0x000163d1      0xe4a c:/project/stm32fx_iolib/stm32f4x_iolib/stm32f4x_iolib_168MHz_8MHz.a(stm32f4xx_rcc.o)
 .debug_line    0x0001721b     0x16b8 c:/project/stm32fx_iolib/stm32f4x_iolib/stm32f4x_iolib_168MHz_8MHz.a(stm32f4xx_rtc.o)
 .debug_line    0x000188d3      0x63b c:/project/stm32fx_iolib/stm32f4x_iolib/stm32f4x_iolib_168MHz_8MHz.a(stm32f4xx_sdio.o)
 .debug_line    0x00018f0e      0x948 c:/project/stm32fx_iolib/stm32f4x_iolib/stm32f4x_iolib_168MHz_8MHz.a(stm32f4xx_spi.o)
 .debug_line    0x00019856     0x1c94 c:/project/stm32fx_iolib/stm32f4x_iolib/stm32f4x_iolib_168MHz_8MHz.a(stm32f4xx_tim.o)
 .debug_line    0x0001b4ea      0xa1f c:/project/stm32fx_iolib/stm32f4x_iolib/stm32f4x_iolib_168MHz_8MHz.a(stm32f4xx_usart.o)
 .debug_line    0x0001bf09      0xa9a c:/project/stm32fx_iolib/stm32f4x_iolib/stm32f4x_iolib_168MHz_8MHz.a(stm32f4xx_fsmc.o)
 .debug_line    0x0001c9a3      0x752 source/audio_codec/mp3/mp3.a(mp3dec.o)
 .debug_line    0x0001d0f5       0x3f source/audio_codec/mp3/mp3.a(mp3tabs.o)
 .debug_line    0x0001d134      0x6f4 source/audio_codec/mp3/mp3.a(scalfact.o)
 .debug_line    0x0001d828      0x1b8 source/audio_codec/mp3/mp3.a(subband.o)
 .debug_line    0x0001d9e0       0x4b source/audio_codec/mp3/mp3.a(trigtabs.o)
 .debug_line    0x0001da2b       0xee source/audio_codec/mp3/mp3.a(asmpoly_thumb2.o)
 .debug_line    0x0001db19      0x781 source/audio_codec/mp3/mp3.a(bitstream.o)
 .debug_line    0x0001e29a      0x2ab source/audio_codec/mp3/mp3.a(buffers.o)
 .debug_line    0x0001e545      0x9e6 source/audio_codec/mp3/mp3.a(dct32.o)
 .debug_line    0x0001ef2b      0x366 source/audio_codec/mp3/mp3.a(dequant.o)
 .debug_line    0x0001f291      0x5d3 source/audio_codec/mp3/mp3.a(dqchan.o)
 .debug_line    0x0001f864      0x9b1 source/audio_codec/mp3/mp3.a(huffman.o)
 .debug_line    0x00020215       0x4b source/audio_codec/mp3/mp3.a(hufftabs.o)
 .debug_line    0x00020260     0x122f source/audio_codec/mp3/mp3.a(imdct.o)
 .debug_line    0x0002148f      0xa21 source/audio_codec/mp3/mp3.a(stproc.o)
 .debug_line    0x00021eb0       0x46 source/audio_codec/mp3/mp3.a(asmmisc.o)
 .debug_line    0x00021ef6     0x15db source/audio_codec/flac/flac.a(flacdecoder.o)
 .debug_line    0x000234d1      0x106 source/audio_codec/flac/flac.a(tables.o)
 .debug_line    0x000235d7      0x443 source/audio_codec/flac/flac.a(bitstreamf.o)
 .debug_line    0x00023a1a      0x33e source/audio_codec/ape/ape.a(apedecoder.o)
 .debug_line    0x00023d58      0x7b9 source/audio_codec/ape/ape.a(entropy.o)
 .debug_line    0x00024511      0x652 source/audio_codec/ape/ape.a(filter_16_11.o)
 .debug_line    0x00024b63      0x7f8 source/audio_codec/ape/ape.a(filter_64_11.o)
 .debug_line    0x0002535b      0x835 source/audio_codec/ape/ape.a(parser.o)
 .debug_line    0x00025b90      0x17f source/audio_codec/ape/ape.a(predictor.o)
 .debug_line    0x00025d0f      0x17d source/audio_codec/ape/ape.a(predictor-arm.o)

.debug_frame    0x00000000     0x60a0
 *(.debug_frame)
 .debug_frame   0x00000000      0x124 FLASH_RUN/main.o
 .debug_frame   0x00000124      0x164 FLASH_RUN/serial.o
 .debug_frame   0x00000288      0x118 FLASH_RUN/i2c_app.o
 .debug_frame   0x000003a0       0x60 FLASH_RUN/key.o
 .debug_frame   0x00000400      0x470 FLASH_RUN/lcd.o
 .debug_frame   0x00000870       0xd4 FLASH_RUN/print.o
 .debug_frame   0x00000944       0x3c FLASH_RUN/random_disp.o
 .debug_frame   0x00000980      0x24c FLASH_RUN/touch_panel.o
 .debug_frame   0x00000bcc       0xb4 FLASH_RUN/ir_remocon.o
 .debug_frame   0x00000c80       0x84 FLASH_RUN/adc.o
 .debug_frame   0x00000d04       0x50 FLASH_RUN/dac1.o
 .debug_frame   0x00000d54      0x210 FLASH_RUN/wm8978.o
 .debug_frame   0x00000f64      0x3d8 FLASH_RUN/sdio_sdcard.o
 .debug_frame   0x0000133c      0x134 FLASH_RUN/i2s.o
 .debug_frame   0x00001470       0x88 FLASH_RUN/ext_sram.o
 .debug_frame   0x000014f8      0x134 FLASH_RUN/rtc.o
 .debug_frame   0x0000162c      0x700 FLASH_RUN/ff.o
 .debug_frame   0x00001d2c       0xe8 FLASH_RUN/diskio.o
 .debug_frame   0x00001e14       0x40 FLASH_RUN/cc949.o
 .debug_frame   0x00001e54      0x1ac FLASH_RUN/audio.o
 .debug_frame   0x00002000      0x158 FLASH_RUN/mp3play.o
 .debug_frame   0x00002158      0x100 FLASH_RUN/wavplay.o
 .debug_frame   0x00002258      0x100 FLASH_RUN/flacplay.o
 .debug_frame   0x00002358       0xec FLASH_RUN/apeplay.o
 .debug_frame   0x00002444       0x58 c:/project/stm32fx_iolib/stm32f4x_iolib/stm32f4x_iolib_168MHz_8MHz.a(startup_stm32f4xx.o)
 .debug_frame   0x0000249c       0x38 c:/project/stm32fx_iolib/stm32f4x_iolib/stm32f4x_iolib_168MHz_8MHz.a(system_stm32f4xx.o)
 .debug_frame   0x000024d4       0x6c c:/project/stm32fx_iolib/stm32f4x_iolib/stm32f4x_iolib_168MHz_8MHz.a(misc.o)
 .debug_frame   0x00002540      0x2b4 c:/project/stm32fx_iolib/stm32f4x_iolib/stm32f4x_iolib_168MHz_8MHz.a(stm32f4xx_adc.o)
 .debug_frame   0x000027f4      0x150 c:/project/stm32fx_iolib/stm32f4x_iolib/stm32f4x_iolib_168MHz_8MHz.a(stm32f4xx_dac.o)
 .debug_frame   0x00002944      0x160 c:/project/stm32fx_iolib/stm32f4x_iolib/stm32f4x_iolib_168MHz_8MHz.a(stm32f4xx_dma.o)
 .debug_frame   0x00002aa4       0x9c c:/project/stm32fx_iolib/stm32f4x_iolib/stm32f4x_iolib_168MHz_8MHz.a(stm32f4xx_exti.o)
 .debug_frame   0x00002b40      0x32c c:/project/stm32fx_iolib/stm32f4x_iolib/stm32f4x_iolib_168MHz_8MHz.a(stm32f4xx_flash.o)
 .debug_frame   0x00002e6c      0x140 c:/project/stm32fx_iolib/stm32f4x_iolib/stm32f4x_iolib_168MHz_8MHz.a(stm32f4xx_gpio.o)
 .debug_frame   0x00002fac      0x278 c:/project/stm32fx_iolib/stm32f4x_iolib/stm32f4x_iolib_168MHz_8MHz.a(stm32f4xx_i2c.o)
 .debug_frame   0x00003224       0x70 c:/project/stm32fx_iolib/stm32f4x_iolib/stm32f4x_iolib_168MHz_8MHz.a(stm32f4xx_iwdg.o)
 .debug_frame   0x00003294      0x11c c:/project/stm32fx_iolib/stm32f4x_iolib/stm32f4x_iolib_168MHz_8MHz.a(stm32f4xx_pwr.o)
 .debug_frame   0x000033b0      0x378 c:/project/stm32fx_iolib/stm32f4x_iolib/stm32f4x_iolib_168MHz_8MHz.a(stm32f4xx_rcc.o)
 .debug_frame   0x00003728      0x4c8 c:/project/stm32fx_iolib/stm32f4x_iolib/stm32f4x_iolib_168MHz_8MHz.a(stm32f4xx_rtc.o)
 .debug_frame   0x00003bf0      0x21c c:/project/stm32fx_iolib/stm32f4x_iolib/stm32f4x_iolib_168MHz_8MHz.a(stm32f4xx_sdio.o)
 .debug_frame   0x00003e0c      0x1e4 c:/project/stm32fx_iolib/stm32f4x_iolib/stm32f4x_iolib_168MHz_8MHz.a(stm32f4xx_spi.o)
 .debug_frame   0x00003ff0      0x6bc c:/project/stm32fx_iolib/stm32f4x_iolib/stm32f4x_iolib_168MHz_8MHz.a(stm32f4xx_tim.o)
 .debug_frame   0x000046ac      0x224 c:/project/stm32fx_iolib/stm32f4x_iolib/stm32f4x_iolib_168MHz_8MHz.a(stm32f4xx_usart.o)
 .debug_frame   0x000048d0      0x160 c:/project/stm32fx_iolib/stm32f4x_iolib/stm32f4x_iolib_168MHz_8MHz.a(stm32f4xx_fsmc.o)
 .debug_frame   0x00004a30       0xc4 source/audio_codec/mp3/mp3.a(mp3dec.o)
 .debug_frame   0x00004af4       0x60 source/audio_codec/mp3/mp3.a(scalfact.o)
 .debug_frame   0x00004b54       0x4c source/audio_codec/mp3/mp3.a(subband.o)
 .debug_frame   0x00004ba0       0xd8 source/audio_codec/mp3/mp3.a(bitstream.o)
 .debug_frame   0x00004c78       0x68 source/audio_codec/mp3/mp3.a(buffers.o)
 .debug_frame   0x00004ce0       0x4c source/audio_codec/mp3/mp3.a(dct32.o)
 .debug_frame   0x00004d2c       0x4c source/audio_codec/mp3/mp3.a(dequant.o)
 .debug_frame   0x00004d78       0x88 source/audio_codec/mp3/mp3.a(dqchan.o)
 .debug_frame   0x00004e00       0x48 source/audio_codec/mp3/mp3.a(huffman.o)
 .debug_frame   0x00004e48      0x14c source/audio_codec/mp3/mp3.a(imdct.o)
 .debug_frame   0x00004f94       0xb0 source/audio_codec/mp3/mp3.a(stproc.o)
 .debug_frame   0x00005044      0x1b0 source/audio_codec/flac/flac.a(flacdecoder.o)
 .debug_frame   0x000051f4       0xa8 source/audio_codec/flac/flac.a(bitstreamf.o)
 .debug_frame   0x0000529c       0x80 source/audio_codec/ape/ape.a(apedecoder.o)
 .debug_frame   0x0000531c      0x154 source/audio_codec/ape/ape.a(entropy.o)
 .debug_frame   0x00005470       0x90 source/audio_codec/ape/ape.a(filter_16_11.o)
 .debug_frame   0x00005500       0xa4 source/audio_codec/ape/ape.a(filter_64_11.o)
 .debug_frame   0x000055a4       0xb4 source/audio_codec/ape/ape.a(parser.o)
 .debug_frame   0x00005658       0x2c source/audio_codec/ape/ape.a(predictor.o)
 .debug_frame   0x00005684       0x28 c:/program files (x86)/arm gnu toolchain arm-none-eabi/12.2 mpacbti-rel1/bin/../lib/gcc/arm-none-eabi/12.2.1/thumb/v7e-m+fp/hard\libc.a(libc_a-abort.o)
 .debug_frame   0x000056ac       0x30 c:/program files (x86)/arm gnu toolchain arm-none-eabi/12.2 mpacbti-rel1/bin/../lib/gcc/arm-none-eabi/12.2.1/thumb/v7e-m+fp/hard\libc.a(libc_a-malloc.o)
 .debug_frame   0x000056dc       0x48 c:/program files (x86)/arm gnu toolchain arm-none-eabi/12.2 mpacbti-rel1/bin/../lib/gcc/arm-none-eabi/12.2.1/thumb/v7e-m+fp/hard\libc.a(libc_a-mallocr.o)
 .debug_frame   0x00005724       0x30 c:/program files (x86)/arm gnu toolchain arm-none-eabi/12.2 mpacbti-rel1/bin/../lib/gcc/arm-none-eabi/12.2.1/thumb/v7e-m+fp/hard\libc.a(libc_a-mlock.o)
 .debug_frame   0x00005754       0x3c c:/program files (x86)/arm gnu toolchain arm-none-eabi/12.2 mpacbti-rel1/bin/../lib/gcc/arm-none-eabi/12.2.1/thumb/v7e-m+fp/hard\libc.a(libc_a-rand.o)
 .debug_frame   0x00005790       0x2c c:/program files (x86)/arm gnu toolchain arm-none-eabi/12.2 mpacbti-rel1/bin/../lib/gcc/arm-none-eabi/12.2.1/thumb/v7e-m+fp/hard\libc.a(libc_a-memcmp.o)
 .debug_frame   0x000057bc       0x40 c:/program files (x86)/arm gnu toolchain arm-none-eabi/12.2 mpacbti-rel1/bin/../lib/gcc/arm-none-eabi/12.2.1/thumb/v7e-m+fp/hard\libc.a(libc_a-memmove.o)
 .debug_frame   0x000057fc       0x2c c:/program files (x86)/arm gnu toolchain arm-none-eabi/12.2 mpacbti-rel1/bin/../lib/gcc/arm-none-eabi/12.2.1/thumb/v7e-m+fp/hard\libc.a(libc_a-memset.o)
 .debug_frame   0x00005828       0x38 c:/program files (x86)/arm gnu toolchain arm-none-eabi/12.2 mpacbti-rel1/bin/../lib/gcc/arm-none-eabi/12.2.1/thumb/v7e-m+fp/hard\libc.a(libc_a-strcasecmp.o)
 .debug_frame   0x00005860       0x28 c:/program files (x86)/arm gnu toolchain arm-none-eabi/12.2 mpacbti-rel1/bin/../lib/gcc/arm-none-eabi/12.2.1/thumb/v7e-m+fp/hard\libc.a(libc_a-strcat.o)
 .debug_frame   0x00005888       0x38 c:/program files (x86)/arm gnu toolchain arm-none-eabi/12.2 mpacbti-rel1/bin/../lib/gcc/arm-none-eabi/12.2.1/thumb/v7e-m+fp/hard\libc.a(libc_a-strncmp.o)
 .debug_frame   0x000058c0       0x28 c:/program files (x86)/arm gnu toolchain arm-none-eabi/12.2 mpacbti-rel1/bin/../lib/gcc/arm-none-eabi/12.2.1/thumb/v7e-m+fp/hard\libc.a(libc_a-strncpy.o)
 .debug_frame   0x000058e8      0x118 c:/program files (x86)/arm gnu toolchain arm-none-eabi/12.2 mpacbti-rel1/bin/../lib/gcc/arm-none-eabi/12.2.1/thumb/v7e-m+fp/hard\libc.a(libc_a-signal.o)
 .debug_frame   0x00005a00       0x3c c:/program files (x86)/arm gnu toolchain arm-none-eabi/12.2 mpacbti-rel1/bin/../lib/gcc/arm-none-eabi/12.2.1/thumb/v7e-m+fp/hard\libc.a(libc_a-signalr.o)
 .debug_frame   0x00005a3c       0x2c c:/program files (x86)/arm gnu toolchain arm-none-eabi/12.2 mpacbti-rel1/bin/../lib/gcc/arm-none-eabi/12.2.1/thumb/v7e-m+fp/hard\libc.a(libc_a-sbrkr.o)
 .debug_frame   0x00005a68       0x20 c:/program files (x86)/arm gnu toolchain arm-none-eabi/12.2 mpacbti-rel1/bin/../lib/gcc/arm-none-eabi/12.2.1/thumb/v7e-m+fp/hard\libc.a(libc_a-errno.o)
 .debug_frame   0x00005a88       0xb0 c:/program files (x86)/arm gnu toolchain arm-none-eabi/12.2 mpacbti-rel1/bin/../lib/gcc/arm-none-eabi/12.2.1/thumb/v7e-m+fp/hard\libc.a(libc_a-lock.o)
 .debug_frame   0x00005b38       0x28 c:/program files (x86)/arm gnu toolchain arm-none-eabi/12.2 mpacbti-rel1/bin/../lib/gcc/arm-none-eabi/12.2.1/thumb/v7e-m+fp/hard\libc.a(libc_a-sysconf.o)
 .debug_frame   0x00005b60       0x20 c:/program files (x86)/arm gnu toolchain arm-none-eabi/12.2 mpacbti-rel1/bin/../lib/gcc/arm-none-eabi/12.2.1/thumb/v7e-m+fp/hard\libc.a(libc_a-strcpy.o)
 .debug_frame   0x00005b80       0x78 c:/program files (x86)/arm gnu toolchain arm-none-eabi/12.2 mpacbti-rel1/bin/../lib/gcc/arm-none-eabi/12.2.1/thumb/v7e-m+fp/hard\libc.a(libc_a-freer.o)
 .debug_frame   0x00005bf8       0x20 c:/program files (x86)/arm gnu toolchain arm-none-eabi/12.2 mpacbti-rel1/bin/../lib/gcc/arm-none-eabi/12.2.1/thumb/v7e-m+fp/hard\libc.a(libc_a-ctype_.o)
 .debug_frame   0x00005c18      0x13c c:/program files (x86)/arm gnu toolchain arm-none-eabi/12.2 mpacbti-rel1/bin/../lib/gcc/arm-none-eabi/12.2.1/thumb/v7e-m+fp/hard\libc.a(libc_a-findfp.o)
 .debug_frame   0x00005d54       0x48 c:/program files (x86)/arm gnu toolchain arm-none-eabi/12.2 mpacbti-rel1/bin/../lib/gcc/arm-none-eabi/12.2.1/thumb/v7e-m+fp/hard\libm.a(libm_a-w_sqrt.o)
 .debug_frame   0x00005d9c       0x38 c:/program files (x86)/arm gnu toolchain arm-none-eabi/12.2 mpacbti-rel1/bin/../lib/gcc/arm-none-eabi/12.2.1/thumb/v7e-m+fp/hard\libm.a(libm_a-e_sqrt.o)
 .debug_frame   0x00005dd4       0xac c:/program files (x86)/arm gnu toolchain arm-none-eabi/12.2 mpacbti-rel1/bin/../lib/gcc/arm-none-eabi/12.2.1/thumb/v7e-m+fp/hard\libgcc.a(_arm_addsubdf3.o)
 .debug_frame   0x00005e80       0x50 c:/program files (x86)/arm gnu toolchain arm-none-eabi/12.2 mpacbti-rel1/bin/../lib/gcc/arm-none-eabi/12.2.1/thumb/v7e-m+fp/hard\libgcc.a(_arm_muldivdf3.o)
 .debug_frame   0x00005ed0       0xc4 c:/program files (x86)/arm gnu toolchain arm-none-eabi/12.2 mpacbti-rel1/bin/../lib/gcc/arm-none-eabi/12.2.1/thumb/v7e-m+fp/hard\libgcc.a(_arm_cmpdf2.o)
 .debug_frame   0x00005f94       0x20 c:/program files (x86)/arm gnu toolchain arm-none-eabi/12.2 mpacbti-rel1/bin/../lib/gcc/arm-none-eabi/12.2.1/thumb/v7e-m+fp/hard\libgcc.a(_arm_unorddf2.o)
 .debug_frame   0x00005fb4       0x24 c:/program files (x86)/arm gnu toolchain arm-none-eabi/12.2 mpacbti-rel1/bin/../lib/gcc/arm-none-eabi/12.2.1/thumb/v7e-m+fp/hard\libgcc.a(_arm_fixdfsi.o)
 .debug_frame   0x00005fd8       0x24 c:/program files (x86)/arm gnu toolchain arm-none-eabi/12.2 mpacbti-rel1/bin/../lib/gcc/arm-none-eabi/12.2.1/thumb/v7e-m+fp/hard\libgcc.a(_arm_fixunsdfsi.o)
 .debug_frame   0x00005ffc       0x44 c:/program files (x86)/arm gnu toolchain arm-none-eabi/12.2 mpacbti-rel1/bin/../lib/gcc/arm-none-eabi/12.2.1/thumb/v7e-m+fp/hard\libgcc.a(_aeabi_ldivmod.o)
 .debug_frame   0x00006040       0x2c c:/program files (x86)/arm gnu toolchain arm-none-eabi/12.2 mpacbti-rel1/bin/../lib/gcc/arm-none-eabi/12.2.1/thumb/v7e-m+fp/hard\libgcc.a(_aeabi_uldivmod.o)
 .debug_frame   0x0000606c       0x34 c:/program files (x86)/arm gnu toolchain arm-none-eabi/12.2 mpacbti-rel1/bin/../lib/gcc/arm-none-eabi/12.2.1/thumb/v7e-m+fp/hard\libgcc.a(_udivmoddi4.o)

.debug_str      0x00000000     0xa050
 *(.debug_str)
 .debug_str     0x00000000      0xe63 FLASH_RUN/main.o
                                0xf21 (size before relaxing)
 .debug_str     0x00000e63      0x32f FLASH_RUN/serial.o
                                0xc1e (size before relaxing)
 .debug_str     0x00001192      0x265 FLASH_RUN/i2c_app.o
                                0x5fd (size before relaxing)
 .debug_str     0x000013f7       0x71 FLASH_RUN/key.o
                                0x350 (size before relaxing)
 .debug_str     0x00001468      0x6f1 FLASH_RUN/lcd.o
                                0xa80 (size before relaxing)
 .debug_str     0x00001b59       0xeb FLASH_RUN/print.o
                                0x25c (size before relaxing)
 .debug_str     0x00001c44       0x5c FLASH_RUN/random_disp.o
                                0x214 (size before relaxing)
 .debug_str     0x00001ca0      0x136 FLASH_RUN/touch_panel.o
                                0x5a5 (size before relaxing)
 .debug_str     0x00001dd6      0x362 FLASH_RUN/ir_remocon.o
                                0xcfb (size before relaxing)
 .debug_str     0x00002138      0x2e7 FLASH_RUN/adc.o
                                0x610 (size before relaxing)
 .debug_str     0x0000241f       0xa9 FLASH_RUN/dac1.o
                                0x3de (size before relaxing)
 .debug_str     0x000024c8      0x1c5 FLASH_RUN/wm8978.o
                                0x5b3 (size before relaxing)
 .debug_str     0x0000268d      0xd8b FLASH_RUN/sdio_sdcard.o
                               0x16b8 (size before relaxing)
 .debug_str     0x00003418      0x36b FLASH_RUN/i2s.o
                                0xcc7 (size before relaxing)
 .debug_str     0x00003783      0x140 FLASH_RUN/ext_sram.o
                                0x66b (size before relaxing)
 .debug_str     0x000038c3      0x3cb FLASH_RUN/rtc.o
                                0xc4d (size before relaxing)
 .debug_str     0x00003c8e      0x636 FLASH_RUN/ff.o
                                0x831 (size before relaxing)
 .debug_str     0x000042c4       0x6a FLASH_RUN/diskio.o
                                0x9d2 (size before relaxing)
 .debug_str     0x0000432e       0x40 FLASH_RUN/cc949.o
                                0x1bf (size before relaxing)
 .debug_str     0x0000436e      0x28d FLASH_RUN/audio.o
                                0xc7e (size before relaxing)
 .debug_str     0x000045fb      0x2d5 FLASH_RUN/mp3play.o
                                0x8ff (size before relaxing)
 .debug_str     0x000048d0      0x17a FLASH_RUN/wavplay.o
                                0x73e (size before relaxing)
 .debug_str     0x00004a4a      0x270 FLASH_RUN/flacplay.o
                                0x8de (size before relaxing)
 .debug_str     0x00004cba      0x333 FLASH_RUN/apeplay.o
                                0x98d (size before relaxing)
 .debug_str     0x00004fed      0x1a7 c:/project/stm32fx_iolib/stm32f4x_iolib/stm32f4x_iolib_168MHz_8MHz.a(startup_stm32f4xx.o)
                                0x306 (size before relaxing)
 .debug_str     0x00005194       0xaf c:/project/stm32fx_iolib/stm32f4x_iolib/stm32f4x_iolib_168MHz_8MHz.a(system_stm32f4xx.o)
                                0x3f9 (size before relaxing)
 .debug_str     0x00005243       0xac c:/project/stm32fx_iolib/stm32f4x_iolib/stm32f4x_iolib_168MHz_8MHz.a(misc.o)
                                0x3db (size before relaxing)
 .debug_str     0x000052ef      0x436 c:/project/stm32fx_iolib/stm32f4x_iolib/stm32f4x_iolib_168MHz_8MHz.a(stm32f4xx_adc.o)
                                0x828 (size before relaxing)
 .debug_str     0x00005725      0x1c6 c:/project/stm32fx_iolib/stm32f4x_iolib/stm32f4x_iolib_168MHz_8MHz.a(stm32f4xx_dac.o)
                                0x477 (size before relaxing)
 .debug_str     0x000058eb      0x161 c:/project/stm32fx_iolib/stm32f4x_iolib/stm32f4x_iolib_168MHz_8MHz.a(stm32f4xx_dma.o)
                                0x54f (size before relaxing)
 .debug_str     0x00005a4c       0xad c:/project/stm32fx_iolib/stm32f4x_iolib/stm32f4x_iolib_168MHz_8MHz.a(stm32f4xx_exti.o)
                                0x359 (size before relaxing)
 .debug_str     0x00005af9      0x37a c:/project/stm32fx_iolib/stm32f4x_iolib/stm32f4x_iolib_168MHz_8MHz.a(stm32f4xx_flash.o)
                                0x6ac (size before relaxing)
 .debug_str     0x00005e73      0x179 c:/project/stm32fx_iolib/stm32f4x_iolib/stm32f4x_iolib_168MHz_8MHz.a(stm32f4xx_gpio.o)
                                0x4e3 (size before relaxing)
 .debug_str     0x00005fec      0x281 c:/project/stm32fx_iolib/stm32f4x_iolib/stm32f4x_iolib_168MHz_8MHz.a(stm32f4xx_i2c.o)
                                0x6e8 (size before relaxing)
 .debug_str     0x0000626d       0x62 c:/project/stm32fx_iolib/stm32f4x_iolib/stm32f4x_iolib_168MHz_8MHz.a(stm32f4xx_iwdg.o)
                                0x279 (size before relaxing)
 .debug_str     0x000062cf      0x187 c:/project/stm32fx_iolib/stm32f4x_iolib/stm32f4x_iolib_168MHz_8MHz.a(stm32f4xx_pwr.o)
                                0x3f3 (size before relaxing)
 .debug_str     0x00006456      0x4fc c:/project/stm32fx_iolib/stm32f4x_iolib/stm32f4x_iolib_168MHz_8MHz.a(stm32f4xx_rcc.o)
                                0x9cf (size before relaxing)
 .debug_str     0x00006952      0x70a c:/project/stm32fx_iolib/stm32f4x_iolib/stm32f4x_iolib_168MHz_8MHz.a(stm32f4xx_rtc.o)
                                0xb55 (size before relaxing)
 .debug_str     0x0000705c      0x23c c:/project/stm32fx_iolib/stm32f4x_iolib/stm32f4x_iolib_168MHz_8MHz.a(stm32f4xx_sdio.o)
                                0x664 (size before relaxing)
 .debug_str     0x00007298      0x2b1 c:/project/stm32fx_iolib/stm32f4x_iolib/stm32f4x_iolib_168MHz_8MHz.a(stm32f4xx_spi.o)
                                0x6ea (size before relaxing)
 .debug_str     0x00007549      0x96e c:/project/stm32fx_iolib/stm32f4x_iolib/stm32f4x_iolib_168MHz_8MHz.a(stm32f4xx_tim.o)
                                0xe0b (size before relaxing)
 .debug_str     0x00007eb7      0x2fc c:/project/stm32fx_iolib/stm32f4x_iolib/stm32f4x_iolib_168MHz_8MHz.a(stm32f4xx_usart.o)
                                0x6dc (size before relaxing)
 .debug_str     0x000081b3      0x3d3 c:/project/stm32fx_iolib/stm32f4x_iolib/stm32f4x_iolib_168MHz_8MHz.a(stm32f4xx_fsmc.o)
                                0x7e7 (size before relaxing)
 .debug_str     0x00008586      0x8ec source/audio_codec/mp3/mp3.a(mp3dec.o)
                                0xaf0 (size before relaxing)
 .debug_str     0x00008e72       0x10 source/audio_codec/mp3/mp3.a(mp3tabs.o)
                                0x1ec (size before relaxing)
 .debug_str     0x00008e82      0x3aa source/audio_codec/mp3/mp3.a(scalfact.o)
                                0x786 (size before relaxing)
 .debug_str     0x0000922c       0x9d source/audio_codec/mp3/mp3.a(subband.o)
                                0x544 (size before relaxing)
 .debug_str     0x000092c9       0x22 source/audio_codec/mp3/mp3.a(trigtabs.o)
                                0x360 (size before relaxing)
 .debug_str     0x000092eb       0x25 source/audio_codec/mp3/mp3.a(asmpoly_thumb2.o)
                                 0x67 (size before relaxing)
 .debug_str     0x00009310       0x42 source/audio_codec/mp3/mp3.a(bitstream.o)
                                0x70b (size before relaxing)
 .debug_str     0x00009352      0x183 source/audio_codec/mp3/mp3.a(buffers.o)
                                0x624 (size before relaxing)
 .debug_str     0x000094d5       0x38 source/audio_codec/mp3/mp3.a(dct32.o)
                                0x39c (size before relaxing)
 .debug_str     0x0000950d       0x73 source/audio_codec/mp3/mp3.a(dequant.o)
                                0x77b (size before relaxing)
 .debug_str     0x00009580       0xbe source/audio_codec/mp3/mp3.a(dqchan.o)
                                0x647 (size before relaxing)
 .debug_str     0x0000963e       0x89 source/audio_codec/mp3/mp3.a(huffman.o)
                                0x6f1 (size before relaxing)
 .debug_str     0x000096c7       0x11 source/audio_codec/mp3/mp3.a(hufftabs.o)
                                0x34f (size before relaxing)
 .debug_str     0x000096d8      0x16f source/audio_codec/mp3/mp3.a(imdct.o)
                                0x815 (size before relaxing)
 .debug_str     0x00009847       0x4f source/audio_codec/mp3/mp3.a(stproc.o)
                                0x55a (size before relaxing)
 .debug_str     0x00009896       0x10 source/audio_codec/mp3/mp3.a(asmmisc.o)
                                 0x60 (size before relaxing)
 .debug_str     0x000098a6      0x2be source/audio_codec/flac/flac.a(flacdecoder.o)
                                0x66e (size before relaxing)
 .debug_str     0x00009b64       0x11 source/audio_codec/flac/flac.a(tables.o)
                                0x1d3 (size before relaxing)
 .debug_str     0x00009b75       0x46 source/audio_codec/flac/flac.a(bitstreamf.o)
                                0x6c5 (size before relaxing)
 .debug_str     0x00009bbb      0x131 source/audio_codec/ape/ape.a(apedecoder.o)
                                0x549 (size before relaxing)
 .debug_str     0x00009cec      0x1f2 source/audio_codec/ape/ape.a(entropy.o)
                                0x667 (size before relaxing)
 .debug_str     0x00009ede       0x9b source/audio_codec/ape/ape.a(filter_16_11.o)
                                0x2b0 (size before relaxing)
 .debug_str     0x00009f79       0x16 source/audio_codec/ape/ape.a(filter_64_11.o)
                                0x2b6 (size before relaxing)
 .debug_str     0x00009f8f       0x7a source/audio_codec/ape/ape.a(parser.o)
                                0x567 (size before relaxing)
 .debug_str     0x0000a009       0x22 source/audio_codec/ape/ape.a(predictor.o)
                                0x241 (size before relaxing)
 .debug_str     0x0000a02b       0x25 source/audio_codec/ape/ape.a(predictor-arm.o)
                                 0x4f (size before relaxing)

.debug_loc      0x00000000    0x27167
 *(.debug_loc)
 .debug_loc     0x00000000      0x2cd FLASH_RUN/main.o
 .debug_loc     0x000002cd      0x27b FLASH_RUN/serial.o
 .debug_loc     0x00000548      0x2b2 FLASH_RUN/i2c_app.o
 .debug_loc     0x000007fa       0x16 FLASH_RUN/key.o
 .debug_loc     0x00000810     0x1a90 FLASH_RUN/lcd.o
 .debug_loc     0x000022a0     0x134d FLASH_RUN/print.o
 .debug_loc     0x000035ed      0x14d FLASH_RUN/random_disp.o
 .debug_loc     0x0000373a      0xbca FLASH_RUN/touch_panel.o
 .debug_loc     0x00004304      0x2ce FLASH_RUN/ir_remocon.o
 .debug_loc     0x000045d2      0x139 FLASH_RUN/adc.o
 .debug_loc     0x0000470b       0x6d FLASH_RUN/dac1.o
 .debug_loc     0x00004778      0xbdd FLASH_RUN/wm8978.o
 .debug_loc     0x00005355     0x1ef3 FLASH_RUN/sdio_sdcard.o
 .debug_loc     0x00007248      0x382 FLASH_RUN/i2s.o
 .debug_loc     0x000075ca      0x1c3 FLASH_RUN/ext_sram.o
 .debug_loc     0x0000778d      0x4f7 FLASH_RUN/rtc.o
 .debug_loc     0x00007c84     0x655f FLASH_RUN/ff.o
 .debug_loc     0x0000e1e3      0x62b FLASH_RUN/diskio.o
 .debug_loc     0x0000e80e      0x1f1 FLASH_RUN/cc949.o
 .debug_loc     0x0000e9ff      0x54e FLASH_RUN/audio.o
 .debug_loc     0x0000ef4d      0x7d7 FLASH_RUN/mp3play.o
 .debug_loc     0x0000f724      0x4f3 FLASH_RUN/wavplay.o
 .debug_loc     0x0000fc17      0x4bc FLASH_RUN/flacplay.o
 .debug_loc     0x000100d3      0x1e6 FLASH_RUN/apeplay.o
 .debug_loc     0x000102b9      0x107 c:/project/stm32fx_iolib/stm32f4x_iolib/stm32f4x_iolib_168MHz_8MHz.a(system_stm32f4xx.o)
 .debug_loc     0x000103c0      0x176 c:/project/stm32fx_iolib/stm32f4x_iolib/stm32f4x_iolib_168MHz_8MHz.a(misc.o)
 .debug_loc     0x00010536      0xc6a c:/project/stm32fx_iolib/stm32f4x_iolib/stm32f4x_iolib_168MHz_8MHz.a(stm32f4xx_adc.o)
 .debug_loc     0x000111a0      0x399 c:/project/stm32fx_iolib/stm32f4x_iolib/stm32f4x_iolib_168MHz_8MHz.a(stm32f4xx_dac.o)
 .debug_loc     0x00011539      0x3eb c:/project/stm32fx_iolib/stm32f4x_iolib/stm32f4x_iolib_168MHz_8MHz.a(stm32f4xx_dma.o)
 .debug_loc     0x00011924      0x121 c:/project/stm32fx_iolib/stm32f4x_iolib/stm32f4x_iolib_168MHz_8MHz.a(stm32f4xx_exti.o)
 .debug_loc     0x00011a45      0x867 c:/project/stm32fx_iolib/stm32f4x_iolib/stm32f4x_iolib_168MHz_8MHz.a(stm32f4xx_flash.o)
 .debug_loc     0x000122ac      0x555 c:/project/stm32fx_iolib/stm32f4x_iolib/stm32f4x_iolib_168MHz_8MHz.a(stm32f4xx_gpio.o)
 .debug_loc     0x00012801      0x80f c:/project/stm32fx_iolib/stm32f4x_iolib/stm32f4x_iolib_168MHz_8MHz.a(stm32f4xx_i2c.o)
 .debug_loc     0x00013010       0x4f c:/project/stm32fx_iolib/stm32f4x_iolib/stm32f4x_iolib_168MHz_8MHz.a(stm32f4xx_iwdg.o)
 .debug_loc     0x0001305f      0x195 c:/project/stm32fx_iolib/stm32f4x_iolib/stm32f4x_iolib_168MHz_8MHz.a(stm32f4xx_pwr.o)
 .debug_loc     0x000131f4      0xe2c c:/project/stm32fx_iolib/stm32f4x_iolib/stm32f4x_iolib_168MHz_8MHz.a(stm32f4xx_rcc.o)
 .debug_loc     0x00014020     0x1114 c:/project/stm32fx_iolib/stm32f4x_iolib/stm32f4x_iolib_168MHz_8MHz.a(stm32f4xx_rtc.o)
 .debug_loc     0x00015134      0x1c6 c:/project/stm32fx_iolib/stm32f4x_iolib/stm32f4x_iolib_168MHz_8MHz.a(stm32f4xx_sdio.o)
 .debug_loc     0x000152fa      0x6d3 c:/project/stm32fx_iolib/stm32f4x_iolib/stm32f4x_iolib_168MHz_8MHz.a(stm32f4xx_spi.o)
 .debug_loc     0x000159cd     0x1c7f c:/project/stm32fx_iolib/stm32f4x_iolib/stm32f4x_iolib_168MHz_8MHz.a(stm32f4xx_tim.o)
 .debug_loc     0x0001764c      0x905 c:/project/stm32fx_iolib/stm32f4x_iolib/stm32f4x_iolib_168MHz_8MHz.a(stm32f4xx_usart.o)
 .debug_loc     0x00017f51      0x874 c:/project/stm32fx_iolib/stm32f4x_iolib/stm32f4x_iolib_168MHz_8MHz.a(stm32f4xx_fsmc.o)
 .debug_loc     0x000187c5      0x87f source/audio_codec/mp3/mp3.a(mp3dec.o)
 .debug_loc     0x00019044     0x109c source/audio_codec/mp3/mp3.a(scalfact.o)
 .debug_loc     0x0001a0e0      0x1a0 source/audio_codec/mp3/mp3.a(subband.o)
 .debug_loc     0x0001a280      0x4ce source/audio_codec/mp3/mp3.a(bitstream.o)
 .debug_loc     0x0001a74e      0x240 source/audio_codec/mp3/mp3.a(buffers.o)
 .debug_loc     0x0001a98e     0x1047 source/audio_codec/mp3/mp3.a(dct32.o)
 .debug_loc     0x0001b9d5      0x394 source/audio_codec/mp3/mp3.a(dequant.o)
 .debug_loc     0x0001bd69      0x89e source/audio_codec/mp3/mp3.a(dqchan.o)
 .debug_loc     0x0001c607     0x130b source/audio_codec/mp3/mp3.a(huffman.o)
 .debug_loc     0x0001d912     0x296a source/audio_codec/mp3/mp3.a(imdct.o)
 .debug_loc     0x0002027c     0x1332 source/audio_codec/mp3/mp3.a(stproc.o)
 .debug_loc     0x000215ae     0x290c source/audio_codec/flac/flac.a(flacdecoder.o)
 .debug_loc     0x00023eba      0x554 source/audio_codec/flac/flac.a(bitstreamf.o)
 .debug_loc     0x0002440e      0x491 source/audio_codec/ape/ape.a(apedecoder.o)
 .debug_loc     0x0002489f      0x7ba source/audio_codec/ape/ape.a(entropy.o)
 .debug_loc     0x00025059      0x9f8 source/audio_codec/ape/ape.a(filter_16_11.o)
 .debug_loc     0x00025a51     0x14c1 source/audio_codec/ape/ape.a(filter_64_11.o)
 .debug_loc     0x00026f12      0x223 source/audio_codec/ape/ape.a(parser.o)
 .debug_loc     0x00027135       0x32 source/audio_codec/ape/ape.a(predictor.o)

.debug_macinfo
 *(.debug_macinfo)

.debug_weaknames
 *(.debug_weaknames)

.debug_funcnames
 *(.debug_funcnames)

.debug_typenames
 *(.debug_typenames)

.debug_varnames
 *(.debug_varnames)

.debug_pubtypes
 *(.debug_pubtypes)

.debug_ranges   0x00000000     0x29c8
 *(.debug_ranges)
 .debug_ranges  0x00000000       0xa8 FLASH_RUN/main.o
 .debug_ranges  0x000000a8       0x70 FLASH_RUN/serial.o
 .debug_ranges  0x00000118       0x78 FLASH_RUN/i2c_app.o
 .debug_ranges  0x00000190       0x48 FLASH_RUN/key.o
 .debug_ranges  0x000001d8      0x1b0 FLASH_RUN/lcd.o
 .debug_ranges  0x00000388      0x1e8 FLASH_RUN/print.o
 .debug_ranges  0x00000570       0x10 FLASH_RUN/random_disp.o
 .debug_ranges  0x00000580       0x70 FLASH_RUN/touch_panel.o
 .debug_ranges  0x000005f0       0x30 FLASH_RUN/ir_remocon.o
 .debug_ranges  0x00000620       0x48 FLASH_RUN/adc.o
 .debug_ranges  0x00000668       0x18 FLASH_RUN/dac1.o
 .debug_ranges  0x00000680      0x150 FLASH_RUN/wm8978.o
 .debug_ranges  0x000007d0      0x100 FLASH_RUN/sdio_sdcard.o
 .debug_ranges  0x000008d0       0x60 FLASH_RUN/i2s.o
 .debug_ranges  0x00000930       0x30 FLASH_RUN/ext_sram.o
 .debug_ranges  0x00000960       0x58 FLASH_RUN/rtc.o
 .debug_ranges  0x000009b8      0x390 FLASH_RUN/ff.o
 .debug_ranges  0x00000d48       0x58 FLASH_RUN/diskio.o
 .debug_ranges  0x00000da0       0x18 FLASH_RUN/cc949.o
 .debug_ranges  0x00000db8       0xa0 FLASH_RUN/audio.o
 .debug_ranges  0x00000e58       0x58 FLASH_RUN/mp3play.o
 .debug_ranges  0x00000eb0       0x70 FLASH_RUN/wavplay.o
 .debug_ranges  0x00000f20       0x40 FLASH_RUN/flacplay.o
 .debug_ranges  0x00000f60       0x40 FLASH_RUN/apeplay.o
 .debug_ranges  0x00000fa0       0x20 c:/project/stm32fx_iolib/stm32f4x_iolib/stm32f4x_iolib_168MHz_8MHz.a(startup_stm32f4xx.o)
 .debug_ranges  0x00000fc0       0x18 c:/project/stm32fx_iolib/stm32f4x_iolib/stm32f4x_iolib_168MHz_8MHz.a(system_stm32f4xx.o)
 .debug_ranges  0x00000fd8       0x30 c:/project/stm32fx_iolib/stm32f4x_iolib/stm32f4x_iolib_168MHz_8MHz.a(misc.o)
 .debug_ranges  0x00001008      0x138 c:/project/stm32fx_iolib/stm32f4x_iolib/stm32f4x_iolib_168MHz_8MHz.a(stm32f4xx_adc.o)
 .debug_ranges  0x00001140       0x80 c:/project/stm32fx_iolib/stm32f4x_iolib/stm32f4x_iolib_168MHz_8MHz.a(stm32f4xx_dac.o)
 .debug_ranges  0x000011c0       0x98 c:/project/stm32fx_iolib/stm32f4x_iolib/stm32f4x_iolib_168MHz_8MHz.a(stm32f4xx_dma.o)
 .debug_ranges  0x00001258       0x38 c:/project/stm32fx_iolib/stm32f4x_iolib/stm32f4x_iolib_168MHz_8MHz.a(stm32f4xx_exti.o)
 .debug_ranges  0x00001290      0x130 c:/project/stm32fx_iolib/stm32f4x_iolib/stm32f4x_iolib_168MHz_8MHz.a(stm32f4xx_flash.o)
 .debug_ranges  0x000013c0       0x80 c:/project/stm32fx_iolib/stm32f4x_iolib/stm32f4x_iolib_168MHz_8MHz.a(stm32f4xx_gpio.o)
 .debug_ranges  0x00001440      0x110 c:/project/stm32fx_iolib/stm32f4x_iolib/stm32f4x_iolib_168MHz_8MHz.a(stm32f4xx_i2c.o)
 .debug_ranges  0x00001550       0x38 c:/project/stm32fx_iolib/stm32f4x_iolib/stm32f4x_iolib_168MHz_8MHz.a(stm32f4xx_iwdg.o)
 .debug_ranges  0x00001588       0x80 c:/project/stm32fx_iolib/stm32f4x_iolib/stm32f4x_iolib_168MHz_8MHz.a(stm32f4xx_pwr.o)
 .debug_ranges  0x00001608      0x1d0 c:/project/stm32fx_iolib/stm32f4x_iolib/stm32f4x_iolib_168MHz_8MHz.a(stm32f4xx_rcc.o)
 .debug_ranges  0x000017d8      0x1d0 c:/project/stm32fx_iolib/stm32f4x_iolib/stm32f4x_iolib_168MHz_8MHz.a(stm32f4xx_rtc.o)
 .debug_ranges  0x000019a8       0xe8 c:/project/stm32fx_iolib/stm32f4x_iolib/stm32f4x_iolib_168MHz_8MHz.a(stm32f4xx_sdio.o)
 .debug_ranges  0x00001a90       0xd0 c:/project/stm32fx_iolib/stm32f4x_iolib/stm32f4x_iolib_168MHz_8MHz.a(stm32f4xx_spi.o)
 .debug_ranges  0x00001b60      0x2e0 c:/project/stm32fx_iolib/stm32f4x_iolib/stm32f4x_iolib_168MHz_8MHz.a(stm32f4xx_tim.o)
 .debug_ranges  0x00001e40       0xf0 c:/project/stm32fx_iolib/stm32f4x_iolib/stm32f4x_iolib_168MHz_8MHz.a(stm32f4xx_usart.o)
 .debug_ranges  0x00001f30       0xa0 c:/project/stm32fx_iolib/stm32f4x_iolib/stm32f4x_iolib_168MHz_8MHz.a(stm32f4xx_fsmc.o)
 .debug_ranges  0x00001fd0       0x70 source/audio_codec/mp3/mp3.a(mp3dec.o)
 .debug_ranges  0x00002040       0x48 source/audio_codec/mp3/mp3.a(scalfact.o)
 .debug_ranges  0x00002088       0x10 source/audio_codec/mp3/mp3.a(subband.o)
 .debug_ranges  0x00002098       0x88 source/audio_codec/mp3/mp3.a(bitstream.o)
 .debug_ranges  0x00002120       0x20 source/audio_codec/mp3/mp3.a(buffers.o)
 .debug_ranges  0x00002140       0x10 source/audio_codec/mp3/mp3.a(dct32.o)
 .debug_ranges  0x00002150       0x70 source/audio_codec/mp3/mp3.a(dequant.o)
 .debug_ranges  0x000021c0       0x60 source/audio_codec/mp3/mp3.a(dqchan.o)
 .debug_ranges  0x00002220       0x80 source/audio_codec/mp3/mp3.a(huffman.o)
 .debug_ranges  0x000022a0       0xf0 source/audio_codec/mp3/mp3.a(imdct.o)
 .debug_ranges  0x00002390       0x20 source/audio_codec/mp3/mp3.a(stproc.o)
 .debug_ranges  0x000023b0      0x2f0 source/audio_codec/flac/flac.a(flacdecoder.o)
 .debug_ranges  0x000026a0       0x80 source/audio_codec/flac/flac.a(bitstreamf.o)
 .debug_ranges  0x00002720       0x20 source/audio_codec/ape/ape.a(apedecoder.o)
 .debug_ranges  0x00002740      0x120 source/audio_codec/ape/ape.a(entropy.o)
 .debug_ranges  0x00002860       0x90 source/audio_codec/ape/ape.a(filter_16_11.o)
 .debug_ranges  0x000028f0       0x90 source/audio_codec/ape/ape.a(filter_64_11.o)
 .debug_ranges  0x00002980       0x38 source/audio_codec/ape/ape.a(parser.o)
 .debug_ranges  0x000029b8       0x10 source/audio_codec/ape/ape.a(predictor.o)

.ARM.attributes
                0x00000000       0x32
 *(.ARM.attributes)
 .ARM.attributes
                0x00000000       0x34 FLASH_RUN/main.o
 .ARM.attributes
                0x00000034       0x34 FLASH_RUN/serial.o
 .ARM.attributes
                0x00000068       0x34 FLASH_RUN/i2c_app.o
 .ARM.attributes
                0x0000009c       0x34 FLASH_RUN/key.o
 .ARM.attributes
                0x000000d0       0x34 FLASH_RUN/lcd.o
 .ARM.attributes
                0x00000104       0x34 FLASH_RUN/print.o
 .ARM.attributes
                0x00000138       0x34 FLASH_RUN/random_disp.o
 .ARM.attributes
                0x0000016c       0x34 FLASH_RUN/touch_panel.o
 .ARM.attributes
                0x000001a0       0x34 FLASH_RUN/touch_pad.o
 .ARM.attributes
                0x000001d4       0x34 FLASH_RUN/ir_remocon.o
 .ARM.attributes
                0x00000208       0x34 FLASH_RUN/adc.o
 .ARM.attributes
                0x0000023c       0x34 FLASH_RUN/dac1.o
 .ARM.attributes
                0x00000270       0x34 FLASH_RUN/wm8978.o
 .ARM.attributes
                0x000002a4       0x34 FLASH_RUN/sdio_sdcard.o
 .ARM.attributes
                0x000002d8       0x34 FLASH_RUN/i2s.o
 .ARM.attributes
                0x0000030c       0x34 FLASH_RUN/ext_sram.o
 .ARM.attributes
                0x00000340       0x34 FLASH_RUN/rtc.o
 .ARM.attributes
                0x00000374       0x34 FLASH_RUN/ff.o
 .ARM.attributes
                0x000003a8       0x34 FLASH_RUN/diskio.o
 .ARM.attributes
                0x000003dc       0x34 FLASH_RUN/cc949.o
 .ARM.attributes
                0x00000410       0x34 FLASH_RUN/audio.o
 .ARM.attributes
                0x00000444       0x34 FLASH_RUN/mp3play.o
 .ARM.attributes
                0x00000478       0x34 FLASH_RUN/wavplay.o
 .ARM.attributes
                0x000004ac       0x34 FLASH_RUN/flacplay.o
 .ARM.attributes
                0x000004e0       0x34 FLASH_RUN/apeplay.o
 .ARM.attributes
                0x00000514       0x34 c:/project/stm32fx_iolib/stm32f4x_iolib/stm32f4x_iolib_168MHz_8MHz.a(startup_stm32f4xx.o)
 .ARM.attributes
                0x00000548       0x34 c:/project/stm32fx_iolib/stm32f4x_iolib/stm32f4x_iolib_168MHz_8MHz.a(system_stm32f4xx.o)
 .ARM.attributes
                0x0000057c       0x34 c:/project/stm32fx_iolib/stm32f4x_iolib/stm32f4x_iolib_168MHz_8MHz.a(misc.o)
 .ARM.attributes
                0x000005b0       0x34 c:/project/stm32fx_iolib/stm32f4x_iolib/stm32f4x_iolib_168MHz_8MHz.a(stm32f4xx_adc.o)
 .ARM.attributes
                0x000005e4       0x34 c:/project/stm32fx_iolib/stm32f4x_iolib/stm32f4x_iolib_168MHz_8MHz.a(stm32f4xx_dac.o)
 .ARM.attributes
                0x00000618       0x34 c:/project/stm32fx_iolib/stm32f4x_iolib/stm32f4x_iolib_168MHz_8MHz.a(stm32f4xx_dma.o)
 .ARM.attributes
                0x0000064c       0x34 c:/project/stm32fx_iolib/stm32f4x_iolib/stm32f4x_iolib_168MHz_8MHz.a(stm32f4xx_exti.o)
 .ARM.attributes
                0x00000680       0x34 c:/project/stm32fx_iolib/stm32f4x_iolib/stm32f4x_iolib_168MHz_8MHz.a(stm32f4xx_flash.o)
 .ARM.attributes
                0x000006b4       0x34 c:/project/stm32fx_iolib/stm32f4x_iolib/stm32f4x_iolib_168MHz_8MHz.a(stm32f4xx_gpio.o)
 .ARM.attributes
                0x000006e8       0x34 c:/project/stm32fx_iolib/stm32f4x_iolib/stm32f4x_iolib_168MHz_8MHz.a(stm32f4xx_i2c.o)
 .ARM.attributes
                0x0000071c       0x34 c:/project/stm32fx_iolib/stm32f4x_iolib/stm32f4x_iolib_168MHz_8MHz.a(stm32f4xx_iwdg.o)
 .ARM.attributes
                0x00000750       0x34 c:/project/stm32fx_iolib/stm32f4x_iolib/stm32f4x_iolib_168MHz_8MHz.a(stm32f4xx_pwr.o)
 .ARM.attributes
                0x00000784       0x34 c:/project/stm32fx_iolib/stm32f4x_iolib/stm32f4x_iolib_168MHz_8MHz.a(stm32f4xx_rcc.o)
 .ARM.attributes
                0x000007b8       0x34 c:/project/stm32fx_iolib/stm32f4x_iolib/stm32f4x_iolib_168MHz_8MHz.a(stm32f4xx_rtc.o)
 .ARM.attributes
                0x000007ec       0x34 c:/project/stm32fx_iolib/stm32f4x_iolib/stm32f4x_iolib_168MHz_8MHz.a(stm32f4xx_sdio.o)
 .ARM.attributes
                0x00000820       0x34 c:/project/stm32fx_iolib/stm32f4x_iolib/stm32f4x_iolib_168MHz_8MHz.a(stm32f4xx_spi.o)
 .ARM.attributes
                0x00000854       0x34 c:/project/stm32fx_iolib/stm32f4x_iolib/stm32f4x_iolib_168MHz_8MHz.a(stm32f4xx_tim.o)
 .ARM.attributes
                0x00000888       0x34 c:/project/stm32fx_iolib/stm32f4x_iolib/stm32f4x_iolib_168MHz_8MHz.a(stm32f4xx_usart.o)
 .ARM.attributes
                0x000008bc       0x34 c:/project/stm32fx_iolib/stm32f4x_iolib/stm32f4x_iolib_168MHz_8MHz.a(stm32f4xx_fsmc.o)
 .ARM.attributes
                0x000008f0       0x34 source/audio_codec/mp3/mp3.a(mp3dec.o)
 .ARM.attributes
                0x00000924       0x39 source/audio_codec/mp3/mp3.a(mp3tabs.o)
 .ARM.attributes
                0x0000095d       0x34 source/audio_codec/mp3/mp3.a(scalfact.o)
 .ARM.attributes
                0x00000991       0x34 source/audio_codec/mp3/mp3.a(subband.o)
 .ARM.attributes
                0x000009c5       0x39 source/audio_codec/mp3/mp3.a(trigtabs.o)
 .ARM.attributes
                0x000009fe       0x25 source/audio_codec/mp3/mp3.a(asmpoly_thumb2.o)
 .ARM.attributes
                0x00000a23       0x34 source/audio_codec/mp3/mp3.a(bitstream.o)
 .ARM.attributes
                0x00000a57       0x34 source/audio_codec/mp3/mp3.a(buffers.o)
 .ARM.attributes
                0x00000a8b       0x34 source/audio_codec/mp3/mp3.a(dct32.o)
 .ARM.attributes
                0x00000abf       0x34 source/audio_codec/mp3/mp3.a(dequant.o)
 .ARM.attributes
                0x00000af3       0x34 source/audio_codec/mp3/mp3.a(dqchan.o)
 .ARM.attributes
                0x00000b27       0x34 source/audio_codec/mp3/mp3.a(huffman.o)
 .ARM.attributes
                0x00000b5b       0x39 source/audio_codec/mp3/mp3.a(hufftabs.o)
 .ARM.attributes
                0x00000b94       0x34 source/audio_codec/mp3/mp3.a(imdct.o)
 .ARM.attributes
                0x00000bc8       0x34 source/audio_codec/mp3/mp3.a(stproc.o)
 .ARM.attributes
                0x00000bfc       0x25 source/audio_codec/mp3/mp3.a(asmmisc.o)
 .ARM.attributes
                0x00000c21       0x34 source/audio_codec/flac/flac.a(flacdecoder.o)
 .ARM.attributes
                0x00000c55       0x39 source/audio_codec/flac/flac.a(tables.o)
 .ARM.attributes
                0x00000c8e       0x34 source/audio_codec/flac/flac.a(bitstreamf.o)
 .ARM.attributes
                0x00000cc2       0x34 source/audio_codec/ape/ape.a(apedecoder.o)
 .ARM.attributes
                0x00000cf6       0x34 source/audio_codec/ape/ape.a(entropy.o)
 .ARM.attributes
                0x00000d2a       0x34 source/audio_codec/ape/ape.a(filter_16_11.o)
 .ARM.attributes
                0x00000d5e       0x34 source/audio_codec/ape/ape.a(filter_64_11.o)
 .ARM.attributes
                0x00000d92       0x34 source/audio_codec/ape/ape.a(parser.o)
 .ARM.attributes
                0x00000dc6       0x34 source/audio_codec/ape/ape.a(predictor.o)
 .ARM.attributes
                0x00000dfa       0x25 source/audio_codec/ape/ape.a(predictor-arm.o)
 .ARM.attributes
                0x00000e1f       0x34 c:/program files (x86)/arm gnu toolchain arm-none-eabi/12.2 mpacbti-rel1/bin/../lib/gcc/arm-none-eabi/12.2.1/thumb/v7e-m+fp/hard\libc.a(libc_a-abort.o)
 .ARM.attributes
                0x00000e53       0x34 c:/program files (x86)/arm gnu toolchain arm-none-eabi/12.2 mpacbti-rel1/bin/../lib/gcc/arm-none-eabi/12.2.1/thumb/v7e-m+fp/hard\libc.a(libc_a-malloc.o)
 .ARM.attributes
                0x00000e87       0x34 c:/program files (x86)/arm gnu toolchain arm-none-eabi/12.2 mpacbti-rel1/bin/../lib/gcc/arm-none-eabi/12.2.1/thumb/v7e-m+fp/hard\libc.a(libc_a-mallocr.o)
 .ARM.attributes
                0x00000ebb       0x34 c:/program files (x86)/arm gnu toolchain arm-none-eabi/12.2 mpacbti-rel1/bin/../lib/gcc/arm-none-eabi/12.2.1/thumb/v7e-m+fp/hard\libc.a(libc_a-mlock.o)
 .ARM.attributes
                0x00000eef       0x34 c:/program files (x86)/arm gnu toolchain arm-none-eabi/12.2 mpacbti-rel1/bin/../lib/gcc/arm-none-eabi/12.2.1/thumb/v7e-m+fp/hard\libc.a(libc_a-rand.o)
 .ARM.attributes
                0x00000f23       0x34 c:/program files (x86)/arm gnu toolchain arm-none-eabi/12.2 mpacbti-rel1/bin/../lib/gcc/arm-none-eabi/12.2.1/thumb/v7e-m+fp/hard\libc.a(libc_a-memcmp.o)
 .ARM.attributes
                0x00000f57       0x34 c:/program files (x86)/arm gnu toolchain arm-none-eabi/12.2 mpacbti-rel1/bin/../lib/gcc/arm-none-eabi/12.2.1/thumb/v7e-m+fp/hard\libc.a(libc_a-memmove.o)
 .ARM.attributes
                0x00000f8b       0x34 c:/program files (x86)/arm gnu toolchain arm-none-eabi/12.2 mpacbti-rel1/bin/../lib/gcc/arm-none-eabi/12.2.1/thumb/v7e-m+fp/hard\libc.a(libc_a-memset.o)
 .ARM.attributes
                0x00000fbf       0x34 c:/program files (x86)/arm gnu toolchain arm-none-eabi/12.2 mpacbti-rel1/bin/../lib/gcc/arm-none-eabi/12.2.1/thumb/v7e-m+fp/hard\libc.a(libc_a-strcasecmp.o)
 .ARM.attributes
                0x00000ff3       0x34 c:/program files (x86)/arm gnu toolchain arm-none-eabi/12.2 mpacbti-rel1/bin/../lib/gcc/arm-none-eabi/12.2.1/thumb/v7e-m+fp/hard\libc.a(libc_a-strcat.o)
 .ARM.attributes
                0x00001027       0x34 c:/program files (x86)/arm gnu toolchain arm-none-eabi/12.2 mpacbti-rel1/bin/../lib/gcc/arm-none-eabi/12.2.1/thumb/v7e-m+fp/hard\libc.a(libc_a-strncmp.o)
 .ARM.attributes
                0x0000105b       0x34 c:/program files (x86)/arm gnu toolchain arm-none-eabi/12.2 mpacbti-rel1/bin/../lib/gcc/arm-none-eabi/12.2.1/thumb/v7e-m+fp/hard\libc.a(libc_a-strncpy.o)
 .ARM.attributes
                0x0000108f       0x34 c:/program files (x86)/arm gnu toolchain arm-none-eabi/12.2 mpacbti-rel1/bin/../lib/gcc/arm-none-eabi/12.2.1/thumb/v7e-m+fp/hard\libc.a(libc_a-signal.o)
 .ARM.attributes
                0x000010c3       0x34 c:/program files (x86)/arm gnu toolchain arm-none-eabi/12.2 mpacbti-rel1/bin/../lib/gcc/arm-none-eabi/12.2.1/thumb/v7e-m+fp/hard\libc.a(libc_a-impure.o)
 .ARM.attributes
                0x000010f7       0x34 c:/program files (x86)/arm gnu toolchain arm-none-eabi/12.2 mpacbti-rel1/bin/../lib/gcc/arm-none-eabi/12.2.1/thumb/v7e-m+fp/hard\libc.a(libc_a-signalr.o)
 .ARM.attributes
                0x0000112b       0x34 c:/program files (x86)/arm gnu toolchain arm-none-eabi/12.2 mpacbti-rel1/bin/../lib/gcc/arm-none-eabi/12.2.1/thumb/v7e-m+fp/hard\libc.a(libc_a-sbrkr.o)
 .ARM.attributes
                0x0000115f       0x34 c:/program files (x86)/arm gnu toolchain arm-none-eabi/12.2 mpacbti-rel1/bin/../lib/gcc/arm-none-eabi/12.2.1/thumb/v7e-m+fp/hard\libc.a(libc_a-errno.o)
 .ARM.attributes
                0x00001193       0x34 c:/program files (x86)/arm gnu toolchain arm-none-eabi/12.2 mpacbti-rel1/bin/../lib/gcc/arm-none-eabi/12.2.1/thumb/v7e-m+fp/hard\libc.a(libc_a-lock.o)
 .ARM.attributes
                0x000011c7       0x34 c:/program files (x86)/arm gnu toolchain arm-none-eabi/12.2 mpacbti-rel1/bin/../lib/gcc/arm-none-eabi/12.2.1/thumb/v7e-m+fp/hard\libc.a(libc_a-sysconf.o)
 .ARM.attributes
                0x000011fb       0x34 c:/program files (x86)/arm gnu toolchain arm-none-eabi/12.2 mpacbti-rel1/bin/../lib/gcc/arm-none-eabi/12.2.1/thumb/v7e-m+fp/hard\libc.a(libc_a-strcpy.o)
 .ARM.attributes
                0x0000122f       0x20 c:/program files (x86)/arm gnu toolchain arm-none-eabi/12.2 mpacbti-rel1/bin/../lib/gcc/arm-none-eabi/12.2.1/thumb/v7e-m+fp/hard\libc.a(libc_a-memcpy.o)
 .ARM.attributes
                0x0000124f       0x1c c:/program files (x86)/arm gnu toolchain arm-none-eabi/12.2 mpacbti-rel1/bin/../lib/gcc/arm-none-eabi/12.2.1/thumb/v7e-m+fp/hard\libc.a(libc_a-strlen.o)
 .ARM.attributes
                0x0000126b       0x34 c:/program files (x86)/arm gnu toolchain arm-none-eabi/12.2 mpacbti-rel1/bin/../lib/gcc/arm-none-eabi/12.2.1/thumb/v7e-m+fp/hard\libc.a(libc_a-freer.o)
 .ARM.attributes
                0x0000129f       0x34 c:/program files (x86)/arm gnu toolchain arm-none-eabi/12.2 mpacbti-rel1/bin/../lib/gcc/arm-none-eabi/12.2.1/thumb/v7e-m+fp/hard\libc.a(libc_a-ctype_.o)
 .ARM.attributes
                0x000012d3       0x34 c:/program files (x86)/arm gnu toolchain arm-none-eabi/12.2 mpacbti-rel1/bin/../lib/gcc/arm-none-eabi/12.2.1/thumb/v7e-m+fp/hard\libc.a(libc_a-findfp.o)
 .ARM.attributes
                0x00001307       0x34 c:/program files (x86)/arm gnu toolchain arm-none-eabi/12.2 mpacbti-rel1/bin/../lib/gcc/arm-none-eabi/12.2.1/thumb/v7e-m+fp/hard\libc.a(libc_a-fwalk.o)
 .ARM.attributes
                0x0000133b       0x34 c:/program files (x86)/arm gnu toolchain arm-none-eabi/12.2 mpacbti-rel1/bin/../lib/gcc/arm-none-eabi/12.2.1/thumb/v7e-m+fp/hard\libc.a(libc_a-stdio.o)
 .ARM.attributes
                0x0000136f       0x34 c:/program files (x86)/arm gnu toolchain arm-none-eabi/12.2 mpacbti-rel1/bin/../lib/gcc/arm-none-eabi/12.2.1/thumb/v7e-m+fp/hard\libc.a(libc_a-closer.o)
 .ARM.attributes
                0x000013a3       0x34 c:/program files (x86)/arm gnu toolchain arm-none-eabi/12.2 mpacbti-rel1/bin/../lib/gcc/arm-none-eabi/12.2.1/thumb/v7e-m+fp/hard\libc.a(libc_a-lseekr.o)
 .ARM.attributes
                0x000013d7       0x34 c:/program files (x86)/arm gnu toolchain arm-none-eabi/12.2 mpacbti-rel1/bin/../lib/gcc/arm-none-eabi/12.2.1/thumb/v7e-m+fp/hard\libc.a(libc_a-readr.o)
 .ARM.attributes
                0x0000140b       0x34 c:/program files (x86)/arm gnu toolchain arm-none-eabi/12.2 mpacbti-rel1/bin/../lib/gcc/arm-none-eabi/12.2.1/thumb/v7e-m+fp/hard\libc.a(libc_a-writer.o)
 .ARM.attributes
                0x0000143f       0x34 c:/program files (x86)/arm gnu toolchain arm-none-eabi/12.2 mpacbti-rel1/bin/../lib/gcc/arm-none-eabi/12.2.1/thumb/v7e-m+fp/hard\libc.a(libc_a-fclose.o)
 .ARM.attributes
                0x00001473       0x34 c:/program files (x86)/arm gnu toolchain arm-none-eabi/12.2 mpacbti-rel1/bin/../lib/gcc/arm-none-eabi/12.2.1/thumb/v7e-m+fp/hard\libc.a(libc_a-fflush.o)
 .ARM.attributes
                0x000014a7       0x34 c:/program files (x86)/arm gnu toolchain arm-none-eabi/12.2 mpacbti-rel1/bin/../lib/gcc/arm-none-eabi/12.2.1/thumb/v7e-m+fp/hard\libm.a(libm_a-w_sqrt.o)
 .ARM.attributes
                0x000014db       0x34 c:/program files (x86)/arm gnu toolchain arm-none-eabi/12.2 mpacbti-rel1/bin/../lib/gcc/arm-none-eabi/12.2.1/thumb/v7e-m+fp/hard\libm.a(libm_a-e_sqrt.o)
 .ARM.attributes
                0x0000150f       0x22 c:/program files (x86)/arm gnu toolchain arm-none-eabi/12.2 mpacbti-rel1/bin/../lib/gcc/arm-none-eabi/12.2.1/thumb/v7e-m+fp/hard\libgcc.a(_arm_muldf3.o)
 .ARM.attributes
                0x00001531       0x22 c:/program files (x86)/arm gnu toolchain arm-none-eabi/12.2 mpacbti-rel1/bin/../lib/gcc/arm-none-eabi/12.2.1/thumb/v7e-m+fp/hard\libgcc.a(_arm_addsubdf3.o)
 .ARM.attributes
                0x00001553       0x22 c:/program files (x86)/arm gnu toolchain arm-none-eabi/12.2 mpacbti-rel1/bin/../lib/gcc/arm-none-eabi/12.2.1/thumb/v7e-m+fp/hard\libgcc.a(_arm_muldivdf3.o)
 .ARM.attributes
                0x00001575       0x22 c:/program files (x86)/arm gnu toolchain arm-none-eabi/12.2 mpacbti-rel1/bin/../lib/gcc/arm-none-eabi/12.2.1/thumb/v7e-m+fp/hard\libgcc.a(_arm_cmpdf2.o)
 .ARM.attributes
                0x00001597       0x22 c:/program files (x86)/arm gnu toolchain arm-none-eabi/12.2 mpacbti-rel1/bin/../lib/gcc/arm-none-eabi/12.2.1/thumb/v7e-m+fp/hard\libgcc.a(_arm_unorddf2.o)
 .ARM.attributes
                0x000015b9       0x22 c:/program files (x86)/arm gnu toolchain arm-none-eabi/12.2 mpacbti-rel1/bin/../lib/gcc/arm-none-eabi/12.2.1/thumb/v7e-m+fp/hard\libgcc.a(_arm_fixdfsi.o)
 .ARM.attributes
                0x000015db       0x22 c:/program files (x86)/arm gnu toolchain arm-none-eabi/12.2 mpacbti-rel1/bin/../lib/gcc/arm-none-eabi/12.2.1/thumb/v7e-m+fp/hard\libgcc.a(_arm_fixunsdfsi.o)
 .ARM.attributes
                0x000015fd       0x22 c:/program files (x86)/arm gnu toolchain arm-none-eabi/12.2 mpacbti-rel1/bin/../lib/gcc/arm-none-eabi/12.2.1/thumb/v7e-m+fp/hard\libgcc.a(_aeabi_ldivmod.o)
 .ARM.attributes
                0x0000161f       0x22 c:/program files (x86)/arm gnu toolchain arm-none-eabi/12.2 mpacbti-rel1/bin/../lib/gcc/arm-none-eabi/12.2.1/thumb/v7e-m+fp/hard\libgcc.a(_aeabi_uldivmod.o)
 .ARM.attributes
                0x00001641       0x34 c:/program files (x86)/arm gnu toolchain arm-none-eabi/12.2 mpacbti-rel1/bin/../lib/gcc/arm-none-eabi/12.2.1/thumb/v7e-m+fp/hard\libgcc.a(_udivmoddi4.o)
 .ARM.attributes
                0x00001675       0x22 c:/program files (x86)/arm gnu toolchain arm-none-eabi/12.2 mpacbti-rel1/bin/../lib/gcc/arm-none-eabi/12.2.1/thumb/v7e-m+fp/hard\libgcc.a(_dvmd_tls.o)
 *(.gnu.attributes)

.note.gnu.arm.ident
 *(.note.gnu.arm.ident)

/DISCARD/
 *(.note.GNU-stack)
 *(.gnu_debuglink)
                0x00000800                        __Stack_Size = 0x800
                [!provide]                        PROVIDE (_Stack_Size = __Stack_Size)
                0x2001f800                        __Stack_Init = (_estack - __Stack_Size)
                [!provide]                        PROVIDE (_Stack_Init = __Stack_Init)
OUTPUT(FLASH_RUN/stm32f4x_test.elf elf32-littlearm)
LOAD linker stubs

.debug_line_str
                0x00000000      0x1f4
 .debug_line_str
                0x00000000       0xf3 c:/program files (x86)/arm gnu toolchain arm-none-eabi/12.2 mpacbti-rel1/bin/../lib/gcc/arm-none-eabi/12.2.1/thumb/v7e-m+fp/hard\libc.a(libc_a-memcpy.o)
 .debug_line_str
                0x000000f3        0xf c:/program files (x86)/arm gnu toolchain arm-none-eabi/12.2 mpacbti-rel1/bin/../lib/gcc/arm-none-eabi/12.2.1/thumb/v7e-m+fp/hard\libc.a(libc_a-strlen.o)
                                 0xf2 (size before relaxing)
 .debug_line_str
                0x00000102       0xde c:/program files (x86)/arm gnu toolchain arm-none-eabi/12.2 mpacbti-rel1/bin/../lib/gcc/arm-none-eabi/12.2.1/thumb/v7e-m+fp/hard\libgcc.a(_arm_addsubdf3.o)
 .debug_line_str
                0x000001e0       0xde c:/program files (x86)/arm gnu toolchain arm-none-eabi/12.2 mpacbti-rel1/bin/../lib/gcc/arm-none-eabi/12.2.1/thumb/v7e-m+fp/hard\libgcc.a(_arm_muldivdf3.o)
 .debug_line_str
                0x000001e0       0xde c:/program files (x86)/arm gnu toolchain arm-none-eabi/12.2 mpacbti-rel1/bin/../lib/gcc/arm-none-eabi/12.2.1/thumb/v7e-m+fp/hard\libgcc.a(_arm_cmpdf2.o)
 .debug_line_str
                0x000001e0       0xde c:/program files (x86)/arm gnu toolchain arm-none-eabi/12.2 mpacbti-rel1/bin/../lib/gcc/arm-none-eabi/12.2.1/thumb/v7e-m+fp/hard\libgcc.a(_arm_unorddf2.o)
 .debug_line_str
                0x000001e0       0xde c:/program files (x86)/arm gnu toolchain arm-none-eabi/12.2 mpacbti-rel1/bin/../lib/gcc/arm-none-eabi/12.2.1/thumb/v7e-m+fp/hard\libgcc.a(_arm_fixdfsi.o)
 .debug_line_str
                0x000001e0       0xde c:/program files (x86)/arm gnu toolchain arm-none-eabi/12.2 mpacbti-rel1/bin/../lib/gcc/arm-none-eabi/12.2.1/thumb/v7e-m+fp/hard\libgcc.a(_arm_fixunsdfsi.o)
 .debug_line_str
                0x000001e0        0x8 c:/program files (x86)/arm gnu toolchain arm-none-eabi/12.2 mpacbti-rel1/bin/../lib/gcc/arm-none-eabi/12.2.1/thumb/v7e-m+fp/hard\libgcc.a(_aeabi_ldivmod.o)
                                 0xd9 (size before relaxing)
 .debug_line_str
                0x000001e8       0xd9 c:/program files (x86)/arm gnu toolchain arm-none-eabi/12.2 mpacbti-rel1/bin/../lib/gcc/arm-none-eabi/12.2.1/thumb/v7e-m+fp/hard\libgcc.a(_aeabi_uldivmod.o)
 .debug_line_str
                0x000001e8        0xc c:/program files (x86)/arm gnu toolchain arm-none-eabi/12.2 mpacbti-rel1/bin/../lib/gcc/arm-none-eabi/12.2.1/thumb/v7e-m+fp/hard\libgcc.a(_dvmd_tls.o)
                                 0xdd (size before relaxing)

Cross Reference Table

Symbol                                            File
ADC_AnalogWatchdogCmd                             c:/project/stm32fx_iolib/stm32f4x_iolib/stm32f4x_iolib_168MHz_8MHz.a(stm32f4xx_adc.o)
ADC_AnalogWatchdogSingleChannelConfig             c:/project/stm32fx_iolib/stm32f4x_iolib/stm32f4x_iolib_168MHz_8MHz.a(stm32f4xx_adc.o)
ADC_AnalogWatchdogThresholdsConfig                c:/project/stm32fx_iolib/stm32f4x_iolib/stm32f4x_iolib_168MHz_8MHz.a(stm32f4xx_adc.o)
ADC_AutoInjectedConvCmd                           c:/project/stm32fx_iolib/stm32f4x_iolib/stm32f4x_iolib_168MHz_8MHz.a(stm32f4xx_adc.o)
ADC_ClearFlag                                     c:/project/stm32fx_iolib/stm32f4x_iolib/stm32f4x_iolib_168MHz_8MHz.a(stm32f4xx_adc.o)
ADC_ClearITPendingBit                             c:/project/stm32fx_iolib/stm32f4x_iolib/stm32f4x_iolib_168MHz_8MHz.a(stm32f4xx_adc.o)
ADC_Cmd                                           c:/project/stm32fx_iolib/stm32f4x_iolib/stm32f4x_iolib_168MHz_8MHz.a(stm32f4xx_adc.o)
                                                  FLASH_RUN/adc.o
ADC_CommonInit                                    c:/project/stm32fx_iolib/stm32f4x_iolib/stm32f4x_iolib_168MHz_8MHz.a(stm32f4xx_adc.o)
                                                  FLASH_RUN/adc.o
ADC_CommonStructInit                              c:/project/stm32fx_iolib/stm32f4x_iolib/stm32f4x_iolib_168MHz_8MHz.a(stm32f4xx_adc.o)
ADC_Config                                        FLASH_RUN/adc.o
                                                  FLASH_RUN/main.o
ADC_ContinuousModeCmd                             c:/project/stm32fx_iolib/stm32f4x_iolib/stm32f4x_iolib_168MHz_8MHz.a(stm32f4xx_adc.o)
ADC_DMACmd                                        c:/project/stm32fx_iolib/stm32f4x_iolib/stm32f4x_iolib_168MHz_8MHz.a(stm32f4xx_adc.o)
ADC_DMARequestAfterLastTransferCmd                c:/project/stm32fx_iolib/stm32f4x_iolib/stm32f4x_iolib_168MHz_8MHz.a(stm32f4xx_adc.o)
ADC_DeInit                                        c:/project/stm32fx_iolib/stm32f4x_iolib/stm32f4x_iolib_168MHz_8MHz.a(stm32f4xx_adc.o)
ADC_DiscModeChannelCountConfig                    c:/project/stm32fx_iolib/stm32f4x_iolib/stm32f4x_iolib_168MHz_8MHz.a(stm32f4xx_adc.o)
ADC_DiscModeCmd                                   c:/project/stm32fx_iolib/stm32f4x_iolib/stm32f4x_iolib_168MHz_8MHz.a(stm32f4xx_adc.o)
ADC_EOCOnEachRegularChannelCmd                    c:/project/stm32fx_iolib/stm32f4x_iolib/stm32f4x_iolib_168MHz_8MHz.a(stm32f4xx_adc.o)
ADC_ExternalTrigInjectedConvConfig                c:/project/stm32fx_iolib/stm32f4x_iolib/stm32f4x_iolib_168MHz_8MHz.a(stm32f4xx_adc.o)
ADC_ExternalTrigInjectedConvEdgeConfig            c:/project/stm32fx_iolib/stm32f4x_iolib/stm32f4x_iolib_168MHz_8MHz.a(stm32f4xx_adc.o)
ADC_GetConversionValue                            c:/project/stm32fx_iolib/stm32f4x_iolib/stm32f4x_iolib_168MHz_8MHz.a(stm32f4xx_adc.o)
                                                  FLASH_RUN/adc.o
ADC_GetFlagStatus                                 c:/project/stm32fx_iolib/stm32f4x_iolib/stm32f4x_iolib_168MHz_8MHz.a(stm32f4xx_adc.o)
                                                  FLASH_RUN/adc.o
ADC_GetITStatus                                   c:/project/stm32fx_iolib/stm32f4x_iolib/stm32f4x_iolib_168MHz_8MHz.a(stm32f4xx_adc.o)
ADC_GetInjectedConversionValue                    c:/project/stm32fx_iolib/stm32f4x_iolib/stm32f4x_iolib_168MHz_8MHz.a(stm32f4xx_adc.o)
ADC_GetMultiModeConversionValue                   c:/project/stm32fx_iolib/stm32f4x_iolib/stm32f4x_iolib_168MHz_8MHz.a(stm32f4xx_adc.o)
ADC_GetSoftwareStartConvStatus                    c:/project/stm32fx_iolib/stm32f4x_iolib/stm32f4x_iolib_168MHz_8MHz.a(stm32f4xx_adc.o)
ADC_GetSoftwareStartInjectedConvCmdStatus         c:/project/stm32fx_iolib/stm32f4x_iolib/stm32f4x_iolib_168MHz_8MHz.a(stm32f4xx_adc.o)
ADC_IRQHandler                                    c:/project/stm32fx_iolib/stm32f4x_iolib/stm32f4x_iolib_168MHz_8MHz.a(startup_stm32f4xx.o)
ADC_ITConfig                                      c:/project/stm32fx_iolib/stm32f4x_iolib/stm32f4x_iolib_168MHz_8MHz.a(stm32f4xx_adc.o)
ADC_Init                                          c:/project/stm32fx_iolib/stm32f4x_iolib/stm32f4x_iolib_168MHz_8MHz.a(stm32f4xx_adc.o)
                                                  FLASH_RUN/adc.o
ADC_InjectedChannelConfig                         c:/project/stm32fx_iolib/stm32f4x_iolib/stm32f4x_iolib_168MHz_8MHz.a(stm32f4xx_adc.o)
ADC_InjectedDiscModeCmd                           c:/project/stm32fx_iolib/stm32f4x_iolib/stm32f4x_iolib_168MHz_8MHz.a(stm32f4xx_adc.o)
ADC_InjectedSequencerLengthConfig                 c:/project/stm32fx_iolib/stm32f4x_iolib/stm32f4x_iolib_168MHz_8MHz.a(stm32f4xx_adc.o)
ADC_MultiModeDMARequestAfterLastTransferCmd       c:/project/stm32fx_iolib/stm32f4x_iolib/stm32f4x_iolib_168MHz_8MHz.a(stm32f4xx_adc.o)
ADC_RegularChannelConfig                          c:/project/stm32fx_iolib/stm32f4x_iolib/stm32f4x_iolib_168MHz_8MHz.a(stm32f4xx_adc.o)
                                                  FLASH_RUN/adc.o
ADC_SetInjectedOffset                             c:/project/stm32fx_iolib/stm32f4x_iolib/stm32f4x_iolib_168MHz_8MHz.a(stm32f4xx_adc.o)
ADC_SoftwareStartConv                             c:/project/stm32fx_iolib/stm32f4x_iolib/stm32f4x_iolib_168MHz_8MHz.a(stm32f4xx_adc.o)
                                                  FLASH_RUN/adc.o
ADC_SoftwareStartInjectedConv                     c:/project/stm32fx_iolib/stm32f4x_iolib/stm32f4x_iolib_168MHz_8MHz.a(stm32f4xx_adc.o)
ADC_StructInit                                    c:/project/stm32fx_iolib/stm32f4x_iolib/stm32f4x_iolib_168MHz_8MHz.a(stm32f4xx_adc.o)
ADC_TempSensorVrefintCmd                          c:/project/stm32fx_iolib/stm32f4x_iolib/stm32f4x_iolib_168MHz_8MHz.a(stm32f4xx_adc.o)
                                                  FLASH_RUN/adc.o
ADC_VBATCmd                                       c:/project/stm32fx_iolib/stm32f4x_iolib/stm32f4x_iolib_168MHz_8MHz.a(stm32f4xx_adc.o)
AHBPrescTable                                     c:/project/stm32fx_iolib/stm32f4x_iolib/stm32f4x_iolib_168MHz_8MHz.a(system_stm32f4xx.o)
BusFault_Handler                                  c:/project/stm32fx_iolib/stm32f4x_iolib/stm32f4x_iolib_168MHz_8MHz.a(startup_stm32f4xx.o)
CAN1_RX0_IRQHandler                               c:/project/stm32fx_iolib/stm32f4x_iolib/stm32f4x_iolib_168MHz_8MHz.a(startup_stm32f4xx.o)
CAN1_RX1_IRQHandler                               c:/project/stm32fx_iolib/stm32f4x_iolib/stm32f4x_iolib_168MHz_8MHz.a(startup_stm32f4xx.o)
CAN1_SCE_IRQHandler                               c:/project/stm32fx_iolib/stm32f4x_iolib/stm32f4x_iolib_168MHz_8MHz.a(startup_stm32f4xx.o)
CAN1_TX_IRQHandler                                c:/project/stm32fx_iolib/stm32f4x_iolib/stm32f4x_iolib_168MHz_8MHz.a(startup_stm32f4xx.o)
CAN2_RX0_IRQHandler                               c:/project/stm32fx_iolib/stm32f4x_iolib/stm32f4x_iolib_168MHz_8MHz.a(startup_stm32f4xx.o)
CAN2_RX1_IRQHandler                               c:/project/stm32fx_iolib/stm32f4x_iolib/stm32f4x_iolib_168MHz_8MHz.a(startup_stm32f4xx.o)
CAN2_SCE_IRQHandler                               c:/project/stm32fx_iolib/stm32f4x_iolib/stm32f4x_iolib_168MHz_8MHz.a(startup_stm32f4xx.o)
CAN2_TX_IRQHandler                                c:/project/stm32fx_iolib/stm32f4x_iolib/stm32f4x_iolib_168MHz_8MHz.a(startup_stm32f4xx.o)
CEC_IRQHandler                                    c:/project/stm32fx_iolib/stm32f4x_iolib/stm32f4x_iolib_168MHz_8MHz.a(startup_stm32f4xx.o)
CMD_RDX                                           FLASH_RUN/touch_panel.o
CMD_RDY                                           FLASH_RUN/touch_panel.o
CRYP_IRQHandler                                   c:/project/stm32fx_iolib/stm32f4x_iolib/stm32f4x_iolib_168MHz_8MHz.a(startup_stm32f4xx.o)
ClearBuffer                                       source/audio_codec/mp3/mp3.a(buffers.o)
CmdError                                          FLASH_RUN/sdio_sdcard.o
CmdResp1Error                                     FLASH_RUN/sdio_sdcard.o
CmdResp2Error                                     FLASH_RUN/sdio_sdcard.o
CmdResp3Error                                     FLASH_RUN/sdio_sdcard.o
CmdResp6Error                                     FLASH_RUN/sdio_sdcard.o
CmdResp7Error                                     FLASH_RUN/sdio_sdcard.o
DAC_ClearFlag                                     c:/project/stm32fx_iolib/stm32f4x_iolib/stm32f4x_iolib_168MHz_8MHz.a(stm32f4xx_dac.o)
DAC_ClearITPendingBit                             c:/project/stm32fx_iolib/stm32f4x_iolib/stm32f4x_iolib_168MHz_8MHz.a(stm32f4xx_dac.o)
DAC_Cmd                                           c:/project/stm32fx_iolib/stm32f4x_iolib/stm32f4x_iolib_168MHz_8MHz.a(stm32f4xx_dac.o)
                                                  FLASH_RUN/dac1.o
DAC_DMACmd                                        c:/project/stm32fx_iolib/stm32f4x_iolib/stm32f4x_iolib_168MHz_8MHz.a(stm32f4xx_dac.o)
DAC_DeInit                                        c:/project/stm32fx_iolib/stm32f4x_iolib/stm32f4x_iolib_168MHz_8MHz.a(stm32f4xx_dac.o)
DAC_DualSoftwareTriggerCmd                        c:/project/stm32fx_iolib/stm32f4x_iolib/stm32f4x_iolib_168MHz_8MHz.a(stm32f4xx_dac.o)
DAC_GetDataOutputValue                            c:/project/stm32fx_iolib/stm32f4x_iolib/stm32f4x_iolib_168MHz_8MHz.a(stm32f4xx_dac.o)
DAC_GetFlagStatus                                 c:/project/stm32fx_iolib/stm32f4x_iolib/stm32f4x_iolib_168MHz_8MHz.a(stm32f4xx_dac.o)
DAC_GetITStatus                                   c:/project/stm32fx_iolib/stm32f4x_iolib/stm32f4x_iolib_168MHz_8MHz.a(stm32f4xx_dac.o)
DAC_ITConfig                                      c:/project/stm32fx_iolib/stm32f4x_iolib/stm32f4x_iolib_168MHz_8MHz.a(stm32f4xx_dac.o)
DAC_Init                                          c:/project/stm32fx_iolib/stm32f4x_iolib/stm32f4x_iolib_168MHz_8MHz.a(stm32f4xx_dac.o)
                                                  FLASH_RUN/dac1.o
DAC_SetChannel1Data                               c:/project/stm32fx_iolib/stm32f4x_iolib/stm32f4x_iolib_168MHz_8MHz.a(stm32f4xx_dac.o)
                                                  FLASH_RUN/dac1.o
DAC_SetChannel2Data                               c:/project/stm32fx_iolib/stm32f4x_iolib/stm32f4x_iolib_168MHz_8MHz.a(stm32f4xx_dac.o)
DAC_SetDualChannelData                            c:/project/stm32fx_iolib/stm32f4x_iolib/stm32f4x_iolib_168MHz_8MHz.a(stm32f4xx_dac.o)
DAC_SoftwareTriggerCmd                            c:/project/stm32fx_iolib/stm32f4x_iolib/stm32f4x_iolib_168MHz_8MHz.a(stm32f4xx_dac.o)
DAC_StructInit                                    c:/project/stm32fx_iolib/stm32f4x_iolib/stm32f4x_iolib_168MHz_8MHz.a(stm32f4xx_dac.o)
DAC_WaveGenerationCmd                             c:/project/stm32fx_iolib/stm32f4x_iolib/stm32f4x_iolib_168MHz_8MHz.a(stm32f4xx_dac.o)
DCMI_IRQHandler                                   c:/project/stm32fx_iolib/stm32f4x_iolib/stm32f4x_iolib_168MHz_8MHz.a(startup_stm32f4xx.o)
DFSDM2_FLT0_IRQHandler                            c:/project/stm32fx_iolib/stm32f4x_iolib/stm32f4x_iolib_168MHz_8MHz.a(startup_stm32f4xx.o)
DFSDM2_FLT1_IRQHandler                            c:/project/stm32fx_iolib/stm32f4x_iolib/stm32f4x_iolib_168MHz_8MHz.a(startup_stm32f4xx.o)
DFSDM2_FLT2_IRQHandler                            c:/project/stm32fx_iolib/stm32f4x_iolib/stm32f4x_iolib_168MHz_8MHz.a(startup_stm32f4xx.o)
DFSDM2_FLT3_IRQHandler                            c:/project/stm32fx_iolib/stm32f4x_iolib/stm32f4x_iolib_168MHz_8MHz.a(startup_stm32f4xx.o)
DMA1_Stream0_IRQHandler                           c:/project/stm32fx_iolib/stm32f4x_iolib/stm32f4x_iolib_168MHz_8MHz.a(startup_stm32f4xx.o)
DMA1_Stream1_IRQHandler                           c:/project/stm32fx_iolib/stm32f4x_iolib/stm32f4x_iolib_168MHz_8MHz.a(startup_stm32f4xx.o)
DMA1_Stream2_IRQHandler                           c:/project/stm32fx_iolib/stm32f4x_iolib/stm32f4x_iolib_168MHz_8MHz.a(startup_stm32f4xx.o)
DMA1_Stream3_IRQHandler                           FLASH_RUN/i2s.o
DMA1_Stream4_IRQHandler                           FLASH_RUN/i2s.o
DMA1_Stream5_IRQHandler                           c:/project/stm32fx_iolib/stm32f4x_iolib/stm32f4x_iolib_168MHz_8MHz.a(startup_stm32f4xx.o)
DMA1_Stream6_IRQHandler                           c:/project/stm32fx_iolib/stm32f4x_iolib/stm32f4x_iolib_168MHz_8MHz.a(startup_stm32f4xx.o)
DMA1_Stream7_IRQHandler                           c:/project/stm32fx_iolib/stm32f4x_iolib/stm32f4x_iolib_168MHz_8MHz.a(startup_stm32f4xx.o)
DMA2D_IRQHandler                                  c:/project/stm32fx_iolib/stm32f4x_iolib/stm32f4x_iolib_168MHz_8MHz.a(startup_stm32f4xx.o)
DMA2_Stream0_IRQHandler                           c:/project/stm32fx_iolib/stm32f4x_iolib/stm32f4x_iolib_168MHz_8MHz.a(startup_stm32f4xx.o)
DMA2_Stream1_IRQHandler                           c:/project/stm32fx_iolib/stm32f4x_iolib/stm32f4x_iolib_168MHz_8MHz.a(startup_stm32f4xx.o)
DMA2_Stream2_IRQHandler                           c:/project/stm32fx_iolib/stm32f4x_iolib/stm32f4x_iolib_168MHz_8MHz.a(startup_stm32f4xx.o)
DMA2_Stream3_IRQHandler                           c:/project/stm32fx_iolib/stm32f4x_iolib/stm32f4x_iolib_168MHz_8MHz.a(startup_stm32f4xx.o)
DMA2_Stream4_IRQHandler                           c:/project/stm32fx_iolib/stm32f4x_iolib/stm32f4x_iolib_168MHz_8MHz.a(startup_stm32f4xx.o)
DMA2_Stream5_IRQHandler                           c:/project/stm32fx_iolib/stm32f4x_iolib/stm32f4x_iolib_168MHz_8MHz.a(startup_stm32f4xx.o)
DMA2_Stream6_IRQHandler                           c:/project/stm32fx_iolib/stm32f4x_iolib/stm32f4x_iolib_168MHz_8MHz.a(startup_stm32f4xx.o)
DMA2_Stream7_IRQHandler                           c:/project/stm32fx_iolib/stm32f4x_iolib/stm32f4x_iolib_168MHz_8MHz.a(startup_stm32f4xx.o)
DMA_ClearFlag                                     c:/project/stm32fx_iolib/stm32f4x_iolib/stm32f4x_iolib_168MHz_8MHz.a(stm32f4xx_dma.o)
DMA_ClearITPendingBit                             c:/project/stm32fx_iolib/stm32f4x_iolib/stm32f4x_iolib_168MHz_8MHz.a(stm32f4xx_dma.o)
                                                  FLASH_RUN/i2s.o
DMA_Cmd                                           c:/project/stm32fx_iolib/stm32f4x_iolib/stm32f4x_iolib_168MHz_8MHz.a(stm32f4xx_dma.o)
                                                  FLASH_RUN/i2s.o
                                                  FLASH_RUN/sdio_sdcard.o
DMA_DeInit                                        c:/project/stm32fx_iolib/stm32f4x_iolib/stm32f4x_iolib_168MHz_8MHz.a(stm32f4xx_dma.o)
                                                  FLASH_RUN/i2s.o
                                                  FLASH_RUN/sdio_sdcard.o
DMA_DoubleBufferModeCmd                           c:/project/stm32fx_iolib/stm32f4x_iolib/stm32f4x_iolib_168MHz_8MHz.a(stm32f4xx_dma.o)
                                                  FLASH_RUN/i2s.o
DMA_DoubleBufferModeConfig                        c:/project/stm32fx_iolib/stm32f4x_iolib/stm32f4x_iolib_168MHz_8MHz.a(stm32f4xx_dma.o)
                                                  FLASH_RUN/i2s.o
DMA_FlowControllerConfig                          c:/project/stm32fx_iolib/stm32f4x_iolib/stm32f4x_iolib_168MHz_8MHz.a(stm32f4xx_dma.o)
                                                  FLASH_RUN/sdio_sdcard.o
DMA_GetCmdStatus                                  c:/project/stm32fx_iolib/stm32f4x_iolib/stm32f4x_iolib_168MHz_8MHz.a(stm32f4xx_dma.o)
                                                  FLASH_RUN/i2s.o
                                                  FLASH_RUN/sdio_sdcard.o
DMA_GetCurrDataCounter                            c:/project/stm32fx_iolib/stm32f4x_iolib/stm32f4x_iolib_168MHz_8MHz.a(stm32f4xx_dma.o)
DMA_GetCurrentMemoryTarget                        c:/project/stm32fx_iolib/stm32f4x_iolib/stm32f4x_iolib_168MHz_8MHz.a(stm32f4xx_dma.o)
DMA_GetFIFOStatus                                 c:/project/stm32fx_iolib/stm32f4x_iolib/stm32f4x_iolib_168MHz_8MHz.a(stm32f4xx_dma.o)
DMA_GetFlagStatus                                 c:/project/stm32fx_iolib/stm32f4x_iolib/stm32f4x_iolib_168MHz_8MHz.a(stm32f4xx_dma.o)
DMA_GetITStatus                                   c:/project/stm32fx_iolib/stm32f4x_iolib/stm32f4x_iolib_168MHz_8MHz.a(stm32f4xx_dma.o)
                                                  FLASH_RUN/i2s.o
DMA_ITConfig                                      c:/project/stm32fx_iolib/stm32f4x_iolib/stm32f4x_iolib_168MHz_8MHz.a(stm32f4xx_dma.o)
                                                  FLASH_RUN/i2s.o
DMA_Init                                          c:/project/stm32fx_iolib/stm32f4x_iolib/stm32f4x_iolib_168MHz_8MHz.a(stm32f4xx_dma.o)
                                                  FLASH_RUN/i2s.o
                                                  FLASH_RUN/sdio_sdcard.o
DMA_MemoryTargetConfig                            c:/project/stm32fx_iolib/stm32f4x_iolib/stm32f4x_iolib_168MHz_8MHz.a(stm32f4xx_dma.o)
DMA_PeriphIncOffsetSizeConfig                     c:/project/stm32fx_iolib/stm32f4x_iolib/stm32f4x_iolib_168MHz_8MHz.a(stm32f4xx_dma.o)
DMA_SetCurrDataCounter                            c:/project/stm32fx_iolib/stm32f4x_iolib/stm32f4x_iolib_168MHz_8MHz.a(stm32f4xx_dma.o)
DMA_StructInit                                    c:/project/stm32fx_iolib/stm32f4x_iolib/stm32f4x_iolib_168MHz_8MHz.a(stm32f4xx_dma.o)
Dac1_Init                                         FLASH_RUN/dac1.o
                                                  FLASH_RUN/main.o
Dac1_Set_Voltage                                  FLASH_RUN/dac1.o
                                                  FLASH_RUN/adc.o
DebugMon_Handler                                  c:/project/stm32fx_iolib/stm32f4x_iolib/stm32f4x_iolib_168MHz_8MHz.a(startup_stm32f4xx.o)
Default_Handler                                   c:/project/stm32fx_iolib/stm32f4x_iolib/stm32f4x_iolib_168MHz_8MHz.a(startup_stm32f4xx.o)
ETH_IRQHandler                                    c:/project/stm32fx_iolib/stm32f4x_iolib/stm32f4x_iolib_168MHz_8MHz.a(startup_stm32f4xx.o)
ETH_WKUP_IRQHandler                               c:/project/stm32fx_iolib/stm32f4x_iolib/stm32f4x_iolib_168MHz_8MHz.a(startup_stm32f4xx.o)
EXTI0_IRQHandler                                  c:/project/stm32fx_iolib/stm32f4x_iolib/stm32f4x_iolib_168MHz_8MHz.a(startup_stm32f4xx.o)
EXTI15_10_IRQHandler                              c:/project/stm32fx_iolib/stm32f4x_iolib/stm32f4x_iolib_168MHz_8MHz.a(startup_stm32f4xx.o)
EXTI1_IRQHandler                                  c:/project/stm32fx_iolib/stm32f4x_iolib/stm32f4x_iolib_168MHz_8MHz.a(startup_stm32f4xx.o)
EXTI2_IRQHandler                                  c:/project/stm32fx_iolib/stm32f4x_iolib/stm32f4x_iolib_168MHz_8MHz.a(startup_stm32f4xx.o)
EXTI3_IRQHandler                                  c:/project/stm32fx_iolib/stm32f4x_iolib/stm32f4x_iolib_168MHz_8MHz.a(startup_stm32f4xx.o)
EXTI4_IRQHandler                                  c:/project/stm32fx_iolib/stm32f4x_iolib/stm32f4x_iolib_168MHz_8MHz.a(startup_stm32f4xx.o)
EXTI9_5_IRQHandler                                c:/project/stm32fx_iolib/stm32f4x_iolib/stm32f4x_iolib_168MHz_8MHz.a(startup_stm32f4xx.o)
EXTI_ClearFlag                                    c:/project/stm32fx_iolib/stm32f4x_iolib/stm32f4x_iolib_168MHz_8MHz.a(stm32f4xx_exti.o)
EXTI_ClearITPendingBit                            c:/project/stm32fx_iolib/stm32f4x_iolib/stm32f4x_iolib_168MHz_8MHz.a(stm32f4xx_exti.o)
                                                  FLASH_RUN/rtc.o
EXTI_DeInit                                       c:/project/stm32fx_iolib/stm32f4x_iolib/stm32f4x_iolib_168MHz_8MHz.a(stm32f4xx_exti.o)
EXTI_GenerateSWInterrupt                          c:/project/stm32fx_iolib/stm32f4x_iolib/stm32f4x_iolib_168MHz_8MHz.a(stm32f4xx_exti.o)
EXTI_GetFlagStatus                                c:/project/stm32fx_iolib/stm32f4x_iolib/stm32f4x_iolib_168MHz_8MHz.a(stm32f4xx_exti.o)
EXTI_GetITStatus                                  c:/project/stm32fx_iolib/stm32f4x_iolib/stm32f4x_iolib_168MHz_8MHz.a(stm32f4xx_exti.o)
EXTI_Init                                         c:/project/stm32fx_iolib/stm32f4x_iolib/stm32f4x_iolib_168MHz_8MHz.a(stm32f4xx_exti.o)
                                                  FLASH_RUN/rtc.o
EXTI_StructInit                                   c:/project/stm32fx_iolib/stm32f4x_iolib/stm32f4x_iolib_168MHz_8MHz.a(stm32f4xx_exti.o)
FLASHStatus                                       FLASH_RUN/main.o
FLASH_ClearFlag                                   c:/project/stm32fx_iolib/stm32f4x_iolib/stm32f4x_iolib_168MHz_8MHz.a(stm32f4xx_flash.o)
FLASH_DataCacheCmd                                c:/project/stm32fx_iolib/stm32f4x_iolib/stm32f4x_iolib_168MHz_8MHz.a(stm32f4xx_flash.o)
FLASH_DataCacheReset                              c:/project/stm32fx_iolib/stm32f4x_iolib/stm32f4x_iolib_168MHz_8MHz.a(stm32f4xx_flash.o)
FLASH_EraseAllBank1Sectors                        c:/project/stm32fx_iolib/stm32f4x_iolib/stm32f4x_iolib_168MHz_8MHz.a(stm32f4xx_flash.o)
FLASH_EraseAllBank2Sectors                        c:/project/stm32fx_iolib/stm32f4x_iolib/stm32f4x_iolib_168MHz_8MHz.a(stm32f4xx_flash.o)
FLASH_EraseAllSectors                             c:/project/stm32fx_iolib/stm32f4x_iolib/stm32f4x_iolib_168MHz_8MHz.a(stm32f4xx_flash.o)
FLASH_EraseSector                                 c:/project/stm32fx_iolib/stm32f4x_iolib/stm32f4x_iolib_168MHz_8MHz.a(stm32f4xx_flash.o)
FLASH_GetFlagStatus                               c:/project/stm32fx_iolib/stm32f4x_iolib/stm32f4x_iolib_168MHz_8MHz.a(stm32f4xx_flash.o)
FLASH_GetStatus                                   c:/project/stm32fx_iolib/stm32f4x_iolib/stm32f4x_iolib_168MHz_8MHz.a(stm32f4xx_flash.o)
FLASH_IRQHandler                                  c:/project/stm32fx_iolib/stm32f4x_iolib/stm32f4x_iolib_168MHz_8MHz.a(startup_stm32f4xx.o)
FLASH_ITConfig                                    c:/project/stm32fx_iolib/stm32f4x_iolib/stm32f4x_iolib_168MHz_8MHz.a(stm32f4xx_flash.o)
FLASH_InstructionCacheCmd                         c:/project/stm32fx_iolib/stm32f4x_iolib/stm32f4x_iolib_168MHz_8MHz.a(stm32f4xx_flash.o)
FLASH_InstructionCacheReset                       c:/project/stm32fx_iolib/stm32f4x_iolib/stm32f4x_iolib_168MHz_8MHz.a(stm32f4xx_flash.o)
FLASH_Lock                                        c:/project/stm32fx_iolib/stm32f4x_iolib/stm32f4x_iolib_168MHz_8MHz.a(stm32f4xx_flash.o)
                                                  FLASH_RUN/serial.o
                                                  FLASH_RUN/main.o
FLASH_OB_BORConfig                                c:/project/stm32fx_iolib/stm32f4x_iolib/stm32f4x_iolib_168MHz_8MHz.a(stm32f4xx_flash.o)
FLASH_OB_BootConfig                               c:/project/stm32fx_iolib/stm32f4x_iolib/stm32f4x_iolib_168MHz_8MHz.a(stm32f4xx_flash.o)
FLASH_OB_GetBOR                                   c:/project/stm32fx_iolib/stm32f4x_iolib/stm32f4x_iolib_168MHz_8MHz.a(stm32f4xx_flash.o)
FLASH_OB_GetPCROP                                 c:/project/stm32fx_iolib/stm32f4x_iolib/stm32f4x_iolib_168MHz_8MHz.a(stm32f4xx_flash.o)
FLASH_OB_GetPCROP1                                c:/project/stm32fx_iolib/stm32f4x_iolib/stm32f4x_iolib_168MHz_8MHz.a(stm32f4xx_flash.o)
FLASH_OB_GetRDP                                   c:/project/stm32fx_iolib/stm32f4x_iolib/stm32f4x_iolib_168MHz_8MHz.a(stm32f4xx_flash.o)
                                                  FLASH_RUN/main.o
FLASH_OB_GetUser                                  c:/project/stm32fx_iolib/stm32f4x_iolib/stm32f4x_iolib_168MHz_8MHz.a(stm32f4xx_flash.o)
FLASH_OB_GetWRP                                   c:/project/stm32fx_iolib/stm32f4x_iolib/stm32f4x_iolib_168MHz_8MHz.a(stm32f4xx_flash.o)
FLASH_OB_GetWRP1                                  c:/project/stm32fx_iolib/stm32f4x_iolib/stm32f4x_iolib_168MHz_8MHz.a(stm32f4xx_flash.o)
FLASH_OB_Launch                                   c:/project/stm32fx_iolib/stm32f4x_iolib/stm32f4x_iolib_168MHz_8MHz.a(stm32f4xx_flash.o)
                                                  FLASH_RUN/main.o
FLASH_OB_Lock                                     c:/project/stm32fx_iolib/stm32f4x_iolib/stm32f4x_iolib_168MHz_8MHz.a(stm32f4xx_flash.o)
                                                  FLASH_RUN/main.o
FLASH_OB_PCROP1Config                             c:/project/stm32fx_iolib/stm32f4x_iolib/stm32f4x_iolib_168MHz_8MHz.a(stm32f4xx_flash.o)
FLASH_OB_PCROPConfig                              c:/project/stm32fx_iolib/stm32f4x_iolib/stm32f4x_iolib_168MHz_8MHz.a(stm32f4xx_flash.o)
FLASH_OB_PCROPSelectionConfig                     c:/project/stm32fx_iolib/stm32f4x_iolib/stm32f4x_iolib_168MHz_8MHz.a(stm32f4xx_flash.o)
FLASH_OB_RDPConfig                                c:/project/stm32fx_iolib/stm32f4x_iolib/stm32f4x_iolib_168MHz_8MHz.a(stm32f4xx_flash.o)
                                                  FLASH_RUN/main.o
FLASH_OB_Unlock                                   c:/project/stm32fx_iolib/stm32f4x_iolib/stm32f4x_iolib_168MHz_8MHz.a(stm32f4xx_flash.o)
                                                  FLASH_RUN/main.o
FLASH_OB_UserConfig                               c:/project/stm32fx_iolib/stm32f4x_iolib/stm32f4x_iolib_168MHz_8MHz.a(stm32f4xx_flash.o)
FLASH_OB_WRP1Config                               c:/project/stm32fx_iolib/stm32f4x_iolib/stm32f4x_iolib_168MHz_8MHz.a(stm32f4xx_flash.o)
FLASH_OB_WRPConfig                                c:/project/stm32fx_iolib/stm32f4x_iolib/stm32f4x_iolib_168MHz_8MHz.a(stm32f4xx_flash.o)
FLASH_PrefetchBufferCmd                           c:/project/stm32fx_iolib/stm32f4x_iolib/stm32f4x_iolib_168MHz_8MHz.a(stm32f4xx_flash.o)
FLASH_ProgramByte                                 c:/project/stm32fx_iolib/stm32f4x_iolib/stm32f4x_iolib_168MHz_8MHz.a(stm32f4xx_flash.o)
FLASH_ProgramDoubleWord                           c:/project/stm32fx_iolib/stm32f4x_iolib/stm32f4x_iolib_168MHz_8MHz.a(stm32f4xx_flash.o)
FLASH_ProgramHalfWord                             c:/project/stm32fx_iolib/stm32f4x_iolib/stm32f4x_iolib_168MHz_8MHz.a(stm32f4xx_flash.o)
FLASH_ProgramWord                                 c:/project/stm32fx_iolib/stm32f4x_iolib/stm32f4x_iolib_168MHz_8MHz.a(stm32f4xx_flash.o)
FLASH_SECTOR_COUNT                                FLASH_RUN/diskio.o
FLASH_SetLatency                                  c:/project/stm32fx_iolib/stm32f4x_iolib/stm32f4x_iolib_168MHz_8MHz.a(stm32f4xx_flash.o)
FLASH_Unlock                                      c:/project/stm32fx_iolib/stm32f4x_iolib/stm32f4x_iolib_168MHz_8MHz.a(stm32f4xx_flash.o)
                                                  FLASH_RUN/serial.o
                                                  FLASH_RUN/main.o
FLASH_WaitForLastOperation                        c:/project/stm32fx_iolib/stm32f4x_iolib/stm32f4x_iolib_168MHz_8MHz.a(stm32f4xx_flash.o)
FMPI2C1_ER_IRQHandler                             c:/project/stm32fx_iolib/stm32f4x_iolib/stm32f4x_iolib_168MHz_8MHz.a(startup_stm32f4xx.o)
FMPI2C1_EV_IRQHandler                             c:/project/stm32fx_iolib/stm32f4x_iolib/stm32f4x_iolib_168MHz_8MHz.a(startup_stm32f4xx.o)
FPU_IRQHandler                                    c:/project/stm32fx_iolib/stm32f4x_iolib/stm32f4x_iolib_168MHz_8MHz.a(startup_stm32f4xx.o)
FSMC_ClearFlag                                    c:/project/stm32fx_iolib/stm32f4x_iolib/stm32f4x_iolib_168MHz_8MHz.a(stm32f4xx_fsmc.o)
FSMC_ClearITPendingBit                            c:/project/stm32fx_iolib/stm32f4x_iolib/stm32f4x_iolib_168MHz_8MHz.a(stm32f4xx_fsmc.o)
FSMC_DefaultTimingStruct                          c:/project/stm32fx_iolib/stm32f4x_iolib/stm32f4x_iolib_168MHz_8MHz.a(stm32f4xx_fsmc.o)
FSMC_GetECC                                       c:/project/stm32fx_iolib/stm32f4x_iolib/stm32f4x_iolib_168MHz_8MHz.a(stm32f4xx_fsmc.o)
FSMC_GetFlagStatus                                c:/project/stm32fx_iolib/stm32f4x_iolib/stm32f4x_iolib_168MHz_8MHz.a(stm32f4xx_fsmc.o)
FSMC_GetITStatus                                  c:/project/stm32fx_iolib/stm32f4x_iolib/stm32f4x_iolib_168MHz_8MHz.a(stm32f4xx_fsmc.o)
FSMC_IRQHandler                                   c:/project/stm32fx_iolib/stm32f4x_iolib/stm32f4x_iolib_168MHz_8MHz.a(startup_stm32f4xx.o)
FSMC_ITConfig                                     c:/project/stm32fx_iolib/stm32f4x_iolib/stm32f4x_iolib_168MHz_8MHz.a(stm32f4xx_fsmc.o)
FSMC_NANDCmd                                      c:/project/stm32fx_iolib/stm32f4x_iolib/stm32f4x_iolib_168MHz_8MHz.a(stm32f4xx_fsmc.o)
FSMC_NANDDeInit                                   c:/project/stm32fx_iolib/stm32f4x_iolib/stm32f4x_iolib_168MHz_8MHz.a(stm32f4xx_fsmc.o)
FSMC_NANDECCCmd                                   c:/project/stm32fx_iolib/stm32f4x_iolib/stm32f4x_iolib_168MHz_8MHz.a(stm32f4xx_fsmc.o)
FSMC_NANDInit                                     c:/project/stm32fx_iolib/stm32f4x_iolib/stm32f4x_iolib_168MHz_8MHz.a(stm32f4xx_fsmc.o)
FSMC_NANDStructInit                               c:/project/stm32fx_iolib/stm32f4x_iolib/stm32f4x_iolib_168MHz_8MHz.a(stm32f4xx_fsmc.o)
FSMC_NORSRAMCmd                                   c:/project/stm32fx_iolib/stm32f4x_iolib/stm32f4x_iolib_168MHz_8MHz.a(stm32f4xx_fsmc.o)
                                                  FLASH_RUN/ext_sram.o
                                                  FLASH_RUN/lcd.o
FSMC_NORSRAMDeInit                                c:/project/stm32fx_iolib/stm32f4x_iolib/stm32f4x_iolib_168MHz_8MHz.a(stm32f4xx_fsmc.o)
FSMC_NORSRAMInit                                  c:/project/stm32fx_iolib/stm32f4x_iolib/stm32f4x_iolib_168MHz_8MHz.a(stm32f4xx_fsmc.o)
                                                  FLASH_RUN/ext_sram.o
                                                  FLASH_RUN/lcd.o
FSMC_NORSRAMStructInit                            c:/project/stm32fx_iolib/stm32f4x_iolib/stm32f4x_iolib_168MHz_8MHz.a(stm32f4xx_fsmc.o)
FSMC_PCCARDCmd                                    c:/project/stm32fx_iolib/stm32f4x_iolib/stm32f4x_iolib_168MHz_8MHz.a(stm32f4xx_fsmc.o)
FSMC_PCCARDDeInit                                 c:/project/stm32fx_iolib/stm32f4x_iolib/stm32f4x_iolib_168MHz_8MHz.a(stm32f4xx_fsmc.o)
FSMC_PCCARDInit                                   c:/project/stm32fx_iolib/stm32f4x_iolib/stm32f4x_iolib_168MHz_8MHz.a(stm32f4xx_fsmc.o)
FSMC_PCCARDStructInit                             c:/project/stm32fx_iolib/stm32f4x_iolib/stm32f4x_iolib_168MHz_8MHz.a(stm32f4xx_fsmc.o)
FSMC_SRAM_Init                                    FLASH_RUN/ext_sram.o
                                                  FLASH_RUN/audio.o
FSMC_SRAM_ReadBuffer                              FLASH_RUN/ext_sram.o
FSMC_SRAM_WriteBuffer                             FLASH_RUN/ext_sram.o
FindSCR                                           FLASH_RUN/sdio_sdcard.o
GPIO_Configuration                                FLASH_RUN/main.o
GPIO_DeInit                                       c:/project/stm32fx_iolib/stm32f4x_iolib/stm32f4x_iolib_168MHz_8MHz.a(stm32f4xx_gpio.o)
GPIO_Init                                         c:/project/stm32fx_iolib/stm32f4x_iolib/stm32f4x_iolib_168MHz_8MHz.a(stm32f4xx_gpio.o)
                                                  FLASH_RUN/ext_sram.o
GPIO_Init_Pin                                     c:/project/stm32fx_iolib/stm32f4x_iolib/stm32f4x_iolib_168MHz_8MHz.a(stm32f4xx_gpio.o)
                                                  FLASH_RUN/sdio_sdcard.o
                                                  FLASH_RUN/wm8978.o
                                                  FLASH_RUN/dac1.o
                                                  FLASH_RUN/adc.o
                                                  FLASH_RUN/ir_remocon.o
                                                  FLASH_RUN/touch_pad.o
                                                  FLASH_RUN/touch_panel.o
                                                  FLASH_RUN/lcd.o
                                                  FLASH_RUN/key.o
                                                  FLASH_RUN/i2c_app.o
                                                  FLASH_RUN/serial.o
                                                  FLASH_RUN/main.o
GPIO_PinAFConfig                                  c:/project/stm32fx_iolib/stm32f4x_iolib/stm32f4x_iolib_168MHz_8MHz.a(stm32f4xx_gpio.o)
                                                  FLASH_RUN/ext_sram.o
                                                  FLASH_RUN/sdio_sdcard.o
                                                  FLASH_RUN/wm8978.o
                                                  FLASH_RUN/ir_remocon.o
                                                  FLASH_RUN/touch_pad.o
                                                  FLASH_RUN/lcd.o
                                                  FLASH_RUN/i2c_app.o
                                                  FLASH_RUN/serial.o
                                                  FLASH_RUN/main.o
GPIO_PinLockConfig                                c:/project/stm32fx_iolib/stm32f4x_iolib/stm32f4x_iolib_168MHz_8MHz.a(stm32f4xx_gpio.o)
GPIO_ReadInputData                                c:/project/stm32fx_iolib/stm32f4x_iolib/stm32f4x_iolib_168MHz_8MHz.a(stm32f4xx_gpio.o)
GPIO_ReadInputDataBit                             c:/project/stm32fx_iolib/stm32f4x_iolib/stm32f4x_iolib_168MHz_8MHz.a(stm32f4xx_gpio.o)
GPIO_ReadOutputData                               c:/project/stm32fx_iolib/stm32f4x_iolib/stm32f4x_iolib_168MHz_8MHz.a(stm32f4xx_gpio.o)
GPIO_ReadOutputDataBit                            c:/project/stm32fx_iolib/stm32f4x_iolib/stm32f4x_iolib_168MHz_8MHz.a(stm32f4xx_gpio.o)
GPIO_ResetBits                                    c:/project/stm32fx_iolib/stm32f4x_iolib/stm32f4x_iolib_168MHz_8MHz.a(stm32f4xx_gpio.o)
                                                  FLASH_RUN/touch_pad.o
GPIO_SetBits                                      c:/project/stm32fx_iolib/stm32f4x_iolib/stm32f4x_iolib_168MHz_8MHz.a(stm32f4xx_gpio.o)
GPIO_StructInit                                   c:/project/stm32fx_iolib/stm32f4x_iolib/stm32f4x_iolib_168MHz_8MHz.a(stm32f4xx_gpio.o)
GPIO_ToggleBits                                   c:/project/stm32fx_iolib/stm32f4x_iolib/stm32f4x_iolib_168MHz_8MHz.a(stm32f4xx_gpio.o)
GPIO_Write                                        c:/project/stm32fx_iolib/stm32f4x_iolib/stm32f4x_iolib_168MHz_8MHz.a(stm32f4xx_gpio.o)
GPIO_WriteBit                                     c:/project/stm32fx_iolib/stm32f4x_iolib/stm32f4x_iolib_168MHz_8MHz.a(stm32f4xx_gpio.o)
HASH_RNG_IRQHandler                               c:/project/stm32fx_iolib/stm32f4x_iolib/stm32f4x_iolib_168MHz_8MHz.a(startup_stm32f4xx.o)
HL2IRW                                            c:/project/stm32fx_iolib/stm32f4x_iolib/stm32f4x_iolib_168MHz_8MHz.a(startup_stm32f4xx.o)
HardFault_Handler                                 c:/project/stm32fx_iolib/stm32f4x_iolib/stm32f4x_iolib_168MHz_8MHz.a(startup_stm32f4xx.o)
I2C1_ER_IRQHandler                                c:/project/stm32fx_iolib/stm32f4x_iolib/stm32f4x_iolib_168MHz_8MHz.a(startup_stm32f4xx.o)
I2C1_EV_IRQHandler                                c:/project/stm32fx_iolib/stm32f4x_iolib/stm32f4x_iolib_168MHz_8MHz.a(startup_stm32f4xx.o)
I2C1_PORT                                         FLASH_RUN/i2c_app.o
I2C2_ER_IRQHandler                                c:/project/stm32fx_iolib/stm32f4x_iolib/stm32f4x_iolib_168MHz_8MHz.a(startup_stm32f4xx.o)
I2C2_EV_IRQHandler                                c:/project/stm32fx_iolib/stm32f4x_iolib/stm32f4x_iolib_168MHz_8MHz.a(startup_stm32f4xx.o)
I2C3_ER_IRQHandler                                c:/project/stm32fx_iolib/stm32f4x_iolib/stm32f4x_iolib_168MHz_8MHz.a(startup_stm32f4xx.o)
I2C3_EV_IRQHandler                                c:/project/stm32fx_iolib/stm32f4x_iolib/stm32f4x_iolib_168MHz_8MHz.a(startup_stm32f4xx.o)
I2C_ARPCmd                                        c:/project/stm32fx_iolib/stm32f4x_iolib/stm32f4x_iolib_168MHz_8MHz.a(stm32f4xx_i2c.o)
I2C_AcknowledgeConfig                             c:/project/stm32fx_iolib/stm32f4x_iolib/stm32f4x_iolib_168MHz_8MHz.a(stm32f4xx_i2c.o)
                                                  FLASH_RUN/i2c_app.o
I2C_AnalogFilterCmd                               c:/project/stm32fx_iolib/stm32f4x_iolib/stm32f4x_iolib_168MHz_8MHz.a(stm32f4xx_i2c.o)
I2C_CHANNEL                                       FLASH_RUN/i2c_app.o
                                                  FLASH_RUN/wm8978.o
I2C_CalculatePEC                                  c:/project/stm32fx_iolib/stm32f4x_iolib/stm32f4x_iolib_168MHz_8MHz.a(stm32f4xx_i2c.o)
I2C_CheckEvent                                    c:/project/stm32fx_iolib/stm32f4x_iolib/stm32f4x_iolib_168MHz_8MHz.a(stm32f4xx_i2c.o)
                                                  FLASH_RUN/i2c_app.o
I2C_ClearFlag                                     c:/project/stm32fx_iolib/stm32f4x_iolib/stm32f4x_iolib_168MHz_8MHz.a(stm32f4xx_i2c.o)
                                                  FLASH_RUN/i2c_app.o
I2C_ClearITPendingBit                             c:/project/stm32fx_iolib/stm32f4x_iolib/stm32f4x_iolib_168MHz_8MHz.a(stm32f4xx_i2c.o)
I2C_Cmd                                           c:/project/stm32fx_iolib/stm32f4x_iolib/stm32f4x_iolib_168MHz_8MHz.a(stm32f4xx_i2c.o)
                                                  FLASH_RUN/i2c_app.o
I2C_DMACmd                                        c:/project/stm32fx_iolib/stm32f4x_iolib/stm32f4x_iolib_168MHz_8MHz.a(stm32f4xx_i2c.o)
I2C_DMALastTransferCmd                            c:/project/stm32fx_iolib/stm32f4x_iolib/stm32f4x_iolib_168MHz_8MHz.a(stm32f4xx_i2c.o)
I2C_DeInit                                        c:/project/stm32fx_iolib/stm32f4x_iolib/stm32f4x_iolib_168MHz_8MHz.a(stm32f4xx_i2c.o)
                                                  FLASH_RUN/i2c_app.o
I2C_DigitalFilterConfig                           c:/project/stm32fx_iolib/stm32f4x_iolib/stm32f4x_iolib_168MHz_8MHz.a(stm32f4xx_i2c.o)
I2C_DualAddressCmd                                c:/project/stm32fx_iolib/stm32f4x_iolib/stm32f4x_iolib_168MHz_8MHz.a(stm32f4xx_i2c.o)
I2C_FastModeDutyCycleConfig                       c:/project/stm32fx_iolib/stm32f4x_iolib/stm32f4x_iolib_168MHz_8MHz.a(stm32f4xx_i2c.o)
I2C_GeneralCallCmd                                c:/project/stm32fx_iolib/stm32f4x_iolib/stm32f4x_iolib_168MHz_8MHz.a(stm32f4xx_i2c.o)
I2C_GenerateSTART                                 c:/project/stm32fx_iolib/stm32f4x_iolib/stm32f4x_iolib_168MHz_8MHz.a(stm32f4xx_i2c.o)
                                                  FLASH_RUN/i2c_app.o
I2C_GenerateSTOP                                  c:/project/stm32fx_iolib/stm32f4x_iolib/stm32f4x_iolib_168MHz_8MHz.a(stm32f4xx_i2c.o)
                                                  FLASH_RUN/i2c_app.o
I2C_GetFlagStatus                                 c:/project/stm32fx_iolib/stm32f4x_iolib/stm32f4x_iolib_168MHz_8MHz.a(stm32f4xx_i2c.o)
                                                  FLASH_RUN/i2c_app.o
I2C_GetITStatus                                   c:/project/stm32fx_iolib/stm32f4x_iolib/stm32f4x_iolib_168MHz_8MHz.a(stm32f4xx_i2c.o)
I2C_GetLastEvent                                  c:/project/stm32fx_iolib/stm32f4x_iolib/stm32f4x_iolib_168MHz_8MHz.a(stm32f4xx_i2c.o)
                                                  FLASH_RUN/i2c_app.o
I2C_GetPEC                                        c:/project/stm32fx_iolib/stm32f4x_iolib/stm32f4x_iolib_168MHz_8MHz.a(stm32f4xx_i2c.o)
I2C_ITConfig                                      c:/project/stm32fx_iolib/stm32f4x_iolib/stm32f4x_iolib_168MHz_8MHz.a(stm32f4xx_i2c.o)
I2C_Init                                          c:/project/stm32fx_iolib/stm32f4x_iolib/stm32f4x_iolib_168MHz_8MHz.a(stm32f4xx_i2c.o)
                                                  FLASH_RUN/i2c_app.o
I2C_LowLevel_Init                                 FLASH_RUN/i2c_app.o
I2C_NACKPositionConfig                            c:/project/stm32fx_iolib/stm32f4x_iolib/stm32f4x_iolib_168MHz_8MHz.a(stm32f4xx_i2c.o)
I2C_OwnAddress2Config                             c:/project/stm32fx_iolib/stm32f4x_iolib/stm32f4x_iolib_168MHz_8MHz.a(stm32f4xx_i2c.o)
I2C_PECPositionConfig                             c:/project/stm32fx_iolib/stm32f4x_iolib/stm32f4x_iolib_168MHz_8MHz.a(stm32f4xx_i2c.o)
I2C_ReadRegister                                  c:/project/stm32fx_iolib/stm32f4x_iolib/stm32f4x_iolib_168MHz_8MHz.a(stm32f4xx_i2c.o)
I2C_ReceiveData                                   c:/project/stm32fx_iolib/stm32f4x_iolib/stm32f4x_iolib_168MHz_8MHz.a(stm32f4xx_i2c.o)
                                                  FLASH_RUN/i2c_app.o
I2C_SMBusAlertConfig                              c:/project/stm32fx_iolib/stm32f4x_iolib/stm32f4x_iolib_168MHz_8MHz.a(stm32f4xx_i2c.o)
I2C_Send7bitAddress                               c:/project/stm32fx_iolib/stm32f4x_iolib/stm32f4x_iolib_168MHz_8MHz.a(stm32f4xx_i2c.o)
                                                  FLASH_RUN/i2c_app.o
I2C_SendData                                      c:/project/stm32fx_iolib/stm32f4x_iolib/stm32f4x_iolib_168MHz_8MHz.a(stm32f4xx_i2c.o)
                                                  FLASH_RUN/i2c_app.o
I2C_SoftwareResetCmd                              c:/project/stm32fx_iolib/stm32f4x_iolib/stm32f4x_iolib_168MHz_8MHz.a(stm32f4xx_i2c.o)
I2C_StretchClockCmd                               c:/project/stm32fx_iolib/stm32f4x_iolib/stm32f4x_iolib_168MHz_8MHz.a(stm32f4xx_i2c.o)
I2C_StructInit                                    c:/project/stm32fx_iolib/stm32f4x_iolib/stm32f4x_iolib_168MHz_8MHz.a(stm32f4xx_i2c.o)
I2C_TransmitPEC                                   c:/project/stm32fx_iolib/stm32f4x_iolib/stm32f4x_iolib_168MHz_8MHz.a(stm32f4xx_i2c.o)
I2S2_Init                                         FLASH_RUN/i2s.o
                                                  FLASH_RUN/apeplay.o
                                                  FLASH_RUN/flacplay.o
                                                  FLASH_RUN/wavplay.o
                                                  FLASH_RUN/mp3play.o
I2S2_SampleRate_Set                               FLASH_RUN/i2s.o
                                                  FLASH_RUN/apeplay.o
                                                  FLASH_RUN/flacplay.o
                                                  FLASH_RUN/wavplay.o
                                                  FLASH_RUN/mp3play.o
I2S2_TX_DMA_Init                                  FLASH_RUN/i2s.o
                                                  FLASH_RUN/apeplay.o
                                                  FLASH_RUN/flacplay.o
                                                  FLASH_RUN/wavplay.o
                                                  FLASH_RUN/mp3play.o
I2S2ext_Init                                      FLASH_RUN/i2s.o
I2S2ext_RX_DMA_Init                               FLASH_RUN/i2s.o
I2S_Cmd                                           c:/project/stm32fx_iolib/stm32f4x_iolib/stm32f4x_iolib_168MHz_8MHz.a(stm32f4xx_spi.o)
                                                  FLASH_RUN/i2s.o
I2S_FullDuplexConfig                              c:/project/stm32fx_iolib/stm32f4x_iolib/stm32f4x_iolib_168MHz_8MHz.a(stm32f4xx_spi.o)
                                                  FLASH_RUN/i2s.o
I2S_Init                                          c:/project/stm32fx_iolib/stm32f4x_iolib/stm32f4x_iolib_168MHz_8MHz.a(stm32f4xx_spi.o)
                                                  FLASH_RUN/i2s.o
I2S_PSC_TBL                                       FLASH_RUN/i2s.o
I2S_Play_Start                                    FLASH_RUN/i2s.o
                                                  FLASH_RUN/audio.o
I2S_Play_Stop                                     FLASH_RUN/i2s.o
                                                  FLASH_RUN/audio.o
I2S_Rec_Start                                     FLASH_RUN/i2s.o
I2S_Rec_Stop                                      FLASH_RUN/i2s.o
I2S_StructInit                                    c:/project/stm32fx_iolib/stm32f4x_iolib/stm32f4x_iolib_168MHz_8MHz.a(stm32f4xx_spi.o)
IWDG_Enable                                       c:/project/stm32fx_iolib/stm32f4x_iolib/stm32f4x_iolib_168MHz_8MHz.a(stm32f4xx_iwdg.o)
                                                  FLASH_RUN/main.o
IWDG_GetFlagStatus                                c:/project/stm32fx_iolib/stm32f4x_iolib/stm32f4x_iolib_168MHz_8MHz.a(stm32f4xx_iwdg.o)
IWDG_ReloadCounter                                c:/project/stm32fx_iolib/stm32f4x_iolib/stm32f4x_iolib_168MHz_8MHz.a(stm32f4xx_iwdg.o)
                                                  FLASH_RUN/audio.o
                                                  FLASH_RUN/touch_panel.o
                                                  FLASH_RUN/random_disp.o
                                                  FLASH_RUN/i2c_app.o
                                                  FLASH_RUN/main.o
IWDG_SetPrescaler                                 c:/project/stm32fx_iolib/stm32f4x_iolib/stm32f4x_iolib_168MHz_8MHz.a(stm32f4xx_iwdg.o)
                                                  FLASH_RUN/main.o
IWDG_SetReload                                    c:/project/stm32fx_iolib/stm32f4x_iolib/stm32f4x_iolib_168MHz_8MHz.a(stm32f4xx_iwdg.o)
                                                  FLASH_RUN/main.o
IWDG_WriteAccessCmd                               c:/project/stm32fx_iolib/stm32f4x_iolib/stm32f4x_iolib_168MHz_8MHz.a(stm32f4xx_iwdg.o)
                                                  FLASH_RUN/main.o
IsCardProgramming                                 FLASH_RUN/sdio_sdcard.o
KS_CODE                                           FLASH_RUN/lcd.o
LCD_BGR2RGB                                       FLASH_RUN/lcd.o
LCD_Clear                                         FLASH_RUN/lcd.o
                                                  FLASH_RUN/audio.o
                                                  FLASH_RUN/touch_panel.o
LCD_Color_Fill                                    FLASH_RUN/lcd.o
LCD_DisplayOff                                    FLASH_RUN/lcd.o
LCD_DisplayOn                                     FLASH_RUN/lcd.o
LCD_Display_Dir                                   FLASH_RUN/lcd.o
LCD_DrawLine                                      FLASH_RUN/lcd.o
                                                  FLASH_RUN/touch_panel.o
LCD_DrawPoint                                     FLASH_RUN/lcd.o
                                                  FLASH_RUN/touch_panel.o
LCD_DrawRectangle                                 FLASH_RUN/lcd.o
LCD_Draw_Circle                                   FLASH_RUN/lcd.o
                                                  FLASH_RUN/touch_panel.o
LCD_Fast_DrawPoint                                FLASH_RUN/lcd.o
LCD_Fill                                          FLASH_RUN/lcd.o
                                                  FLASH_RUN/random_disp.o
LCD_Init                                          FLASH_RUN/lcd.o
                                                  FLASH_RUN/main.o
LCD_RD_DATA                                       FLASH_RUN/lcd.o
LCD_ReadPoint                                     FLASH_RUN/lcd.o
LCD_ReadReg                                       FLASH_RUN/lcd.o
LCD_SSD_BackLightSet                              FLASH_RUN/lcd.o
LCD_Scan_Dir                                      FLASH_RUN/lcd.o
LCD_SetCursor                                     FLASH_RUN/lcd.o
LCD_Set_Window                                    FLASH_RUN/lcd.o
LCD_WR_DATA                                       FLASH_RUN/lcd.o
LCD_WR_REG                                        FLASH_RUN/lcd.o
LCD_WriteRAM                                      FLASH_RUN/lcd.o
LCD_WriteRAM_Prepare                              FLASH_RUN/lcd.o
LCD_WriteReg                                      FLASH_RUN/lcd.o
LPTIM1_IRQHandler                                 c:/project/stm32fx_iolib/stm32f4x_iolib/stm32f4x_iolib_168MHz_8MHz.a(startup_stm32f4xx.o)
LTDC_ER_IRQHandler                                c:/project/stm32fx_iolib/stm32f4x_iolib/stm32f4x_iolib_168MHz_8MHz.a(startup_stm32f4xx.o)
LTDC_IRQHandler                                   c:/project/stm32fx_iolib/stm32f4x_iolib/stm32f4x_iolib_168MHz_8MHz.a(startup_stm32f4xx.o)
MP3Decode                                         source/audio_codec/mp3/mp3.a(mp3dec.o)
                                                  FLASH_RUN/mp3play.o
MP3FindSyncWord                                   source/audio_codec/mp3/mp3.a(mp3dec.o)
                                                  FLASH_RUN/mp3play.o
MP3FreeDecoder                                    source/audio_codec/mp3/mp3.a(mp3dec.o)
                                                  FLASH_RUN/mp3play.o
MP3GetLastFrameInfo                               source/audio_codec/mp3/mp3.a(mp3dec.o)
                                                  FLASH_RUN/mp3play.o
MP3GetNextFrameInfo                               source/audio_codec/mp3/mp3.a(mp3dec.o)
                                                  FLASH_RUN/mp3play.o
MP3InitDecoder                                    source/audio_codec/mp3/mp3.a(mp3dec.o)
                                                  FLASH_RUN/mp3play.o
MemManage_Handler                                 c:/project/stm32fx_iolib/stm32f4x_iolib/stm32f4x_iolib_168MHz_8MHz.a(startup_stm32f4xx.o)
NMI_Handler                                       c:/project/stm32fx_iolib/stm32f4x_iolib/stm32f4x_iolib_168MHz_8MHz.a(startup_stm32f4xx.o)
NVIC_Configuration                                FLASH_RUN/main.o
NVIC_Init                                         c:/project/stm32fx_iolib/stm32f4x_iolib/stm32f4x_iolib_168MHz_8MHz.a(misc.o)
                                                  FLASH_RUN/rtc.o
                                                  FLASH_RUN/i2s.o
                                                  FLASH_RUN/sdio_sdcard.o
                                                  FLASH_RUN/ir_remocon.o
                                                  FLASH_RUN/serial.o
NVIC_PriorityGroupConfig                          c:/project/stm32fx_iolib/stm32f4x_iolib/stm32f4x_iolib_168MHz_8MHz.a(misc.o)
                                                  FLASH_RUN/main.o
NVIC_SetVectorTable                               c:/project/stm32fx_iolib/stm32f4x_iolib/stm32f4x_iolib_168MHz_8MHz.a(misc.o)
                                                  FLASH_RUN/main.o
NVIC_SystemLPConfig                               c:/project/stm32fx_iolib/stm32f4x_iolib/stm32f4x_iolib_168MHz_8MHz.a(misc.o)
OTG_FS_IRQHandler                                 c:/project/stm32fx_iolib/stm32f4x_iolib/stm32f4x_iolib_168MHz_8MHz.a(startup_stm32f4xx.o)
OTG_FS_WKUP_IRQHandler                            c:/project/stm32fx_iolib/stm32f4x_iolib/stm32f4x_iolib_168MHz_8MHz.a(startup_stm32f4xx.o)
OTG_HS_EP1_IN_IRQHandler                          c:/project/stm32fx_iolib/stm32f4x_iolib/stm32f4x_iolib_168MHz_8MHz.a(startup_stm32f4xx.o)
OTG_HS_EP1_OUT_IRQHandler                         c:/project/stm32fx_iolib/stm32f4x_iolib/stm32f4x_iolib_168MHz_8MHz.a(startup_stm32f4xx.o)
OTG_HS_IRQHandler                                 c:/project/stm32fx_iolib/stm32f4x_iolib/stm32f4x_iolib_168MHz_8MHz.a(startup_stm32f4xx.o)
OTG_HS_WKUP_IRQHandler                            c:/project/stm32fx_iolib/stm32f4x_iolib/stm32f4x_iolib_168MHz_8MHz.a(startup_stm32f4xx.o)
PVD_IRQHandler                                    c:/project/stm32fx_iolib/stm32f4x_iolib/stm32f4x_iolib_168MHz_8MHz.a(startup_stm32f4xx.o)
PWR_BackupAccessCmd                               c:/project/stm32fx_iolib/stm32f4x_iolib/stm32f4x_iolib_168MHz_8MHz.a(stm32f4xx_pwr.o)
                                                  FLASH_RUN/rtc.o
PWR_BackupRegulatorCmd                            c:/project/stm32fx_iolib/stm32f4x_iolib/stm32f4x_iolib_168MHz_8MHz.a(stm32f4xx_pwr.o)
PWR_ClearFlag                                     c:/project/stm32fx_iolib/stm32f4x_iolib/stm32f4x_iolib_168MHz_8MHz.a(stm32f4xx_pwr.o)
PWR_DeInit                                        c:/project/stm32fx_iolib/stm32f4x_iolib/stm32f4x_iolib_168MHz_8MHz.a(stm32f4xx_pwr.o)
PWR_EnterSTANDBYMode                              c:/project/stm32fx_iolib/stm32f4x_iolib/stm32f4x_iolib_168MHz_8MHz.a(stm32f4xx_pwr.o)
PWR_EnterSTOPMode                                 c:/project/stm32fx_iolib/stm32f4x_iolib/stm32f4x_iolib_168MHz_8MHz.a(stm32f4xx_pwr.o)
PWR_EnterUnderDriveSTOPMode                       c:/project/stm32fx_iolib/stm32f4x_iolib/stm32f4x_iolib_168MHz_8MHz.a(stm32f4xx_pwr.o)
PWR_FlashPowerDownCmd                             c:/project/stm32fx_iolib/stm32f4x_iolib/stm32f4x_iolib_168MHz_8MHz.a(stm32f4xx_pwr.o)
PWR_GetFlagStatus                                 c:/project/stm32fx_iolib/stm32f4x_iolib/stm32f4x_iolib_168MHz_8MHz.a(stm32f4xx_pwr.o)
PWR_MainRegulatorModeConfig                       c:/project/stm32fx_iolib/stm32f4x_iolib/stm32f4x_iolib_168MHz_8MHz.a(stm32f4xx_pwr.o)
PWR_OverDriveCmd                                  c:/project/stm32fx_iolib/stm32f4x_iolib/stm32f4x_iolib_168MHz_8MHz.a(stm32f4xx_pwr.o)
PWR_OverDriveSWCmd                                c:/project/stm32fx_iolib/stm32f4x_iolib/stm32f4x_iolib_168MHz_8MHz.a(stm32f4xx_pwr.o)
PWR_PVDCmd                                        c:/project/stm32fx_iolib/stm32f4x_iolib/stm32f4x_iolib_168MHz_8MHz.a(stm32f4xx_pwr.o)
PWR_PVDLevelConfig                                c:/project/stm32fx_iolib/stm32f4x_iolib/stm32f4x_iolib_168MHz_8MHz.a(stm32f4xx_pwr.o)
PWR_UnderDriveCmd                                 c:/project/stm32fx_iolib/stm32f4x_iolib/stm32f4x_iolib_168MHz_8MHz.a(stm32f4xx_pwr.o)
PWR_WakeUpPinCmd                                  c:/project/stm32fx_iolib/stm32f4x_iolib/stm32f4x_iolib_168MHz_8MHz.a(stm32f4xx_pwr.o)
PendSV_Handler                                    c:/project/stm32fx_iolib/stm32f4x_iolib/stm32f4x_iolib_168MHz_8MHz.a(startup_stm32f4xx.o)
Periph_Configuration                              FLASH_RUN/main.o
QUADSPI_IRQHandler                                c:/project/stm32fx_iolib/stm32f4x_iolib/stm32f4x_iolib_168MHz_8MHz.a(startup_stm32f4xx.o)
RCC_AHB1PeriphClockCmd                            c:/project/stm32fx_iolib/stm32f4x_iolib/stm32f4x_iolib_168MHz_8MHz.a(stm32f4xx_rcc.o)
                                                  FLASH_RUN/ext_sram.o
                                                  FLASH_RUN/i2s.o
                                                  FLASH_RUN/sdio_sdcard.o
                                                  FLASH_RUN/wm8978.o
                                                  FLASH_RUN/dac1.o
                                                  FLASH_RUN/adc.o
                                                  FLASH_RUN/ir_remocon.o
                                                  FLASH_RUN/touch_pad.o
                                                  FLASH_RUN/touch_panel.o
                                                  FLASH_RUN/lcd.o
                                                  FLASH_RUN/key.o
                                                  FLASH_RUN/main.o
RCC_AHB1PeriphClockLPModeCmd                      c:/project/stm32fx_iolib/stm32f4x_iolib/stm32f4x_iolib_168MHz_8MHz.a(stm32f4xx_rcc.o)
RCC_AHB1PeriphResetCmd                            c:/project/stm32fx_iolib/stm32f4x_iolib/stm32f4x_iolib_168MHz_8MHz.a(stm32f4xx_rcc.o)
                                                  c:/project/stm32fx_iolib/stm32f4x_iolib/stm32f4x_iolib_168MHz_8MHz.a(stm32f4xx_gpio.o)
RCC_AHB2PeriphClockCmd                            c:/project/stm32fx_iolib/stm32f4x_iolib/stm32f4x_iolib_168MHz_8MHz.a(stm32f4xx_rcc.o)
RCC_AHB2PeriphClockLPModeCmd                      c:/project/stm32fx_iolib/stm32f4x_iolib/stm32f4x_iolib_168MHz_8MHz.a(stm32f4xx_rcc.o)
RCC_AHB2PeriphResetCmd                            c:/project/stm32fx_iolib/stm32f4x_iolib/stm32f4x_iolib_168MHz_8MHz.a(stm32f4xx_rcc.o)
RCC_AHB3PeriphClockCmd                            c:/project/stm32fx_iolib/stm32f4x_iolib/stm32f4x_iolib_168MHz_8MHz.a(stm32f4xx_rcc.o)
                                                  FLASH_RUN/ext_sram.o
                                                  FLASH_RUN/lcd.o
RCC_AHB3PeriphClockLPModeCmd                      c:/project/stm32fx_iolib/stm32f4x_iolib/stm32f4x_iolib_168MHz_8MHz.a(stm32f4xx_rcc.o)
RCC_AHB3PeriphResetCmd                            c:/project/stm32fx_iolib/stm32f4x_iolib/stm32f4x_iolib_168MHz_8MHz.a(stm32f4xx_rcc.o)
RCC_APB1PeriphClockCmd                            c:/project/stm32fx_iolib/stm32f4x_iolib/stm32f4x_iolib_168MHz_8MHz.a(stm32f4xx_rcc.o)
                                                  FLASH_RUN/rtc.o
                                                  FLASH_RUN/i2s.o
                                                  FLASH_RUN/dac1.o
                                                  FLASH_RUN/touch_pad.o
                                                  FLASH_RUN/i2c_app.o
                                                  FLASH_RUN/serial.o
                                                  FLASH_RUN/main.o
RCC_APB1PeriphClockLPModeCmd                      c:/project/stm32fx_iolib/stm32f4x_iolib/stm32f4x_iolib_168MHz_8MHz.a(stm32f4xx_rcc.o)
RCC_APB1PeriphResetCmd                            c:/project/stm32fx_iolib/stm32f4x_iolib/stm32f4x_iolib_168MHz_8MHz.a(stm32f4xx_rcc.o)
                                                  c:/project/stm32fx_iolib/stm32f4x_iolib/stm32f4x_iolib_168MHz_8MHz.a(stm32f4xx_usart.o)
                                                  c:/project/stm32fx_iolib/stm32f4x_iolib/stm32f4x_iolib_168MHz_8MHz.a(stm32f4xx_tim.o)
                                                  c:/project/stm32fx_iolib/stm32f4x_iolib/stm32f4x_iolib_168MHz_8MHz.a(stm32f4xx_spi.o)
                                                  c:/project/stm32fx_iolib/stm32f4x_iolib/stm32f4x_iolib_168MHz_8MHz.a(stm32f4xx_pwr.o)
                                                  c:/project/stm32fx_iolib/stm32f4x_iolib/stm32f4x_iolib_168MHz_8MHz.a(stm32f4xx_i2c.o)
                                                  c:/project/stm32fx_iolib/stm32f4x_iolib/stm32f4x_iolib_168MHz_8MHz.a(stm32f4xx_dac.o)
                                                  FLASH_RUN/i2s.o
RCC_APB2PeriphClockCmd                            c:/project/stm32fx_iolib/stm32f4x_iolib/stm32f4x_iolib_168MHz_8MHz.a(stm32f4xx_rcc.o)
                                                  FLASH_RUN/sdio_sdcard.o
                                                  FLASH_RUN/adc.o
                                                  FLASH_RUN/ir_remocon.o
                                                  FLASH_RUN/serial.o
                                                  FLASH_RUN/main.o
RCC_APB2PeriphClockLPModeCmd                      c:/project/stm32fx_iolib/stm32f4x_iolib/stm32f4x_iolib_168MHz_8MHz.a(stm32f4xx_rcc.o)
RCC_APB2PeriphResetCmd                            c:/project/stm32fx_iolib/stm32f4x_iolib/stm32f4x_iolib_168MHz_8MHz.a(stm32f4xx_rcc.o)
                                                  c:/project/stm32fx_iolib/stm32f4x_iolib/stm32f4x_iolib_168MHz_8MHz.a(stm32f4xx_usart.o)
                                                  c:/project/stm32fx_iolib/stm32f4x_iolib/stm32f4x_iolib_168MHz_8MHz.a(stm32f4xx_tim.o)
                                                  c:/project/stm32fx_iolib/stm32f4x_iolib/stm32f4x_iolib_168MHz_8MHz.a(stm32f4xx_spi.o)
                                                  c:/project/stm32fx_iolib/stm32f4x_iolib/stm32f4x_iolib_168MHz_8MHz.a(stm32f4xx_sdio.o)
                                                  c:/project/stm32fx_iolib/stm32f4x_iolib/stm32f4x_iolib_168MHz_8MHz.a(stm32f4xx_adc.o)
                                                  FLASH_RUN/sdio_sdcard.o
                                                  FLASH_RUN/adc.o
RCC_AdjustHSICalibrationValue                     c:/project/stm32fx_iolib/stm32f4x_iolib/stm32f4x_iolib_168MHz_8MHz.a(stm32f4xx_rcc.o)
RCC_BackupResetCmd                                c:/project/stm32fx_iolib/stm32f4x_iolib/stm32f4x_iolib_168MHz_8MHz.a(stm32f4xx_rcc.o)
RCC_ClearFlag                                     c:/project/stm32fx_iolib/stm32f4x_iolib/stm32f4x_iolib_168MHz_8MHz.a(stm32f4xx_rcc.o)
RCC_ClearITPendingBit                             c:/project/stm32fx_iolib/stm32f4x_iolib/stm32f4x_iolib_168MHz_8MHz.a(stm32f4xx_rcc.o)
RCC_ClockSecuritySystemCmd                        c:/project/stm32fx_iolib/stm32f4x_iolib/stm32f4x_iolib_168MHz_8MHz.a(stm32f4xx_rcc.o)
RCC_DeInit                                        c:/project/stm32fx_iolib/stm32f4x_iolib/stm32f4x_iolib_168MHz_8MHz.a(stm32f4xx_rcc.o)
RCC_GetClocksFreq                                 c:/project/stm32fx_iolib/stm32f4x_iolib/stm32f4x_iolib_168MHz_8MHz.a(stm32f4xx_rcc.o)
                                                  c:/project/stm32fx_iolib/stm32f4x_iolib/stm32f4x_iolib_168MHz_8MHz.a(stm32f4xx_usart.o)
                                                  c:/project/stm32fx_iolib/stm32f4x_iolib/stm32f4x_iolib_168MHz_8MHz.a(stm32f4xx_i2c.o)
                                                  FLASH_RUN/main.o
RCC_GetFlagStatus                                 c:/project/stm32fx_iolib/stm32f4x_iolib/stm32f4x_iolib_168MHz_8MHz.a(stm32f4xx_rcc.o)
                                                  FLASH_RUN/rtc.o
RCC_GetITStatus                                   c:/project/stm32fx_iolib/stm32f4x_iolib/stm32f4x_iolib_168MHz_8MHz.a(stm32f4xx_rcc.o)
RCC_GetSYSCLKSource                               c:/project/stm32fx_iolib/stm32f4x_iolib/stm32f4x_iolib_168MHz_8MHz.a(stm32f4xx_rcc.o)
RCC_HCLKConfig                                    c:/project/stm32fx_iolib/stm32f4x_iolib/stm32f4x_iolib_168MHz_8MHz.a(stm32f4xx_rcc.o)
RCC_HSEConfig                                     c:/project/stm32fx_iolib/stm32f4x_iolib/stm32f4x_iolib_168MHz_8MHz.a(stm32f4xx_rcc.o)
RCC_HSICmd                                        c:/project/stm32fx_iolib/stm32f4x_iolib/stm32f4x_iolib_168MHz_8MHz.a(stm32f4xx_rcc.o)
RCC_I2SCLKConfig                                  c:/project/stm32fx_iolib/stm32f4x_iolib/stm32f4x_iolib_168MHz_8MHz.a(stm32f4xx_rcc.o)
RCC_IRQHandler                                    c:/project/stm32fx_iolib/stm32f4x_iolib/stm32f4x_iolib_168MHz_8MHz.a(startup_stm32f4xx.o)
RCC_ITConfig                                      c:/project/stm32fx_iolib/stm32f4x_iolib/stm32f4x_iolib_168MHz_8MHz.a(stm32f4xx_rcc.o)
RCC_LSEConfig                                     c:/project/stm32fx_iolib/stm32f4x_iolib/stm32f4x_iolib_168MHz_8MHz.a(stm32f4xx_rcc.o)
                                                  FLASH_RUN/rtc.o
RCC_LSEModeConfig                                 c:/project/stm32fx_iolib/stm32f4x_iolib/stm32f4x_iolib_168MHz_8MHz.a(stm32f4xx_rcc.o)
RCC_LSICmd                                        c:/project/stm32fx_iolib/stm32f4x_iolib/stm32f4x_iolib_168MHz_8MHz.a(stm32f4xx_rcc.o)
RCC_LTDCCLKDivConfig                              c:/project/stm32fx_iolib/stm32f4x_iolib/stm32f4x_iolib_168MHz_8MHz.a(stm32f4xx_rcc.o)
RCC_MCO1Config                                    c:/project/stm32fx_iolib/stm32f4x_iolib/stm32f4x_iolib_168MHz_8MHz.a(stm32f4xx_rcc.o)
RCC_MCO2Config                                    c:/project/stm32fx_iolib/stm32f4x_iolib/stm32f4x_iolib_168MHz_8MHz.a(stm32f4xx_rcc.o)
RCC_PCLK1Config                                   c:/project/stm32fx_iolib/stm32f4x_iolib/stm32f4x_iolib_168MHz_8MHz.a(stm32f4xx_rcc.o)
RCC_PCLK2Config                                   c:/project/stm32fx_iolib/stm32f4x_iolib/stm32f4x_iolib_168MHz_8MHz.a(stm32f4xx_rcc.o)
RCC_PLLCmd                                        c:/project/stm32fx_iolib/stm32f4x_iolib/stm32f4x_iolib_168MHz_8MHz.a(stm32f4xx_rcc.o)
RCC_PLLConfig                                     c:/project/stm32fx_iolib/stm32f4x_iolib/stm32f4x_iolib_168MHz_8MHz.a(stm32f4xx_rcc.o)
RCC_PLLI2SCmd                                     c:/project/stm32fx_iolib/stm32f4x_iolib/stm32f4x_iolib_168MHz_8MHz.a(stm32f4xx_rcc.o)
                                                  FLASH_RUN/i2s.o
RCC_PLLI2SConfig                                  c:/project/stm32fx_iolib/stm32f4x_iolib/stm32f4x_iolib_168MHz_8MHz.a(stm32f4xx_rcc.o)
                                                  FLASH_RUN/i2s.o
RCC_PLLSAICmd                                     c:/project/stm32fx_iolib/stm32f4x_iolib/stm32f4x_iolib_168MHz_8MHz.a(stm32f4xx_rcc.o)
RCC_PLLSAIConfig                                  c:/project/stm32fx_iolib/stm32f4x_iolib/stm32f4x_iolib_168MHz_8MHz.a(stm32f4xx_rcc.o)
RCC_RTCCLKCmd                                     c:/project/stm32fx_iolib/stm32f4x_iolib/stm32f4x_iolib_168MHz_8MHz.a(stm32f4xx_rcc.o)
                                                  FLASH_RUN/rtc.o
RCC_RTCCLKConfig                                  c:/project/stm32fx_iolib/stm32f4x_iolib/stm32f4x_iolib_168MHz_8MHz.a(stm32f4xx_rcc.o)
                                                  FLASH_RUN/rtc.o
RCC_SAIBlockACLKConfig                            c:/project/stm32fx_iolib/stm32f4x_iolib/stm32f4x_iolib_168MHz_8MHz.a(stm32f4xx_rcc.o)
RCC_SAIBlockBCLKConfig                            c:/project/stm32fx_iolib/stm32f4x_iolib/stm32f4x_iolib_168MHz_8MHz.a(stm32f4xx_rcc.o)
RCC_SAIPLLI2SClkDivConfig                         c:/project/stm32fx_iolib/stm32f4x_iolib/stm32f4x_iolib_168MHz_8MHz.a(stm32f4xx_rcc.o)
RCC_SAIPLLSAIClkDivConfig                         c:/project/stm32fx_iolib/stm32f4x_iolib/stm32f4x_iolib_168MHz_8MHz.a(stm32f4xx_rcc.o)
RCC_SYSCLKConfig                                  c:/project/stm32fx_iolib/stm32f4x_iolib/stm32f4x_iolib_168MHz_8MHz.a(stm32f4xx_rcc.o)
RCC_TIMCLKPresConfig                              c:/project/stm32fx_iolib/stm32f4x_iolib/stm32f4x_iolib_168MHz_8MHz.a(stm32f4xx_rcc.o)
RCC_WaitForHSEStartUp                             c:/project/stm32fx_iolib/stm32f4x_iolib/stm32f4x_iolib_168MHz_8MHz.a(stm32f4xx_rcc.o)
RNDVAL                                            source/audio_codec/mp3/mp3.a(asmpoly_thumb2.o)
RTC_AlarmCmd                                      c:/project/stm32fx_iolib/stm32f4x_iolib/stm32f4x_iolib_168MHz_8MHz.a(stm32f4xx_rtc.o)
                                                  FLASH_RUN/rtc.o
RTC_AlarmStructInit                               c:/project/stm32fx_iolib/stm32f4x_iolib/stm32f4x_iolib_168MHz_8MHz.a(stm32f4xx_rtc.o)
RTC_AlarmSubSecondConfig                          c:/project/stm32fx_iolib/stm32f4x_iolib/stm32f4x_iolib_168MHz_8MHz.a(stm32f4xx_rtc.o)
RTC_Alarm_IRQHandler                              FLASH_RUN/rtc.o
RTC_BypassShadowCmd                               c:/project/stm32fx_iolib/stm32f4x_iolib/stm32f4x_iolib_168MHz_8MHz.a(stm32f4xx_rtc.o)
RTC_CalibOutputCmd                                c:/project/stm32fx_iolib/stm32f4x_iolib/stm32f4x_iolib_168MHz_8MHz.a(stm32f4xx_rtc.o)
RTC_CalibOutputConfig                             c:/project/stm32fx_iolib/stm32f4x_iolib/stm32f4x_iolib_168MHz_8MHz.a(stm32f4xx_rtc.o)
RTC_ClearFlag                                     c:/project/stm32fx_iolib/stm32f4x_iolib/stm32f4x_iolib_168MHz_8MHz.a(stm32f4xx_rtc.o)
                                                  FLASH_RUN/rtc.o
RTC_ClearITPendingBit                             c:/project/stm32fx_iolib/stm32f4x_iolib/stm32f4x_iolib_168MHz_8MHz.a(stm32f4xx_rtc.o)
                                                  FLASH_RUN/rtc.o
RTC_CoarseCalibCmd                                c:/project/stm32fx_iolib/stm32f4x_iolib/stm32f4x_iolib_168MHz_8MHz.a(stm32f4xx_rtc.o)
RTC_CoarseCalibConfig                             c:/project/stm32fx_iolib/stm32f4x_iolib/stm32f4x_iolib_168MHz_8MHz.a(stm32f4xx_rtc.o)
RTC_DateStructInit                                c:/project/stm32fx_iolib/stm32f4x_iolib/stm32f4x_iolib_168MHz_8MHz.a(stm32f4xx_rtc.o)
RTC_DayLightSavingConfig                          c:/project/stm32fx_iolib/stm32f4x_iolib/stm32f4x_iolib_168MHz_8MHz.a(stm32f4xx_rtc.o)
RTC_DeInit                                        c:/project/stm32fx_iolib/stm32f4x_iolib/stm32f4x_iolib_168MHz_8MHz.a(stm32f4xx_rtc.o)
RTC_EnterInitMode                                 c:/project/stm32fx_iolib/stm32f4x_iolib/stm32f4x_iolib_168MHz_8MHz.a(stm32f4xx_rtc.o)
RTC_ExitInitMode                                  c:/project/stm32fx_iolib/stm32f4x_iolib/stm32f4x_iolib_168MHz_8MHz.a(stm32f4xx_rtc.o)
RTC_GetAlarm                                      c:/project/stm32fx_iolib/stm32f4x_iolib/stm32f4x_iolib_168MHz_8MHz.a(stm32f4xx_rtc.o)
RTC_GetAlarmSubSecond                             c:/project/stm32fx_iolib/stm32f4x_iolib/stm32f4x_iolib_168MHz_8MHz.a(stm32f4xx_rtc.o)
RTC_GetDate                                       c:/project/stm32fx_iolib/stm32f4x_iolib/stm32f4x_iolib_168MHz_8MHz.a(stm32f4xx_rtc.o)
                                                  FLASH_RUN/diskio.o
                                                  FLASH_RUN/rtc.o
RTC_GetFlagStatus                                 c:/project/stm32fx_iolib/stm32f4x_iolib/stm32f4x_iolib_168MHz_8MHz.a(stm32f4xx_rtc.o)
                                                  FLASH_RUN/rtc.o
RTC_GetITStatus                                   c:/project/stm32fx_iolib/stm32f4x_iolib/stm32f4x_iolib_168MHz_8MHz.a(stm32f4xx_rtc.o)
RTC_GetStoreOperation                             c:/project/stm32fx_iolib/stm32f4x_iolib/stm32f4x_iolib_168MHz_8MHz.a(stm32f4xx_rtc.o)
RTC_GetSubSecond                                  c:/project/stm32fx_iolib/stm32f4x_iolib/stm32f4x_iolib_168MHz_8MHz.a(stm32f4xx_rtc.o)
RTC_GetTime                                       c:/project/stm32fx_iolib/stm32f4x_iolib/stm32f4x_iolib_168MHz_8MHz.a(stm32f4xx_rtc.o)
                                                  FLASH_RUN/diskio.o
                                                  FLASH_RUN/rtc.o
RTC_GetTimeStamp                                  c:/project/stm32fx_iolib/stm32f4x_iolib/stm32f4x_iolib_168MHz_8MHz.a(stm32f4xx_rtc.o)
RTC_GetTimeStampSubSecond                         c:/project/stm32fx_iolib/stm32f4x_iolib/stm32f4x_iolib_168MHz_8MHz.a(stm32f4xx_rtc.o)
RTC_GetWakeUpCounter                              c:/project/stm32fx_iolib/stm32f4x_iolib/stm32f4x_iolib_168MHz_8MHz.a(stm32f4xx_rtc.o)
RTC_Get_Date                                      FLASH_RUN/rtc.o
                                                  FLASH_RUN/main.o
RTC_Get_Time                                      FLASH_RUN/rtc.o
                                                  FLASH_RUN/ir_remocon.o
                                                  FLASH_RUN/main.o
RTC_Get_Week                                      FLASH_RUN/rtc.o
RTC_ITConfig                                      c:/project/stm32fx_iolib/stm32f4x_iolib/stm32f4x_iolib_168MHz_8MHz.a(stm32f4xx_rtc.o)
                                                  FLASH_RUN/rtc.o
RTC_Init                                          c:/project/stm32fx_iolib/stm32f4x_iolib/stm32f4x_iolib_168MHz_8MHz.a(stm32f4xx_rtc.o)
                                                  FLASH_RUN/rtc.o
RTC_OutputConfig                                  c:/project/stm32fx_iolib/stm32f4x_iolib/stm32f4x_iolib_168MHz_8MHz.a(stm32f4xx_rtc.o)
RTC_OutputTypeConfig                              c:/project/stm32fx_iolib/stm32f4x_iolib/stm32f4x_iolib_168MHz_8MHz.a(stm32f4xx_rtc.o)
RTC_ReadBackupRegister                            c:/project/stm32fx_iolib/stm32f4x_iolib/stm32f4x_iolib_168MHz_8MHz.a(stm32f4xx_rtc.o)
                                                  FLASH_RUN/rtc.o
RTC_RefClockCmd                                   c:/project/stm32fx_iolib/stm32f4x_iolib/stm32f4x_iolib_168MHz_8MHz.a(stm32f4xx_rtc.o)
RTC_SetAlarm                                      c:/project/stm32fx_iolib/stm32f4x_iolib/stm32f4x_iolib_168MHz_8MHz.a(stm32f4xx_rtc.o)
                                                  FLASH_RUN/rtc.o
RTC_SetDate                                       c:/project/stm32fx_iolib/stm32f4x_iolib/stm32f4x_iolib_168MHz_8MHz.a(stm32f4xx_rtc.o)
                                                  FLASH_RUN/rtc.o
                                                  FLASH_RUN/main.o
RTC_SetTime                                       c:/project/stm32fx_iolib/stm32f4x_iolib/stm32f4x_iolib_168MHz_8MHz.a(stm32f4xx_rtc.o)
                                                  FLASH_RUN/rtc.o
                                                  FLASH_RUN/ir_remocon.o
RTC_SetWakeUpCounter                              c:/project/stm32fx_iolib/stm32f4x_iolib/stm32f4x_iolib_168MHz_8MHz.a(stm32f4xx_rtc.o)
                                                  FLASH_RUN/rtc.o
RTC_Set_AlarmA                                    FLASH_RUN/rtc.o
RTC_Set_Date                                      FLASH_RUN/rtc.o
RTC_Set_Time                                      FLASH_RUN/rtc.o
RTC_Set_WakeUp                                    FLASH_RUN/rtc.o
RTC_SmoothCalibConfig                             c:/project/stm32fx_iolib/stm32f4x_iolib/stm32f4x_iolib_168MHz_8MHz.a(stm32f4xx_rtc.o)
RTC_StructInit                                    c:/project/stm32fx_iolib/stm32f4x_iolib/stm32f4x_iolib_168MHz_8MHz.a(stm32f4xx_rtc.o)
RTC_SynchroShiftConfig                            c:/project/stm32fx_iolib/stm32f4x_iolib/stm32f4x_iolib_168MHz_8MHz.a(stm32f4xx_rtc.o)
RTC_TamperCmd                                     c:/project/stm32fx_iolib/stm32f4x_iolib/stm32f4x_iolib_168MHz_8MHz.a(stm32f4xx_rtc.o)
RTC_TamperFilterConfig                            c:/project/stm32fx_iolib/stm32f4x_iolib/stm32f4x_iolib_168MHz_8MHz.a(stm32f4xx_rtc.o)
RTC_TamperPinSelection                            c:/project/stm32fx_iolib/stm32f4x_iolib/stm32f4x_iolib_168MHz_8MHz.a(stm32f4xx_rtc.o)
RTC_TamperPinsPrechargeDuration                   c:/project/stm32fx_iolib/stm32f4x_iolib/stm32f4x_iolib_168MHz_8MHz.a(stm32f4xx_rtc.o)
RTC_TamperPullUpCmd                               c:/project/stm32fx_iolib/stm32f4x_iolib/stm32f4x_iolib_168MHz_8MHz.a(stm32f4xx_rtc.o)
RTC_TamperSamplingFreqConfig                      c:/project/stm32fx_iolib/stm32f4x_iolib/stm32f4x_iolib_168MHz_8MHz.a(stm32f4xx_rtc.o)
RTC_TamperTriggerConfig                           c:/project/stm32fx_iolib/stm32f4x_iolib/stm32f4x_iolib_168MHz_8MHz.a(stm32f4xx_rtc.o)
RTC_TimeStampCmd                                  c:/project/stm32fx_iolib/stm32f4x_iolib/stm32f4x_iolib_168MHz_8MHz.a(stm32f4xx_rtc.o)
RTC_TimeStampOnTamperDetectionCmd                 c:/project/stm32fx_iolib/stm32f4x_iolib/stm32f4x_iolib_168MHz_8MHz.a(stm32f4xx_rtc.o)
RTC_TimeStampPinSelection                         c:/project/stm32fx_iolib/stm32f4x_iolib/stm32f4x_iolib_168MHz_8MHz.a(stm32f4xx_rtc.o)
RTC_TimeStructInit                                c:/project/stm32fx_iolib/stm32f4x_iolib/stm32f4x_iolib_168MHz_8MHz.a(stm32f4xx_rtc.o)
RTC_WKUP_IRQHandler                               FLASH_RUN/rtc.o
RTC_WaitForSynchro                                c:/project/stm32fx_iolib/stm32f4x_iolib/stm32f4x_iolib_168MHz_8MHz.a(stm32f4xx_rtc.o)
RTC_WakeUpClockConfig                             c:/project/stm32fx_iolib/stm32f4x_iolib/stm32f4x_iolib_168MHz_8MHz.a(stm32f4xx_rtc.o)
                                                  FLASH_RUN/rtc.o
RTC_WakeUpCmd                                     c:/project/stm32fx_iolib/stm32f4x_iolib/stm32f4x_iolib_168MHz_8MHz.a(stm32f4xx_rtc.o)
                                                  FLASH_RUN/rtc.o
RTC_WriteBackupRegister                           c:/project/stm32fx_iolib/stm32f4x_iolib/stm32f4x_iolib_168MHz_8MHz.a(stm32f4xx_rtc.o)
                                                  FLASH_RUN/rtc.o
RTC_WriteProtectionCmd                            c:/project/stm32fx_iolib/stm32f4x_iolib/stm32f4x_iolib_168MHz_8MHz.a(stm32f4xx_rtc.o)
Reset_Handler                                     c:/project/stm32fx_iolib/stm32f4x_iolib/stm32f4x_iolib_168MHz_8MHz.a(startup_stm32f4xx.o)
SAI1_IRQHandler                                   c:/project/stm32fx_iolib/stm32f4x_iolib/stm32f4x_iolib_168MHz_8MHz.a(startup_stm32f4xx.o)
SAI2_IRQHandler                                   c:/project/stm32fx_iolib/stm32f4x_iolib/stm32f4x_iolib_168MHz_8MHz.a(startup_stm32f4xx.o)
SDCardInfo                                        FLASH_RUN/sdio_sdcard.o
                                                  FLASH_RUN/diskio.o
SDEnWideBus                                       FLASH_RUN/sdio_sdcard.o
SDIO_CEATAITCmd                                   c:/project/stm32fx_iolib/stm32f4x_iolib/stm32f4x_iolib_168MHz_8MHz.a(stm32f4xx_sdio.o)
SDIO_ClearFlag                                    c:/project/stm32fx_iolib/stm32f4x_iolib/stm32f4x_iolib_168MHz_8MHz.a(stm32f4xx_sdio.o)
                                                  FLASH_RUN/sdio_sdcard.o
SDIO_ClearITPendingBit                            c:/project/stm32fx_iolib/stm32f4x_iolib/stm32f4x_iolib_168MHz_8MHz.a(stm32f4xx_sdio.o)
SDIO_ClockCmd                                     c:/project/stm32fx_iolib/stm32f4x_iolib/stm32f4x_iolib_168MHz_8MHz.a(stm32f4xx_sdio.o)
SDIO_Clock_Set                                    FLASH_RUN/sdio_sdcard.o
SDIO_CmdInitStructure                             FLASH_RUN/sdio_sdcard.o
SDIO_CmdStructInit                                c:/project/stm32fx_iolib/stm32f4x_iolib/stm32f4x_iolib_168MHz_8MHz.a(stm32f4xx_sdio.o)
SDIO_CommandCompletionCmd                         c:/project/stm32fx_iolib/stm32f4x_iolib/stm32f4x_iolib_168MHz_8MHz.a(stm32f4xx_sdio.o)
SDIO_DATA_BUFFER                                  FLASH_RUN/sdio_sdcard.o
SDIO_DMACmd                                       c:/project/stm32fx_iolib/stm32f4x_iolib/stm32f4x_iolib_168MHz_8MHz.a(stm32f4xx_sdio.o)
SDIO_DataConfig                                   c:/project/stm32fx_iolib/stm32f4x_iolib/stm32f4x_iolib_168MHz_8MHz.a(stm32f4xx_sdio.o)
                                                  FLASH_RUN/sdio_sdcard.o
SDIO_DataInitStructure                            FLASH_RUN/sdio_sdcard.o
SDIO_DataStructInit                               c:/project/stm32fx_iolib/stm32f4x_iolib/stm32f4x_iolib_168MHz_8MHz.a(stm32f4xx_sdio.o)
SDIO_DeInit                                       c:/project/stm32fx_iolib/stm32f4x_iolib/stm32f4x_iolib_168MHz_8MHz.a(stm32f4xx_sdio.o)
SDIO_GetCommandResponse                           c:/project/stm32fx_iolib/stm32f4x_iolib/stm32f4x_iolib_168MHz_8MHz.a(stm32f4xx_sdio.o)
SDIO_GetDataCounter                               c:/project/stm32fx_iolib/stm32f4x_iolib/stm32f4x_iolib_168MHz_8MHz.a(stm32f4xx_sdio.o)
SDIO_GetFIFOCount                                 c:/project/stm32fx_iolib/stm32f4x_iolib/stm32f4x_iolib_168MHz_8MHz.a(stm32f4xx_sdio.o)
SDIO_GetFlagStatus                                c:/project/stm32fx_iolib/stm32f4x_iolib/stm32f4x_iolib_168MHz_8MHz.a(stm32f4xx_sdio.o)
                                                  FLASH_RUN/sdio_sdcard.o
SDIO_GetITStatus                                  c:/project/stm32fx_iolib/stm32f4x_iolib/stm32f4x_iolib_168MHz_8MHz.a(stm32f4xx_sdio.o)
SDIO_GetPowerState                                c:/project/stm32fx_iolib/stm32f4x_iolib/stm32f4x_iolib_168MHz_8MHz.a(stm32f4xx_sdio.o)
                                                  FLASH_RUN/sdio_sdcard.o
SDIO_GetResponse                                  c:/project/stm32fx_iolib/stm32f4x_iolib/stm32f4x_iolib_168MHz_8MHz.a(stm32f4xx_sdio.o)
SDIO_IRQHandler                                   FLASH_RUN/sdio_sdcard.o
SDIO_ITConfig                                     c:/project/stm32fx_iolib/stm32f4x_iolib/stm32f4x_iolib_168MHz_8MHz.a(stm32f4xx_sdio.o)
SDIO_Init                                         c:/project/stm32fx_iolib/stm32f4x_iolib/stm32f4x_iolib_168MHz_8MHz.a(stm32f4xx_sdio.o)
                                                  FLASH_RUN/sdio_sdcard.o
SDIO_InitStructure                                FLASH_RUN/sdio_sdcard.o
SDIO_ReadData                                     c:/project/stm32fx_iolib/stm32f4x_iolib/stm32f4x_iolib_168MHz_8MHz.a(stm32f4xx_sdio.o)
SDIO_Register_Deinit                              FLASH_RUN/sdio_sdcard.o
SDIO_SendCEATACmd                                 c:/project/stm32fx_iolib/stm32f4x_iolib/stm32f4x_iolib_168MHz_8MHz.a(stm32f4xx_sdio.o)
SDIO_SendCommand                                  c:/project/stm32fx_iolib/stm32f4x_iolib/stm32f4x_iolib_168MHz_8MHz.a(stm32f4xx_sdio.o)
                                                  FLASH_RUN/sdio_sdcard.o
SDIO_SendSDIOSuspendCmd                           c:/project/stm32fx_iolib/stm32f4x_iolib/stm32f4x_iolib_168MHz_8MHz.a(stm32f4xx_sdio.o)
SDIO_SetPowerState                                c:/project/stm32fx_iolib/stm32f4x_iolib/stm32f4x_iolib_168MHz_8MHz.a(stm32f4xx_sdio.o)
                                                  FLASH_RUN/sdio_sdcard.o
SDIO_SetSDIOOperation                             c:/project/stm32fx_iolib/stm32f4x_iolib/stm32f4x_iolib_168MHz_8MHz.a(stm32f4xx_sdio.o)
SDIO_SetSDIOReadWaitMode                          c:/project/stm32fx_iolib/stm32f4x_iolib/stm32f4x_iolib_168MHz_8MHz.a(stm32f4xx_sdio.o)
SDIO_StartSDIOReadWait                            c:/project/stm32fx_iolib/stm32f4x_iolib/stm32f4x_iolib_168MHz_8MHz.a(stm32f4xx_sdio.o)
SDIO_StopSDIOReadWait                             c:/project/stm32fx_iolib/stm32f4x_iolib/stm32f4x_iolib_168MHz_8MHz.a(stm32f4xx_sdio.o)
SDIO_StructInit                                   c:/project/stm32fx_iolib/stm32f4x_iolib/stm32f4x_iolib_168MHz_8MHz.a(stm32f4xx_sdio.o)
SDIO_WriteData                                    c:/project/stm32fx_iolib/stm32f4x_iolib/stm32f4x_iolib_168MHz_8MHz.a(stm32f4xx_sdio.o)
SD_DMA_Config                                     FLASH_RUN/sdio_sdcard.o
SD_EnableWideBusOperation                         FLASH_RUN/sdio_sdcard.o
SD_GetCardInfo                                    FLASH_RUN/sdio_sdcard.o
SD_GetState                                       FLASH_RUN/sdio_sdcard.o
SD_Init                                           FLASH_RUN/sdio_sdcard.o
                                                  FLASH_RUN/audio.o
                                                  FLASH_RUN/diskio.o
SD_InitializeCards                                FLASH_RUN/sdio_sdcard.o
SD_PowerOFF                                       FLASH_RUN/sdio_sdcard.o
SD_PowerON                                        FLASH_RUN/sdio_sdcard.o
SD_ProcessIRQSrc                                  FLASH_RUN/sdio_sdcard.o
SD_ReadBlock                                      FLASH_RUN/sdio_sdcard.o
SD_ReadDisk                                       FLASH_RUN/sdio_sdcard.o
                                                  FLASH_RUN/diskio.o
SD_ReadMultiBlocks                                FLASH_RUN/sdio_sdcard.o
SD_SelectDeselect                                 FLASH_RUN/sdio_sdcard.o
SD_SendStatus                                     FLASH_RUN/sdio_sdcard.o
SD_SetDeviceMode                                  FLASH_RUN/sdio_sdcard.o
SD_WriteBlock                                     FLASH_RUN/sdio_sdcard.o
SD_WriteDisk                                      FLASH_RUN/sdio_sdcard.o
                                                  FLASH_RUN/diskio.o
SD_WriteMultiBlocks                               FLASH_RUN/sdio_sdcard.o
SPDIF_RX_IRQHandler                               c:/project/stm32fx_iolib/stm32f4x_iolib/stm32f4x_iolib_168MHz_8MHz.a(startup_stm32f4xx.o)
SPI1_IRQHandler                                   c:/project/stm32fx_iolib/stm32f4x_iolib/stm32f4x_iolib_168MHz_8MHz.a(startup_stm32f4xx.o)
SPI2_IRQHandler                                   c:/project/stm32fx_iolib/stm32f4x_iolib/stm32f4x_iolib_168MHz_8MHz.a(startup_stm32f4xx.o)
SPI3_IRQHandler                                   c:/project/stm32fx_iolib/stm32f4x_iolib/stm32f4x_iolib_168MHz_8MHz.a(startup_stm32f4xx.o)
SPI4_IRQHandler                                   c:/project/stm32fx_iolib/stm32f4x_iolib/stm32f4x_iolib_168MHz_8MHz.a(startup_stm32f4xx.o)
SPI5_IRQHandler                                   c:/project/stm32fx_iolib/stm32f4x_iolib/stm32f4x_iolib_168MHz_8MHz.a(startup_stm32f4xx.o)
SPI6_IRQHandler                                   c:/project/stm32fx_iolib/stm32f4x_iolib/stm32f4x_iolib_168MHz_8MHz.a(startup_stm32f4xx.o)
SPI_BiDirectionalLineConfig                       c:/project/stm32fx_iolib/stm32f4x_iolib/stm32f4x_iolib_168MHz_8MHz.a(stm32f4xx_spi.o)
SPI_CalculateCRC                                  c:/project/stm32fx_iolib/stm32f4x_iolib/stm32f4x_iolib_168MHz_8MHz.a(stm32f4xx_spi.o)
SPI_Cmd                                           c:/project/stm32fx_iolib/stm32f4x_iolib/stm32f4x_iolib_168MHz_8MHz.a(stm32f4xx_spi.o)
SPI_DataSizeConfig                                c:/project/stm32fx_iolib/stm32f4x_iolib/stm32f4x_iolib_168MHz_8MHz.a(stm32f4xx_spi.o)
SPI_GetCRC                                        c:/project/stm32fx_iolib/stm32f4x_iolib/stm32f4x_iolib_168MHz_8MHz.a(stm32f4xx_spi.o)
SPI_GetCRCPolynomial                              c:/project/stm32fx_iolib/stm32f4x_iolib/stm32f4x_iolib_168MHz_8MHz.a(stm32f4xx_spi.o)
SPI_I2S_ClearFlag                                 c:/project/stm32fx_iolib/stm32f4x_iolib/stm32f4x_iolib_168MHz_8MHz.a(stm32f4xx_spi.o)
SPI_I2S_ClearITPendingBit                         c:/project/stm32fx_iolib/stm32f4x_iolib/stm32f4x_iolib_168MHz_8MHz.a(stm32f4xx_spi.o)
SPI_I2S_DMACmd                                    c:/project/stm32fx_iolib/stm32f4x_iolib/stm32f4x_iolib_168MHz_8MHz.a(stm32f4xx_spi.o)
                                                  FLASH_RUN/i2s.o
SPI_I2S_DeInit                                    c:/project/stm32fx_iolib/stm32f4x_iolib/stm32f4x_iolib_168MHz_8MHz.a(stm32f4xx_spi.o)
SPI_I2S_GetFlagStatus                             c:/project/stm32fx_iolib/stm32f4x_iolib/stm32f4x_iolib_168MHz_8MHz.a(stm32f4xx_spi.o)
SPI_I2S_GetITStatus                               c:/project/stm32fx_iolib/stm32f4x_iolib/stm32f4x_iolib_168MHz_8MHz.a(stm32f4xx_spi.o)
SPI_I2S_ITConfig                                  c:/project/stm32fx_iolib/stm32f4x_iolib/stm32f4x_iolib_168MHz_8MHz.a(stm32f4xx_spi.o)
SPI_I2S_ReceiveData                               c:/project/stm32fx_iolib/stm32f4x_iolib/stm32f4x_iolib_168MHz_8MHz.a(stm32f4xx_spi.o)
SPI_I2S_SendData                                  c:/project/stm32fx_iolib/stm32f4x_iolib/stm32f4x_iolib_168MHz_8MHz.a(stm32f4xx_spi.o)
SPI_Init                                          c:/project/stm32fx_iolib/stm32f4x_iolib/stm32f4x_iolib_168MHz_8MHz.a(stm32f4xx_spi.o)
SPI_NSSInternalSoftwareConfig                     c:/project/stm32fx_iolib/stm32f4x_iolib/stm32f4x_iolib_168MHz_8MHz.a(stm32f4xx_spi.o)
SPI_SSOutputCmd                                   c:/project/stm32fx_iolib/stm32f4x_iolib/stm32f4x_iolib_168MHz_8MHz.a(stm32f4xx_spi.o)
SPI_StructInit                                    c:/project/stm32fx_iolib/stm32f4x_iolib/stm32f4x_iolib_168MHz_8MHz.a(stm32f4xx_spi.o)
SPI_TIModeCmd                                     c:/project/stm32fx_iolib/stm32f4x_iolib/stm32f4x_iolib_168MHz_8MHz.a(stm32f4xx_spi.o)
SPI_TransmitCRC                                   c:/project/stm32fx_iolib/stm32f4x_iolib/stm32f4x_iolib_168MHz_8MHz.a(stm32f4xx_spi.o)
SVC_Handler                                       c:/project/stm32fx_iolib/stm32f4x_iolib/stm32f4x_iolib_168MHz_8MHz.a(startup_stm32f4xx.o)
SysTick_CLKSourceConfig                           c:/project/stm32fx_iolib/stm32f4x_iolib/stm32f4x_iolib_168MHz_8MHz.a(misc.o)
SysTick_Handler                                   FLASH_RUN/main.o
SystemCoreClock                                   c:/project/stm32fx_iolib/stm32f4x_iolib/stm32f4x_iolib_168MHz_8MHz.a(system_stm32f4xx.o)
                                                  FLASH_RUN/main.o
SystemCoreClockUpdate                             c:/project/stm32fx_iolib/stm32f4x_iolib/stm32f4x_iolib_168MHz_8MHz.a(system_stm32f4xx.o)
SystemInit                                        c:/project/stm32fx_iolib/stm32f4x_iolib/stm32f4x_iolib_168MHz_8MHz.a(system_stm32f4xx.o)
                                                  c:/project/stm32fx_iolib/stm32f4x_iolib/stm32f4x_iolib_168MHz_8MHz.a(startup_stm32f4xx.o)
TAMP_STAMP_IRQHandler                             c:/project/stm32fx_iolib/stm32f4x_iolib/stm32f4x_iolib_168MHz_8MHz.a(startup_stm32f4xx.o)
TIM1_BRK_TIM9_IRQHandler                          c:/project/stm32fx_iolib/stm32f4x_iolib/stm32f4x_iolib_168MHz_8MHz.a(startup_stm32f4xx.o)
TIM1_CC_IRQHandler                                FLASH_RUN/ir_remocon.o
TIM1_TRG_COM_TIM11_IRQHandler                     c:/project/stm32fx_iolib/stm32f4x_iolib/stm32f4x_iolib_168MHz_8MHz.a(startup_stm32f4xx.o)
TIM1_UP_TIM10_IRQHandler                          FLASH_RUN/ir_remocon.o
TIM2_CH1_Cap_Init                                 FLASH_RUN/touch_pad.o
TIM2_IRQHandler                                   c:/project/stm32fx_iolib/stm32f4x_iolib/stm32f4x_iolib_168MHz_8MHz.a(startup_stm32f4xx.o)
TIM3_IRQHandler                                   c:/project/stm32fx_iolib/stm32f4x_iolib/stm32f4x_iolib_168MHz_8MHz.a(startup_stm32f4xx.o)
TIM4_IRQHandler                                   c:/project/stm32fx_iolib/stm32f4x_iolib/stm32f4x_iolib_168MHz_8MHz.a(startup_stm32f4xx.o)
TIM5_IRQHandler                                   c:/project/stm32fx_iolib/stm32f4x_iolib/stm32f4x_iolib_168MHz_8MHz.a(startup_stm32f4xx.o)
TIM6_DAC_IRQHandler                               c:/project/stm32fx_iolib/stm32f4x_iolib/stm32f4x_iolib_168MHz_8MHz.a(startup_stm32f4xx.o)
TIM7_IRQHandler                                   c:/project/stm32fx_iolib/stm32f4x_iolib/stm32f4x_iolib_168MHz_8MHz.a(startup_stm32f4xx.o)
TIM8_BRK_TIM12_IRQHandler                         c:/project/stm32fx_iolib/stm32f4x_iolib/stm32f4x_iolib_168MHz_8MHz.a(startup_stm32f4xx.o)
TIM8_CC_IRQHandler                                c:/project/stm32fx_iolib/stm32f4x_iolib/stm32f4x_iolib_168MHz_8MHz.a(startup_stm32f4xx.o)
TIM8_TRG_COM_TIM14_IRQHandler                     c:/project/stm32fx_iolib/stm32f4x_iolib/stm32f4x_iolib_168MHz_8MHz.a(startup_stm32f4xx.o)
TIM8_UP_TIM13_IRQHandler                          c:/project/stm32fx_iolib/stm32f4x_iolib/stm32f4x_iolib_168MHz_8MHz.a(startup_stm32f4xx.o)
TIM_ARRPreloadConfig                              c:/project/stm32fx_iolib/stm32f4x_iolib/stm32f4x_iolib_168MHz_8MHz.a(stm32f4xx_tim.o)
TIM_BDTRConfig                                    c:/project/stm32fx_iolib/stm32f4x_iolib/stm32f4x_iolib_168MHz_8MHz.a(stm32f4xx_tim.o)
TIM_BDTRStructInit                                c:/project/stm32fx_iolib/stm32f4x_iolib/stm32f4x_iolib_168MHz_8MHz.a(stm32f4xx_tim.o)
TIM_CCPreloadControl                              c:/project/stm32fx_iolib/stm32f4x_iolib/stm32f4x_iolib_168MHz_8MHz.a(stm32f4xx_tim.o)
TIM_CCxCmd                                        c:/project/stm32fx_iolib/stm32f4x_iolib/stm32f4x_iolib_168MHz_8MHz.a(stm32f4xx_tim.o)
TIM_CCxNCmd                                       c:/project/stm32fx_iolib/stm32f4x_iolib/stm32f4x_iolib_168MHz_8MHz.a(stm32f4xx_tim.o)
TIM_ClearFlag                                     c:/project/stm32fx_iolib/stm32f4x_iolib/stm32f4x_iolib_168MHz_8MHz.a(stm32f4xx_tim.o)
TIM_ClearITPendingBit                             c:/project/stm32fx_iolib/stm32f4x_iolib/stm32f4x_iolib_168MHz_8MHz.a(stm32f4xx_tim.o)
                                                  FLASH_RUN/ir_remocon.o
                                                  FLASH_RUN/touch_pad.o
TIM_ClearOC1Ref                                   c:/project/stm32fx_iolib/stm32f4x_iolib/stm32f4x_iolib_168MHz_8MHz.a(stm32f4xx_tim.o)
TIM_ClearOC2Ref                                   c:/project/stm32fx_iolib/stm32f4x_iolib/stm32f4x_iolib_168MHz_8MHz.a(stm32f4xx_tim.o)
TIM_ClearOC3Ref                                   c:/project/stm32fx_iolib/stm32f4x_iolib/stm32f4x_iolib_168MHz_8MHz.a(stm32f4xx_tim.o)
TIM_ClearOC4Ref                                   c:/project/stm32fx_iolib/stm32f4x_iolib/stm32f4x_iolib_168MHz_8MHz.a(stm32f4xx_tim.o)
TIM_Cmd                                           c:/project/stm32fx_iolib/stm32f4x_iolib/stm32f4x_iolib_168MHz_8MHz.a(stm32f4xx_tim.o)
                                                  FLASH_RUN/ir_remocon.o
                                                  FLASH_RUN/touch_pad.o
TIM_CounterModeConfig                             c:/project/stm32fx_iolib/stm32f4x_iolib/stm32f4x_iolib_168MHz_8MHz.a(stm32f4xx_tim.o)
TIM_CtrlPWMOutputs                                c:/project/stm32fx_iolib/stm32f4x_iolib/stm32f4x_iolib_168MHz_8MHz.a(stm32f4xx_tim.o)
TIM_DMACmd                                        c:/project/stm32fx_iolib/stm32f4x_iolib/stm32f4x_iolib_168MHz_8MHz.a(stm32f4xx_tim.o)
TIM_DMAConfig                                     c:/project/stm32fx_iolib/stm32f4x_iolib/stm32f4x_iolib_168MHz_8MHz.a(stm32f4xx_tim.o)
TIM_DeInit                                        c:/project/stm32fx_iolib/stm32f4x_iolib/stm32f4x_iolib_168MHz_8MHz.a(stm32f4xx_tim.o)
TIM_ETRClockMode1Config                           c:/project/stm32fx_iolib/stm32f4x_iolib/stm32f4x_iolib_168MHz_8MHz.a(stm32f4xx_tim.o)
TIM_ETRClockMode2Config                           c:/project/stm32fx_iolib/stm32f4x_iolib/stm32f4x_iolib_168MHz_8MHz.a(stm32f4xx_tim.o)
TIM_ETRConfig                                     c:/project/stm32fx_iolib/stm32f4x_iolib/stm32f4x_iolib_168MHz_8MHz.a(stm32f4xx_tim.o)
TIM_EncoderInterfaceConfig                        c:/project/stm32fx_iolib/stm32f4x_iolib/stm32f4x_iolib_168MHz_8MHz.a(stm32f4xx_tim.o)
TIM_ForcedOC1Config                               c:/project/stm32fx_iolib/stm32f4x_iolib/stm32f4x_iolib_168MHz_8MHz.a(stm32f4xx_tim.o)
TIM_ForcedOC2Config                               c:/project/stm32fx_iolib/stm32f4x_iolib/stm32f4x_iolib_168MHz_8MHz.a(stm32f4xx_tim.o)
TIM_ForcedOC3Config                               c:/project/stm32fx_iolib/stm32f4x_iolib/stm32f4x_iolib_168MHz_8MHz.a(stm32f4xx_tim.o)
TIM_ForcedOC4Config                               c:/project/stm32fx_iolib/stm32f4x_iolib/stm32f4x_iolib_168MHz_8MHz.a(stm32f4xx_tim.o)
TIM_GenerateEvent                                 c:/project/stm32fx_iolib/stm32f4x_iolib/stm32f4x_iolib_168MHz_8MHz.a(stm32f4xx_tim.o)
TIM_GetCapture1                                   c:/project/stm32fx_iolib/stm32f4x_iolib/stm32f4x_iolib_168MHz_8MHz.a(stm32f4xx_tim.o)
                                                  FLASH_RUN/ir_remocon.o
                                                  FLASH_RUN/touch_pad.o
TIM_GetCapture2                                   c:/project/stm32fx_iolib/stm32f4x_iolib/stm32f4x_iolib_168MHz_8MHz.a(stm32f4xx_tim.o)
TIM_GetCapture3                                   c:/project/stm32fx_iolib/stm32f4x_iolib/stm32f4x_iolib_168MHz_8MHz.a(stm32f4xx_tim.o)
TIM_GetCapture4                                   c:/project/stm32fx_iolib/stm32f4x_iolib/stm32f4x_iolib_168MHz_8MHz.a(stm32f4xx_tim.o)
TIM_GetCounter                                    c:/project/stm32fx_iolib/stm32f4x_iolib/stm32f4x_iolib_168MHz_8MHz.a(stm32f4xx_tim.o)
                                                  FLASH_RUN/touch_pad.o
TIM_GetFlagStatus                                 c:/project/stm32fx_iolib/stm32f4x_iolib/stm32f4x_iolib_168MHz_8MHz.a(stm32f4xx_tim.o)
                                                  FLASH_RUN/touch_pad.o
TIM_GetITStatus                                   c:/project/stm32fx_iolib/stm32f4x_iolib/stm32f4x_iolib_168MHz_8MHz.a(stm32f4xx_tim.o)
                                                  FLASH_RUN/ir_remocon.o
TIM_GetPrescaler                                  c:/project/stm32fx_iolib/stm32f4x_iolib/stm32f4x_iolib_168MHz_8MHz.a(stm32f4xx_tim.o)
TIM_ICInit                                        c:/project/stm32fx_iolib/stm32f4x_iolib/stm32f4x_iolib_168MHz_8MHz.a(stm32f4xx_tim.o)
                                                  FLASH_RUN/ir_remocon.o
                                                  FLASH_RUN/touch_pad.o
TIM_ICStructInit                                  c:/project/stm32fx_iolib/stm32f4x_iolib/stm32f4x_iolib_168MHz_8MHz.a(stm32f4xx_tim.o)
TIM_ITConfig                                      c:/project/stm32fx_iolib/stm32f4x_iolib/stm32f4x_iolib_168MHz_8MHz.a(stm32f4xx_tim.o)
                                                  FLASH_RUN/ir_remocon.o
TIM_ITRxExternalClockConfig                       c:/project/stm32fx_iolib/stm32f4x_iolib/stm32f4x_iolib_168MHz_8MHz.a(stm32f4xx_tim.o)
TIM_InternalClockConfig                           c:/project/stm32fx_iolib/stm32f4x_iolib/stm32f4x_iolib_168MHz_8MHz.a(stm32f4xx_tim.o)
TIM_OC1FastConfig                                 c:/project/stm32fx_iolib/stm32f4x_iolib/stm32f4x_iolib_168MHz_8MHz.a(stm32f4xx_tim.o)
TIM_OC1Init                                       c:/project/stm32fx_iolib/stm32f4x_iolib/stm32f4x_iolib_168MHz_8MHz.a(stm32f4xx_tim.o)
TIM_OC1NPolarityConfig                            c:/project/stm32fx_iolib/stm32f4x_iolib/stm32f4x_iolib_168MHz_8MHz.a(stm32f4xx_tim.o)
TIM_OC1PolarityConfig                             c:/project/stm32fx_iolib/stm32f4x_iolib/stm32f4x_iolib_168MHz_8MHz.a(stm32f4xx_tim.o)
                                                  FLASH_RUN/ir_remocon.o
TIM_OC1PreloadConfig                              c:/project/stm32fx_iolib/stm32f4x_iolib/stm32f4x_iolib_168MHz_8MHz.a(stm32f4xx_tim.o)
TIM_OC2FastConfig                                 c:/project/stm32fx_iolib/stm32f4x_iolib/stm32f4x_iolib_168MHz_8MHz.a(stm32f4xx_tim.o)
TIM_OC2Init                                       c:/project/stm32fx_iolib/stm32f4x_iolib/stm32f4x_iolib_168MHz_8MHz.a(stm32f4xx_tim.o)
TIM_OC2NPolarityConfig                            c:/project/stm32fx_iolib/stm32f4x_iolib/stm32f4x_iolib_168MHz_8MHz.a(stm32f4xx_tim.o)
TIM_OC2PolarityConfig                             c:/project/stm32fx_iolib/stm32f4x_iolib/stm32f4x_iolib_168MHz_8MHz.a(stm32f4xx_tim.o)
TIM_OC2PreloadConfig                              c:/project/stm32fx_iolib/stm32f4x_iolib/stm32f4x_iolib_168MHz_8MHz.a(stm32f4xx_tim.o)
TIM_OC3FastConfig                                 c:/project/stm32fx_iolib/stm32f4x_iolib/stm32f4x_iolib_168MHz_8MHz.a(stm32f4xx_tim.o)
TIM_OC3Init                                       c:/project/stm32fx_iolib/stm32f4x_iolib/stm32f4x_iolib_168MHz_8MHz.a(stm32f4xx_tim.o)
TIM_OC3NPolarityConfig                            c:/project/stm32fx_iolib/stm32f4x_iolib/stm32f4x_iolib_168MHz_8MHz.a(stm32f4xx_tim.o)
TIM_OC3PolarityConfig                             c:/project/stm32fx_iolib/stm32f4x_iolib/stm32f4x_iolib_168MHz_8MHz.a(stm32f4xx_tim.o)
TIM_OC3PreloadConfig                              c:/project/stm32fx_iolib/stm32f4x_iolib/stm32f4x_iolib_168MHz_8MHz.a(stm32f4xx_tim.o)
TIM_OC4FastConfig                                 c:/project/stm32fx_iolib/stm32f4x_iolib/stm32f4x_iolib_168MHz_8MHz.a(stm32f4xx_tim.o)
TIM_OC4Init                                       c:/project/stm32fx_iolib/stm32f4x_iolib/stm32f4x_iolib_168MHz_8MHz.a(stm32f4xx_tim.o)
TIM_OC4PolarityConfig                             c:/project/stm32fx_iolib/stm32f4x_iolib/stm32f4x_iolib_168MHz_8MHz.a(stm32f4xx_tim.o)
TIM_OC4PreloadConfig                              c:/project/stm32fx_iolib/stm32f4x_iolib/stm32f4x_iolib_168MHz_8MHz.a(stm32f4xx_tim.o)
TIM_OCStructInit                                  c:/project/stm32fx_iolib/stm32f4x_iolib/stm32f4x_iolib_168MHz_8MHz.a(stm32f4xx_tim.o)
TIM_PWMIConfig                                    c:/project/stm32fx_iolib/stm32f4x_iolib/stm32f4x_iolib_168MHz_8MHz.a(stm32f4xx_tim.o)
TIM_PrescalerConfig                               c:/project/stm32fx_iolib/stm32f4x_iolib/stm32f4x_iolib_168MHz_8MHz.a(stm32f4xx_tim.o)
TIM_RemapConfig                                   c:/project/stm32fx_iolib/stm32f4x_iolib/stm32f4x_iolib_168MHz_8MHz.a(stm32f4xx_tim.o)
TIM_SelectCCDMA                                   c:/project/stm32fx_iolib/stm32f4x_iolib/stm32f4x_iolib_168MHz_8MHz.a(stm32f4xx_tim.o)
TIM_SelectCOM                                     c:/project/stm32fx_iolib/stm32f4x_iolib/stm32f4x_iolib_168MHz_8MHz.a(stm32f4xx_tim.o)
TIM_SelectHallSensor                              c:/project/stm32fx_iolib/stm32f4x_iolib/stm32f4x_iolib_168MHz_8MHz.a(stm32f4xx_tim.o)
TIM_SelectInputTrigger                            c:/project/stm32fx_iolib/stm32f4x_iolib/stm32f4x_iolib_168MHz_8MHz.a(stm32f4xx_tim.o)
TIM_SelectMasterSlaveMode                         c:/project/stm32fx_iolib/stm32f4x_iolib/stm32f4x_iolib_168MHz_8MHz.a(stm32f4xx_tim.o)
TIM_SelectOCxM                                    c:/project/stm32fx_iolib/stm32f4x_iolib/stm32f4x_iolib_168MHz_8MHz.a(stm32f4xx_tim.o)
TIM_SelectOnePulseMode                            c:/project/stm32fx_iolib/stm32f4x_iolib/stm32f4x_iolib_168MHz_8MHz.a(stm32f4xx_tim.o)
TIM_SelectOutputTrigger                           c:/project/stm32fx_iolib/stm32f4x_iolib/stm32f4x_iolib_168MHz_8MHz.a(stm32f4xx_tim.o)
TIM_SelectSlaveMode                               c:/project/stm32fx_iolib/stm32f4x_iolib/stm32f4x_iolib_168MHz_8MHz.a(stm32f4xx_tim.o)
TIM_SetAutoreload                                 c:/project/stm32fx_iolib/stm32f4x_iolib/stm32f4x_iolib_168MHz_8MHz.a(stm32f4xx_tim.o)
TIM_SetClockDivision                              c:/project/stm32fx_iolib/stm32f4x_iolib/stm32f4x_iolib_168MHz_8MHz.a(stm32f4xx_tim.o)
TIM_SetCompare1                                   c:/project/stm32fx_iolib/stm32f4x_iolib/stm32f4x_iolib_168MHz_8MHz.a(stm32f4xx_tim.o)
TIM_SetCompare2                                   c:/project/stm32fx_iolib/stm32f4x_iolib/stm32f4x_iolib_168MHz_8MHz.a(stm32f4xx_tim.o)
TIM_SetCompare3                                   c:/project/stm32fx_iolib/stm32f4x_iolib/stm32f4x_iolib_168MHz_8MHz.a(stm32f4xx_tim.o)
TIM_SetCompare4                                   c:/project/stm32fx_iolib/stm32f4x_iolib/stm32f4x_iolib_168MHz_8MHz.a(stm32f4xx_tim.o)
TIM_SetCounter                                    c:/project/stm32fx_iolib/stm32f4x_iolib/stm32f4x_iolib_168MHz_8MHz.a(stm32f4xx_tim.o)
                                                  FLASH_RUN/ir_remocon.o
                                                  FLASH_RUN/touch_pad.o
TIM_SetIC1Prescaler                               c:/project/stm32fx_iolib/stm32f4x_iolib/stm32f4x_iolib_168MHz_8MHz.a(stm32f4xx_tim.o)
TIM_SetIC2Prescaler                               c:/project/stm32fx_iolib/stm32f4x_iolib/stm32f4x_iolib_168MHz_8MHz.a(stm32f4xx_tim.o)
TIM_SetIC3Prescaler                               c:/project/stm32fx_iolib/stm32f4x_iolib/stm32f4x_iolib_168MHz_8MHz.a(stm32f4xx_tim.o)
TIM_SetIC4Prescaler                               c:/project/stm32fx_iolib/stm32f4x_iolib/stm32f4x_iolib_168MHz_8MHz.a(stm32f4xx_tim.o)
TIM_TIxExternalClockConfig                        c:/project/stm32fx_iolib/stm32f4x_iolib/stm32f4x_iolib_168MHz_8MHz.a(stm32f4xx_tim.o)
TIM_TimeBaseInit                                  c:/project/stm32fx_iolib/stm32f4x_iolib/stm32f4x_iolib_168MHz_8MHz.a(stm32f4xx_tim.o)
                                                  FLASH_RUN/ir_remocon.o
                                                  FLASH_RUN/touch_pad.o
TIM_TimeBaseStructInit                            c:/project/stm32fx_iolib/stm32f4x_iolib/stm32f4x_iolib_168MHz_8MHz.a(stm32f4xx_tim.o)
TIM_UpdateDisableConfig                           c:/project/stm32fx_iolib/stm32f4x_iolib/stm32f4x_iolib_168MHz_8MHz.a(stm32f4xx_tim.o)
TIM_UpdateRequestConfig                           c:/project/stm32fx_iolib/stm32f4x_iolib/stm32f4x_iolib_168MHz_8MHz.a(stm32f4xx_tim.o)
TPAD_Get_MaxVal                                   FLASH_RUN/touch_pad.o
TPAD_Get_Val                                      FLASH_RUN/touch_pad.o
TPAD_Init                                         FLASH_RUN/touch_pad.o
TPAD_Reset                                        FLASH_RUN/touch_pad.o
TPAD_Scan                                         FLASH_RUN/touch_pad.o
TP_Adj_Info_Show                                  FLASH_RUN/touch_panel.o
TP_Adjust                                         FLASH_RUN/touch_panel.o
TP_Drow_Touch_Point                               FLASH_RUN/touch_panel.o
TP_Drow_Touch_Point2                              FLASH_RUN/touch_panel.o
                                                  FLASH_RUN/main.o
TP_Get_Adjdata                                    FLASH_RUN/touch_panel.o
TP_Init                                           FLASH_RUN/touch_panel.o
                                                  FLASH_RUN/main.o
TP_Read_AD                                        FLASH_RUN/touch_panel.o
TP_Read_XOY                                       FLASH_RUN/touch_panel.o
TP_Read_XY                                        FLASH_RUN/touch_panel.o
TP_Read_XY2                                       FLASH_RUN/touch_panel.o
TP_Save_Adjdata                                   FLASH_RUN/touch_panel.o
TP_Scan                                           FLASH_RUN/touch_panel.o
                                                  FLASH_RUN/main.o
TP_Write_Byte                                     FLASH_RUN/touch_panel.o
TransferEnd                                       FLASH_RUN/sdio_sdcard.o
TransferError                                     FLASH_RUN/sdio_sdcard.o
UART4_IRQHandler                                  c:/project/stm32fx_iolib/stm32f4x_iolib/stm32f4x_iolib_168MHz_8MHz.a(startup_stm32f4xx.o)
UART5_IRQHandler                                  c:/project/stm32fx_iolib/stm32f4x_iolib/stm32f4x_iolib_168MHz_8MHz.a(startup_stm32f4xx.o)
UART7_IRQHandler                                  c:/project/stm32fx_iolib/stm32f4x_iolib/stm32f4x_iolib_168MHz_8MHz.a(startup_stm32f4xx.o)
UART8_IRQHandler                                  c:/project/stm32fx_iolib/stm32f4x_iolib/stm32f4x_iolib_168MHz_8MHz.a(startup_stm32f4xx.o)
USART1_IRQHandler                                 FLASH_RUN/serial.o
USART1_PORT                                       FLASH_RUN/serial.o
USART2_IRQHandler                                 FLASH_RUN/serial.o
USART3_IRQHandler                                 FLASH_RUN/serial.o
USART3_PORT                                       FLASH_RUN/serial.o
USART6_IRQHandler                                 c:/project/stm32fx_iolib/stm32f4x_iolib/stm32f4x_iolib_168MHz_8MHz.a(startup_stm32f4xx.o)
USART_ClearFlag                                   c:/project/stm32fx_iolib/stm32f4x_iolib/stm32f4x_iolib_168MHz_8MHz.a(stm32f4xx_usart.o)
USART_ClearITPendingBit                           c:/project/stm32fx_iolib/stm32f4x_iolib/stm32f4x_iolib_168MHz_8MHz.a(stm32f4xx_usart.o)
                                                  FLASH_RUN/serial.o
USART_ClockInit                                   c:/project/stm32fx_iolib/stm32f4x_iolib/stm32f4x_iolib_168MHz_8MHz.a(stm32f4xx_usart.o)
USART_ClockStructInit                             c:/project/stm32fx_iolib/stm32f4x_iolib/stm32f4x_iolib_168MHz_8MHz.a(stm32f4xx_usart.o)
USART_Cmd                                         c:/project/stm32fx_iolib/stm32f4x_iolib/stm32f4x_iolib_168MHz_8MHz.a(stm32f4xx_usart.o)
                                                  FLASH_RUN/serial.o
USART_DMACmd                                      c:/project/stm32fx_iolib/stm32f4x_iolib/stm32f4x_iolib_168MHz_8MHz.a(stm32f4xx_usart.o)
USART_DeInit                                      c:/project/stm32fx_iolib/stm32f4x_iolib/stm32f4x_iolib_168MHz_8MHz.a(stm32f4xx_usart.o)
                                                  FLASH_RUN/serial.o
USART_GetFlagStatus                               c:/project/stm32fx_iolib/stm32f4x_iolib/stm32f4x_iolib_168MHz_8MHz.a(stm32f4xx_usart.o)
USART_GetITStatus                                 c:/project/stm32fx_iolib/stm32f4x_iolib/stm32f4x_iolib_168MHz_8MHz.a(stm32f4xx_usart.o)
                                                  FLASH_RUN/serial.o
USART_HalfDuplexCmd                               c:/project/stm32fx_iolib/stm32f4x_iolib/stm32f4x_iolib_168MHz_8MHz.a(stm32f4xx_usart.o)
USART_ITConfig                                    c:/project/stm32fx_iolib/stm32f4x_iolib/stm32f4x_iolib_168MHz_8MHz.a(stm32f4xx_usart.o)
                                                  FLASH_RUN/serial.o
USART_Init                                        c:/project/stm32fx_iolib/stm32f4x_iolib/stm32f4x_iolib_168MHz_8MHz.a(stm32f4xx_usart.o)
                                                  FLASH_RUN/serial.o
USART_IrDACmd                                     c:/project/stm32fx_iolib/stm32f4x_iolib/stm32f4x_iolib_168MHz_8MHz.a(stm32f4xx_usart.o)
USART_IrDAConfig                                  c:/project/stm32fx_iolib/stm32f4x_iolib/stm32f4x_iolib_168MHz_8MHz.a(stm32f4xx_usart.o)
USART_LINBreakDetectLengthConfig                  c:/project/stm32fx_iolib/stm32f4x_iolib/stm32f4x_iolib_168MHz_8MHz.a(stm32f4xx_usart.o)
USART_LINCmd                                      c:/project/stm32fx_iolib/stm32f4x_iolib/stm32f4x_iolib_168MHz_8MHz.a(stm32f4xx_usart.o)
USART_OneBitMethodCmd                             c:/project/stm32fx_iolib/stm32f4x_iolib/stm32f4x_iolib_168MHz_8MHz.a(stm32f4xx_usart.o)
USART_OverSampling8Cmd                            c:/project/stm32fx_iolib/stm32f4x_iolib/stm32f4x_iolib_168MHz_8MHz.a(stm32f4xx_usart.o)
USART_ReceiveData                                 c:/project/stm32fx_iolib/stm32f4x_iolib/stm32f4x_iolib_168MHz_8MHz.a(stm32f4xx_usart.o)
                                                  FLASH_RUN/serial.o
USART_ReceiverWakeUpCmd                           c:/project/stm32fx_iolib/stm32f4x_iolib/stm32f4x_iolib_168MHz_8MHz.a(stm32f4xx_usart.o)
USART_SendBreak                                   c:/project/stm32fx_iolib/stm32f4x_iolib/stm32f4x_iolib_168MHz_8MHz.a(stm32f4xx_usart.o)
USART_SendData                                    c:/project/stm32fx_iolib/stm32f4x_iolib/stm32f4x_iolib_168MHz_8MHz.a(stm32f4xx_usart.o)
                                                  FLASH_RUN/serial.o
USART_SetAddress                                  c:/project/stm32fx_iolib/stm32f4x_iolib/stm32f4x_iolib_168MHz_8MHz.a(stm32f4xx_usart.o)
USART_SetGuardTime                                c:/project/stm32fx_iolib/stm32f4x_iolib/stm32f4x_iolib_168MHz_8MHz.a(stm32f4xx_usart.o)
USART_SetPrescaler                                c:/project/stm32fx_iolib/stm32f4x_iolib/stm32f4x_iolib_168MHz_8MHz.a(stm32f4xx_usart.o)
USART_SmartCardCmd                                c:/project/stm32fx_iolib/stm32f4x_iolib/stm32f4x_iolib_168MHz_8MHz.a(stm32f4xx_usart.o)
USART_SmartCardNACKCmd                            c:/project/stm32fx_iolib/stm32f4x_iolib/stm32f4x_iolib_168MHz_8MHz.a(stm32f4xx_usart.o)
USART_StructInit                                  c:/project/stm32fx_iolib/stm32f4x_iolib/stm32f4x_iolib_168MHz_8MHz.a(stm32f4xx_usart.o)
USART_WakeUpConfig                                c:/project/stm32fx_iolib/stm32f4x_iolib/stm32f4x_iolib_168MHz_8MHz.a(stm32f4xx_usart.o)
UsageFault_Handler                                c:/project/stm32fx_iolib/stm32f4x_iolib/stm32f4x_iolib_168MHz_8MHz.a(startup_stm32f4xx.o)
WM8978_3D_Set                                     FLASH_RUN/wm8978.o
                                                  FLASH_RUN/audio.o
WM8978_ADDA_Cfg                                   FLASH_RUN/wm8978.o
                                                  FLASH_RUN/audio.o
WM8978_AUX_Gain                                   FLASH_RUN/wm8978.o
WM8978_EQ1_Set                                    FLASH_RUN/wm8978.o
                                                  FLASH_RUN/audio.o
WM8978_EQ2_Set                                    FLASH_RUN/wm8978.o
                                                  FLASH_RUN/audio.o
WM8978_EQ3_Set                                    FLASH_RUN/wm8978.o
                                                  FLASH_RUN/audio.o
WM8978_EQ4_Set                                    FLASH_RUN/wm8978.o
                                                  FLASH_RUN/audio.o
WM8978_EQ5_Set                                    FLASH_RUN/wm8978.o
                                                  FLASH_RUN/audio.o
WM8978_EQ_3D_Dir                                  FLASH_RUN/wm8978.o
WM8978_HPvol_Set                                  FLASH_RUN/wm8978.o
                                                  FLASH_RUN/audio.o
WM8978_I2S_Cfg                                    FLASH_RUN/wm8978.o
                                                  FLASH_RUN/apeplay.o
                                                  FLASH_RUN/flacplay.o
                                                  FLASH_RUN/wavplay.o
                                                  FLASH_RUN/mp3play.o
WM8978_Init                                       FLASH_RUN/wm8978.o
                                                  FLASH_RUN/audio.o
WM8978_Input_Cfg                                  FLASH_RUN/wm8978.o
                                                  FLASH_RUN/audio.o
WM8978_LINEIN_Gain                                FLASH_RUN/wm8978.o
WM8978_MIC_Gain                                   FLASH_RUN/wm8978.o
WM8978_Output_Cfg                                 FLASH_RUN/wm8978.o
                                                  FLASH_RUN/audio.o
WM8978_Read_Reg                                   FLASH_RUN/wm8978.o
WM8978_SPKvol_Set                                 FLASH_RUN/wm8978.o
                                                  FLASH_RUN/audio.o
WM8978_Write_Reg                                  FLASH_RUN/wm8978.o
WWDG_IRQHandler                                   c:/project/stm32fx_iolib/stm32f4x_iolib/stm32f4x_iolib_168MHz_8MHz.a(startup_stm32f4xx.o)
__Init_Data_and_BSS                               c:/project/stm32fx_iolib/stm32f4x_iolib/stm32f4x_iolib_168MHz_8MHz.a(startup_stm32f4xx.o)
__adddf3                                          c:/program files (x86)/arm gnu toolchain arm-none-eabi/12.2 mpacbti-rel1/bin/../lib/gcc/arm-none-eabi/12.2.1/thumb/v7e-m+fp/hard\libgcc.a(_arm_addsubdf3.o)
__aeabi_cdcmpeq                                   c:/program files (x86)/arm gnu toolchain arm-none-eabi/12.2 mpacbti-rel1/bin/../lib/gcc/arm-none-eabi/12.2.1/thumb/v7e-m+fp/hard\libgcc.a(_arm_cmpdf2.o)
__aeabi_cdcmple                                   c:/program files (x86)/arm gnu toolchain arm-none-eabi/12.2 mpacbti-rel1/bin/../lib/gcc/arm-none-eabi/12.2.1/thumb/v7e-m+fp/hard\libgcc.a(_arm_cmpdf2.o)
__aeabi_cdrcmple                                  c:/program files (x86)/arm gnu toolchain arm-none-eabi/12.2 mpacbti-rel1/bin/../lib/gcc/arm-none-eabi/12.2.1/thumb/v7e-m+fp/hard\libgcc.a(_arm_cmpdf2.o)
__aeabi_d2iz                                      c:/program files (x86)/arm gnu toolchain arm-none-eabi/12.2 mpacbti-rel1/bin/../lib/gcc/arm-none-eabi/12.2.1/thumb/v7e-m+fp/hard\libgcc.a(_arm_fixdfsi.o)
                                                  FLASH_RUN/adc.o
__aeabi_d2uiz                                     c:/program files (x86)/arm gnu toolchain arm-none-eabi/12.2 mpacbti-rel1/bin/../lib/gcc/arm-none-eabi/12.2.1/thumb/v7e-m+fp/hard\libgcc.a(_arm_fixunsdfsi.o)
                                                  FLASH_RUN/dac1.o
                                                  FLASH_RUN/touch_panel.o
                                                  FLASH_RUN/lcd.o
__aeabi_dadd                                      c:/program files (x86)/arm gnu toolchain arm-none-eabi/12.2 mpacbti-rel1/bin/../lib/gcc/arm-none-eabi/12.2.1/thumb/v7e-m+fp/hard\libgcc.a(_arm_addsubdf3.o)
                                                  c:/program files (x86)/arm gnu toolchain arm-none-eabi/12.2 mpacbti-rel1/bin/../lib/gcc/arm-none-eabi/12.2.1/thumb/v7e-m+fp/hard\libm.a(libm_a-e_sqrt.o)
                                                  FLASH_RUN/adc.o
__aeabi_dcmpeq                                    c:/program files (x86)/arm gnu toolchain arm-none-eabi/12.2 mpacbti-rel1/bin/../lib/gcc/arm-none-eabi/12.2.1/thumb/v7e-m+fp/hard\libgcc.a(_arm_cmpdf2.o)
__aeabi_dcmpge                                    c:/program files (x86)/arm gnu toolchain arm-none-eabi/12.2 mpacbti-rel1/bin/../lib/gcc/arm-none-eabi/12.2.1/thumb/v7e-m+fp/hard\libgcc.a(_arm_cmpdf2.o)
__aeabi_dcmpgt                                    c:/program files (x86)/arm gnu toolchain arm-none-eabi/12.2 mpacbti-rel1/bin/../lib/gcc/arm-none-eabi/12.2.1/thumb/v7e-m+fp/hard\libgcc.a(_arm_cmpdf2.o)
                                                  FLASH_RUN/dac1.o
                                                  FLASH_RUN/touch_panel.o
__aeabi_dcmple                                    c:/program files (x86)/arm gnu toolchain arm-none-eabi/12.2 mpacbti-rel1/bin/../lib/gcc/arm-none-eabi/12.2.1/thumb/v7e-m+fp/hard\libgcc.a(_arm_cmpdf2.o)
                                                  c:/program files (x86)/arm gnu toolchain arm-none-eabi/12.2 mpacbti-rel1/bin/../lib/gcc/arm-none-eabi/12.2.1/thumb/v7e-m+fp/hard\libm.a(libm_a-e_sqrt.o)
__aeabi_dcmplt                                    c:/program files (x86)/arm gnu toolchain arm-none-eabi/12.2 mpacbti-rel1/bin/../lib/gcc/arm-none-eabi/12.2.1/thumb/v7e-m+fp/hard\libgcc.a(_arm_cmpdf2.o)
                                                  c:/program files (x86)/arm gnu toolchain arm-none-eabi/12.2 mpacbti-rel1/bin/../lib/gcc/arm-none-eabi/12.2.1/thumb/v7e-m+fp/hard\libm.a(libm_a-e_sqrt.o)
                                                  c:/program files (x86)/arm gnu toolchain arm-none-eabi/12.2 mpacbti-rel1/bin/../lib/gcc/arm-none-eabi/12.2.1/thumb/v7e-m+fp/hard\libm.a(libm_a-w_sqrt.o)
                                                  FLASH_RUN/touch_panel.o
__aeabi_dcmpun                                    c:/program files (x86)/arm gnu toolchain arm-none-eabi/12.2 mpacbti-rel1/bin/../lib/gcc/arm-none-eabi/12.2.1/thumb/v7e-m+fp/hard\libgcc.a(_arm_unorddf2.o)
                                                  c:/program files (x86)/arm gnu toolchain arm-none-eabi/12.2 mpacbti-rel1/bin/../lib/gcc/arm-none-eabi/12.2.1/thumb/v7e-m+fp/hard\libm.a(libm_a-w_sqrt.o)
__aeabi_ddiv                                      c:/program files (x86)/arm gnu toolchain arm-none-eabi/12.2 mpacbti-rel1/bin/../lib/gcc/arm-none-eabi/12.2.1/thumb/v7e-m+fp/hard\libgcc.a(_arm_muldivdf3.o)
                                                  c:/program files (x86)/arm gnu toolchain arm-none-eabi/12.2 mpacbti-rel1/bin/../lib/gcc/arm-none-eabi/12.2.1/thumb/v7e-m+fp/hard\libm.a(libm_a-e_sqrt.o)
                                                  c:/program files (x86)/arm gnu toolchain arm-none-eabi/12.2 mpacbti-rel1/bin/../lib/gcc/arm-none-eabi/12.2.1/thumb/v7e-m+fp/hard\libm.a(libm_a-w_sqrt.o)
                                                  FLASH_RUN/dac1.o
                                                  FLASH_RUN/adc.o
__aeabi_dmul                                      c:/program files (x86)/arm gnu toolchain arm-none-eabi/12.2 mpacbti-rel1/bin/../lib/gcc/arm-none-eabi/12.2.1/thumb/v7e-m+fp/hard\libgcc.a(_arm_muldivdf3.o)
                                                  c:/program files (x86)/arm gnu toolchain arm-none-eabi/12.2 mpacbti-rel1/bin/../lib/gcc/arm-none-eabi/12.2.1/thumb/v7e-m+fp/hard\libgcc.a(_arm_muldf3.o)
                                                  c:/program files (x86)/arm gnu toolchain arm-none-eabi/12.2 mpacbti-rel1/bin/../lib/gcc/arm-none-eabi/12.2.1/thumb/v7e-m+fp/hard\libm.a(libm_a-e_sqrt.o)
                                                  FLASH_RUN/dac1.o
                                                  FLASH_RUN/adc.o
                                                  FLASH_RUN/touch_panel.o
                                                  FLASH_RUN/lcd.o
__aeabi_drsub                                     c:/program files (x86)/arm gnu toolchain arm-none-eabi/12.2 mpacbti-rel1/bin/../lib/gcc/arm-none-eabi/12.2.1/thumb/v7e-m+fp/hard\libgcc.a(_arm_addsubdf3.o)
__aeabi_dsub                                      c:/program files (x86)/arm gnu toolchain arm-none-eabi/12.2 mpacbti-rel1/bin/../lib/gcc/arm-none-eabi/12.2.1/thumb/v7e-m+fp/hard\libgcc.a(_arm_addsubdf3.o)
                                                  c:/program files (x86)/arm gnu toolchain arm-none-eabi/12.2 mpacbti-rel1/bin/../lib/gcc/arm-none-eabi/12.2.1/thumb/v7e-m+fp/hard\libm.a(libm_a-e_sqrt.o)
                                                  FLASH_RUN/adc.o
__aeabi_f2d                                       c:/program files (x86)/arm gnu toolchain arm-none-eabi/12.2 mpacbti-rel1/bin/../lib/gcc/arm-none-eabi/12.2.1/thumb/v7e-m+fp/hard\libgcc.a(_arm_addsubdf3.o)
                                                  FLASH_RUN/adc.o
                                                  FLASH_RUN/touch_panel.o
                                                  FLASH_RUN/main.o
__aeabi_i2d                                       c:/program files (x86)/arm gnu toolchain arm-none-eabi/12.2 mpacbti-rel1/bin/../lib/gcc/arm-none-eabi/12.2.1/thumb/v7e-m+fp/hard\libgcc.a(_arm_addsubdf3.o)
                                                  FLASH_RUN/lcd.o
__aeabi_idiv0                                     c:/program files (x86)/arm gnu toolchain arm-none-eabi/12.2 mpacbti-rel1/bin/../lib/gcc/arm-none-eabi/12.2.1/thumb/v7e-m+fp/hard\libgcc.a(_dvmd_tls.o)
__aeabi_l2d                                       c:/program files (x86)/arm gnu toolchain arm-none-eabi/12.2 mpacbti-rel1/bin/../lib/gcc/arm-none-eabi/12.2.1/thumb/v7e-m+fp/hard\libgcc.a(_arm_addsubdf3.o)
__aeabi_ldiv0                                     c:/program files (x86)/arm gnu toolchain arm-none-eabi/12.2 mpacbti-rel1/bin/../lib/gcc/arm-none-eabi/12.2.1/thumb/v7e-m+fp/hard\libgcc.a(_dvmd_tls.o)
                                                  c:/program files (x86)/arm gnu toolchain arm-none-eabi/12.2 mpacbti-rel1/bin/../lib/gcc/arm-none-eabi/12.2.1/thumb/v7e-m+fp/hard\libgcc.a(_aeabi_uldivmod.o)
                                                  c:/program files (x86)/arm gnu toolchain arm-none-eabi/12.2 mpacbti-rel1/bin/../lib/gcc/arm-none-eabi/12.2.1/thumb/v7e-m+fp/hard\libgcc.a(_aeabi_ldivmod.o)
__aeabi_ldivmod                                   c:/program files (x86)/arm gnu toolchain arm-none-eabi/12.2 mpacbti-rel1/bin/../lib/gcc/arm-none-eabi/12.2.1/thumb/v7e-m+fp/hard\libgcc.a(_aeabi_ldivmod.o)
                                                  FLASH_RUN/apeplay.o
                                                  FLASH_RUN/flacplay.o
                                                  FLASH_RUN/wavplay.o
__aeabi_ui2d                                      c:/program files (x86)/arm gnu toolchain arm-none-eabi/12.2 mpacbti-rel1/bin/../lib/gcc/arm-none-eabi/12.2.1/thumb/v7e-m+fp/hard\libgcc.a(_arm_addsubdf3.o)
                                                  FLASH_RUN/dac1.o
                                                  FLASH_RUN/touch_panel.o
__aeabi_ul2d                                      c:/program files (x86)/arm gnu toolchain arm-none-eabi/12.2 mpacbti-rel1/bin/../lib/gcc/arm-none-eabi/12.2.1/thumb/v7e-m+fp/hard\libgcc.a(_arm_addsubdf3.o)
__aeabi_uldivmod                                  c:/program files (x86)/arm gnu toolchain arm-none-eabi/12.2 mpacbti-rel1/bin/../lib/gcc/arm-none-eabi/12.2.1/thumb/v7e-m+fp/hard\libgcc.a(_aeabi_uldivmod.o)
                                                  FLASH_RUN/apeplay.o
                                                  FLASH_RUN/flacplay.o
                                                  FLASH_RUN/wavplay.o
                                                  FLASH_RUN/print.o
__cmpdf2                                          c:/program files (x86)/arm gnu toolchain arm-none-eabi/12.2 mpacbti-rel1/bin/../lib/gcc/arm-none-eabi/12.2.1/thumb/v7e-m+fp/hard\libgcc.a(_arm_cmpdf2.o)
__divdf3                                          c:/program files (x86)/arm gnu toolchain arm-none-eabi/12.2 mpacbti-rel1/bin/../lib/gcc/arm-none-eabi/12.2.1/thumb/v7e-m+fp/hard\libgcc.a(_arm_muldivdf3.o)
__eqdf2                                           c:/program files (x86)/arm gnu toolchain arm-none-eabi/12.2 mpacbti-rel1/bin/../lib/gcc/arm-none-eabi/12.2.1/thumb/v7e-m+fp/hard\libgcc.a(_arm_cmpdf2.o)
__errno                                           c:/program files (x86)/arm gnu toolchain arm-none-eabi/12.2 mpacbti-rel1/bin/../lib/gcc/arm-none-eabi/12.2.1/thumb/v7e-m+fp/hard\libc.a(libc_a-errno.o)
                                                  c:/program files (x86)/arm gnu toolchain arm-none-eabi/12.2 mpacbti-rel1/bin/../lib/gcc/arm-none-eabi/12.2.1/thumb/v7e-m+fp/hard\libm.a(libm_a-w_sqrt.o)
                                                  c:/program files (x86)/arm gnu toolchain arm-none-eabi/12.2 mpacbti-rel1/bin/../lib/gcc/arm-none-eabi/12.2.1/thumb/v7e-m+fp/hard\libc.a(libc_a-sysconf.o)
                                                  FLASH_RUN/audio.o
__extendsfdf2                                     c:/program files (x86)/arm gnu toolchain arm-none-eabi/12.2 mpacbti-rel1/bin/../lib/gcc/arm-none-eabi/12.2.1/thumb/v7e-m+fp/hard\libgcc.a(_arm_addsubdf3.o)
__fixdfsi                                         c:/program files (x86)/arm gnu toolchain arm-none-eabi/12.2 mpacbti-rel1/bin/../lib/gcc/arm-none-eabi/12.2.1/thumb/v7e-m+fp/hard\libgcc.a(_arm_fixdfsi.o)
__fixunsdfsi                                      c:/program files (x86)/arm gnu toolchain arm-none-eabi/12.2 mpacbti-rel1/bin/../lib/gcc/arm-none-eabi/12.2.1/thumb/v7e-m+fp/hard\libgcc.a(_arm_fixunsdfsi.o)
__floatdidf                                       c:/program files (x86)/arm gnu toolchain arm-none-eabi/12.2 mpacbti-rel1/bin/../lib/gcc/arm-none-eabi/12.2.1/thumb/v7e-m+fp/hard\libgcc.a(_arm_addsubdf3.o)
__floatsidf                                       c:/program files (x86)/arm gnu toolchain arm-none-eabi/12.2 mpacbti-rel1/bin/../lib/gcc/arm-none-eabi/12.2.1/thumb/v7e-m+fp/hard\libgcc.a(_arm_addsubdf3.o)
__floatundidf                                     c:/program files (x86)/arm gnu toolchain arm-none-eabi/12.2 mpacbti-rel1/bin/../lib/gcc/arm-none-eabi/12.2.1/thumb/v7e-m+fp/hard\libgcc.a(_arm_addsubdf3.o)
__floatunsidf                                     c:/program files (x86)/arm gnu toolchain arm-none-eabi/12.2 mpacbti-rel1/bin/../lib/gcc/arm-none-eabi/12.2.1/thumb/v7e-m+fp/hard\libgcc.a(_arm_addsubdf3.o)
__fp_lock_all                                     c:/program files (x86)/arm gnu toolchain arm-none-eabi/12.2 mpacbti-rel1/bin/../lib/gcc/arm-none-eabi/12.2.1/thumb/v7e-m+fp/hard\libc.a(libc_a-findfp.o)
__fp_unlock_all                                   c:/program files (x86)/arm gnu toolchain arm-none-eabi/12.2 mpacbti-rel1/bin/../lib/gcc/arm-none-eabi/12.2.1/thumb/v7e-m+fp/hard\libc.a(libc_a-findfp.o)
__gedf2                                           c:/program files (x86)/arm gnu toolchain arm-none-eabi/12.2 mpacbti-rel1/bin/../lib/gcc/arm-none-eabi/12.2.1/thumb/v7e-m+fp/hard\libgcc.a(_arm_cmpdf2.o)
__gtdf2                                           c:/program files (x86)/arm gnu toolchain arm-none-eabi/12.2 mpacbti-rel1/bin/../lib/gcc/arm-none-eabi/12.2.1/thumb/v7e-m+fp/hard\libgcc.a(_arm_cmpdf2.o)
__ieee754_sqrt                                    c:/program files (x86)/arm gnu toolchain arm-none-eabi/12.2 mpacbti-rel1/bin/../lib/gcc/arm-none-eabi/12.2.1/thumb/v7e-m+fp/hard\libm.a(libm_a-e_sqrt.o)
                                                  c:/program files (x86)/arm gnu toolchain arm-none-eabi/12.2 mpacbti-rel1/bin/../lib/gcc/arm-none-eabi/12.2.1/thumb/v7e-m+fp/hard\libm.a(libm_a-w_sqrt.o)
__ledf2                                           c:/program files (x86)/arm gnu toolchain arm-none-eabi/12.2 mpacbti-rel1/bin/../lib/gcc/arm-none-eabi/12.2.1/thumb/v7e-m+fp/hard\libgcc.a(_arm_cmpdf2.o)
__lock___arc4random_mutex                         c:/program files (x86)/arm gnu toolchain arm-none-eabi/12.2 mpacbti-rel1/bin/../lib/gcc/arm-none-eabi/12.2.1/thumb/v7e-m+fp/hard\libc.a(libc_a-lock.o)
__lock___at_quick_exit_mutex                      c:/program files (x86)/arm gnu toolchain arm-none-eabi/12.2 mpacbti-rel1/bin/../lib/gcc/arm-none-eabi/12.2.1/thumb/v7e-m+fp/hard\libc.a(libc_a-lock.o)
__lock___atexit_recursive_mutex                   c:/program files (x86)/arm gnu toolchain arm-none-eabi/12.2 mpacbti-rel1/bin/../lib/gcc/arm-none-eabi/12.2.1/thumb/v7e-m+fp/hard\libc.a(libc_a-lock.o)
__lock___dd_hash_mutex                            c:/program files (x86)/arm gnu toolchain arm-none-eabi/12.2 mpacbti-rel1/bin/../lib/gcc/arm-none-eabi/12.2.1/thumb/v7e-m+fp/hard\libc.a(libc_a-lock.o)
__lock___env_recursive_mutex                      c:/program files (x86)/arm gnu toolchain arm-none-eabi/12.2 mpacbti-rel1/bin/../lib/gcc/arm-none-eabi/12.2.1/thumb/v7e-m+fp/hard\libc.a(libc_a-lock.o)
__lock___malloc_recursive_mutex                   c:/program files (x86)/arm gnu toolchain arm-none-eabi/12.2 mpacbti-rel1/bin/../lib/gcc/arm-none-eabi/12.2.1/thumb/v7e-m+fp/hard\libc.a(libc_a-lock.o)
                                                  c:/program files (x86)/arm gnu toolchain arm-none-eabi/12.2 mpacbti-rel1/bin/../lib/gcc/arm-none-eabi/12.2.1/thumb/v7e-m+fp/hard\libc.a(libc_a-mlock.o)
__lock___sfp_recursive_mutex                      c:/program files (x86)/arm gnu toolchain arm-none-eabi/12.2 mpacbti-rel1/bin/../lib/gcc/arm-none-eabi/12.2.1/thumb/v7e-m+fp/hard\libc.a(libc_a-lock.o)
                                                  c:/program files (x86)/arm gnu toolchain arm-none-eabi/12.2 mpacbti-rel1/bin/../lib/gcc/arm-none-eabi/12.2.1/thumb/v7e-m+fp/hard\libc.a(libc_a-findfp.o)
__lock___tz_mutex                                 c:/program files (x86)/arm gnu toolchain arm-none-eabi/12.2 mpacbti-rel1/bin/../lib/gcc/arm-none-eabi/12.2.1/thumb/v7e-m+fp/hard\libc.a(libc_a-lock.o)
__ltdf2                                           c:/program files (x86)/arm gnu toolchain arm-none-eabi/12.2 mpacbti-rel1/bin/../lib/gcc/arm-none-eabi/12.2.1/thumb/v7e-m+fp/hard\libgcc.a(_arm_cmpdf2.o)
__malloc_av_                                      c:/program files (x86)/arm gnu toolchain arm-none-eabi/12.2 mpacbti-rel1/bin/../lib/gcc/arm-none-eabi/12.2.1/thumb/v7e-m+fp/hard\libc.a(libc_a-mallocr.o)
                                                  c:/program files (x86)/arm gnu toolchain arm-none-eabi/12.2 mpacbti-rel1/bin/../lib/gcc/arm-none-eabi/12.2.1/thumb/v7e-m+fp/hard\libc.a(libc_a-freer.o)
__malloc_current_mallinfo                         c:/program files (x86)/arm gnu toolchain arm-none-eabi/12.2 mpacbti-rel1/bin/../lib/gcc/arm-none-eabi/12.2.1/thumb/v7e-m+fp/hard\libc.a(libc_a-mallocr.o)
                                                  c:/program files (x86)/arm gnu toolchain arm-none-eabi/12.2 mpacbti-rel1/bin/../lib/gcc/arm-none-eabi/12.2.1/thumb/v7e-m+fp/hard\libc.a(libc_a-freer.o)
__malloc_lock                                     c:/program files (x86)/arm gnu toolchain arm-none-eabi/12.2 mpacbti-rel1/bin/../lib/gcc/arm-none-eabi/12.2.1/thumb/v7e-m+fp/hard\libc.a(libc_a-mlock.o)
                                                  c:/program files (x86)/arm gnu toolchain arm-none-eabi/12.2 mpacbti-rel1/bin/../lib/gcc/arm-none-eabi/12.2.1/thumb/v7e-m+fp/hard\libc.a(libc_a-freer.o)
                                                  c:/program files (x86)/arm gnu toolchain arm-none-eabi/12.2 mpacbti-rel1/bin/../lib/gcc/arm-none-eabi/12.2.1/thumb/v7e-m+fp/hard\libc.a(libc_a-mallocr.o)
__malloc_max_sbrked_mem                           c:/program files (x86)/arm gnu toolchain arm-none-eabi/12.2 mpacbti-rel1/bin/../lib/gcc/arm-none-eabi/12.2.1/thumb/v7e-m+fp/hard\libc.a(libc_a-mallocr.o)
__malloc_max_total_mem                            c:/program files (x86)/arm gnu toolchain arm-none-eabi/12.2 mpacbti-rel1/bin/../lib/gcc/arm-none-eabi/12.2.1/thumb/v7e-m+fp/hard\libc.a(libc_a-mallocr.o)
__malloc_sbrk_base                                c:/program files (x86)/arm gnu toolchain arm-none-eabi/12.2 mpacbti-rel1/bin/../lib/gcc/arm-none-eabi/12.2.1/thumb/v7e-m+fp/hard\libc.a(libc_a-mallocr.o)
                                                  c:/program files (x86)/arm gnu toolchain arm-none-eabi/12.2 mpacbti-rel1/bin/../lib/gcc/arm-none-eabi/12.2.1/thumb/v7e-m+fp/hard\libc.a(libc_a-freer.o)
__malloc_top_pad                                  c:/program files (x86)/arm gnu toolchain arm-none-eabi/12.2 mpacbti-rel1/bin/../lib/gcc/arm-none-eabi/12.2.1/thumb/v7e-m+fp/hard\libc.a(libc_a-mallocr.o)
                                                  c:/program files (x86)/arm gnu toolchain arm-none-eabi/12.2 mpacbti-rel1/bin/../lib/gcc/arm-none-eabi/12.2.1/thumb/v7e-m+fp/hard\libc.a(libc_a-freer.o)
__malloc_trim_threshold                           c:/program files (x86)/arm gnu toolchain arm-none-eabi/12.2 mpacbti-rel1/bin/../lib/gcc/arm-none-eabi/12.2.1/thumb/v7e-m+fp/hard\libc.a(libc_a-mallocr.o)
                                                  c:/program files (x86)/arm gnu toolchain arm-none-eabi/12.2 mpacbti-rel1/bin/../lib/gcc/arm-none-eabi/12.2.1/thumb/v7e-m+fp/hard\libc.a(libc_a-freer.o)
__malloc_unlock                                   c:/program files (x86)/arm gnu toolchain arm-none-eabi/12.2 mpacbti-rel1/bin/../lib/gcc/arm-none-eabi/12.2.1/thumb/v7e-m+fp/hard\libc.a(libc_a-mlock.o)
                                                  c:/program files (x86)/arm gnu toolchain arm-none-eabi/12.2 mpacbti-rel1/bin/../lib/gcc/arm-none-eabi/12.2.1/thumb/v7e-m+fp/hard\libc.a(libc_a-freer.o)
                                                  c:/program files (x86)/arm gnu toolchain arm-none-eabi/12.2 mpacbti-rel1/bin/../lib/gcc/arm-none-eabi/12.2.1/thumb/v7e-m+fp/hard\libc.a(libc_a-mallocr.o)
__muldf3                                          c:/program files (x86)/arm gnu toolchain arm-none-eabi/12.2 mpacbti-rel1/bin/../lib/gcc/arm-none-eabi/12.2.1/thumb/v7e-m+fp/hard\libgcc.a(_arm_muldivdf3.o)
                                                  c:/program files (x86)/arm gnu toolchain arm-none-eabi/12.2 mpacbti-rel1/bin/../lib/gcc/arm-none-eabi/12.2.1/thumb/v7e-m+fp/hard\libgcc.a(_arm_muldf3.o)
__nedf2                                           c:/program files (x86)/arm gnu toolchain arm-none-eabi/12.2 mpacbti-rel1/bin/../lib/gcc/arm-none-eabi/12.2.1/thumb/v7e-m+fp/hard\libgcc.a(_arm_cmpdf2.o)
__retarget_lock_acquire                           c:/program files (x86)/arm gnu toolchain arm-none-eabi/12.2 mpacbti-rel1/bin/../lib/gcc/arm-none-eabi/12.2.1/thumb/v7e-m+fp/hard\libc.a(libc_a-lock.o)
__retarget_lock_acquire_recursive                 c:/program files (x86)/arm gnu toolchain arm-none-eabi/12.2 mpacbti-rel1/bin/../lib/gcc/arm-none-eabi/12.2.1/thumb/v7e-m+fp/hard\libc.a(libc_a-lock.o)
                                                  c:/program files (x86)/arm gnu toolchain arm-none-eabi/12.2 mpacbti-rel1/bin/../lib/gcc/arm-none-eabi/12.2.1/thumb/v7e-m+fp/hard\libc.a(libc_a-fflush.o)
                                                  c:/program files (x86)/arm gnu toolchain arm-none-eabi/12.2 mpacbti-rel1/bin/../lib/gcc/arm-none-eabi/12.2.1/thumb/v7e-m+fp/hard\libc.a(libc_a-fclose.o)
                                                  c:/program files (x86)/arm gnu toolchain arm-none-eabi/12.2 mpacbti-rel1/bin/../lib/gcc/arm-none-eabi/12.2.1/thumb/v7e-m+fp/hard\libc.a(libc_a-findfp.o)
                                                  c:/program files (x86)/arm gnu toolchain arm-none-eabi/12.2 mpacbti-rel1/bin/../lib/gcc/arm-none-eabi/12.2.1/thumb/v7e-m+fp/hard\libc.a(libc_a-mlock.o)
__retarget_lock_close                             c:/program files (x86)/arm gnu toolchain arm-none-eabi/12.2 mpacbti-rel1/bin/../lib/gcc/arm-none-eabi/12.2.1/thumb/v7e-m+fp/hard\libc.a(libc_a-lock.o)
__retarget_lock_close_recursive                   c:/program files (x86)/arm gnu toolchain arm-none-eabi/12.2 mpacbti-rel1/bin/../lib/gcc/arm-none-eabi/12.2.1/thumb/v7e-m+fp/hard\libc.a(libc_a-lock.o)
                                                  c:/program files (x86)/arm gnu toolchain arm-none-eabi/12.2 mpacbti-rel1/bin/../lib/gcc/arm-none-eabi/12.2.1/thumb/v7e-m+fp/hard\libc.a(libc_a-fclose.o)
__retarget_lock_init                              c:/program files (x86)/arm gnu toolchain arm-none-eabi/12.2 mpacbti-rel1/bin/../lib/gcc/arm-none-eabi/12.2.1/thumb/v7e-m+fp/hard\libc.a(libc_a-lock.o)
__retarget_lock_init_recursive                    c:/program files (x86)/arm gnu toolchain arm-none-eabi/12.2 mpacbti-rel1/bin/../lib/gcc/arm-none-eabi/12.2.1/thumb/v7e-m+fp/hard\libc.a(libc_a-lock.o)
                                                  c:/program files (x86)/arm gnu toolchain arm-none-eabi/12.2 mpacbti-rel1/bin/../lib/gcc/arm-none-eabi/12.2.1/thumb/v7e-m+fp/hard\libc.a(libc_a-findfp.o)
__retarget_lock_release                           c:/program files (x86)/arm gnu toolchain arm-none-eabi/12.2 mpacbti-rel1/bin/../lib/gcc/arm-none-eabi/12.2.1/thumb/v7e-m+fp/hard\libc.a(libc_a-lock.o)
__retarget_lock_release_recursive                 c:/program files (x86)/arm gnu toolchain arm-none-eabi/12.2 mpacbti-rel1/bin/../lib/gcc/arm-none-eabi/12.2.1/thumb/v7e-m+fp/hard\libc.a(libc_a-lock.o)
                                                  c:/program files (x86)/arm gnu toolchain arm-none-eabi/12.2 mpacbti-rel1/bin/../lib/gcc/arm-none-eabi/12.2.1/thumb/v7e-m+fp/hard\libc.a(libc_a-fflush.o)
                                                  c:/program files (x86)/arm gnu toolchain arm-none-eabi/12.2 mpacbti-rel1/bin/../lib/gcc/arm-none-eabi/12.2.1/thumb/v7e-m+fp/hard\libc.a(libc_a-fclose.o)
                                                  c:/program files (x86)/arm gnu toolchain arm-none-eabi/12.2 mpacbti-rel1/bin/../lib/gcc/arm-none-eabi/12.2.1/thumb/v7e-m+fp/hard\libc.a(libc_a-findfp.o)
                                                  c:/program files (x86)/arm gnu toolchain arm-none-eabi/12.2 mpacbti-rel1/bin/../lib/gcc/arm-none-eabi/12.2.1/thumb/v7e-m+fp/hard\libc.a(libc_a-mlock.o)
__retarget_lock_try_acquire                       c:/program files (x86)/arm gnu toolchain arm-none-eabi/12.2 mpacbti-rel1/bin/../lib/gcc/arm-none-eabi/12.2.1/thumb/v7e-m+fp/hard\libc.a(libc_a-lock.o)
__retarget_lock_try_acquire_recursive             c:/program files (x86)/arm gnu toolchain arm-none-eabi/12.2 mpacbti-rel1/bin/../lib/gcc/arm-none-eabi/12.2.1/thumb/v7e-m+fp/hard\libc.a(libc_a-lock.o)
__sclose                                          c:/program files (x86)/arm gnu toolchain arm-none-eabi/12.2 mpacbti-rel1/bin/../lib/gcc/arm-none-eabi/12.2.1/thumb/v7e-m+fp/hard\libc.a(libc_a-stdio.o)
                                                  c:/program files (x86)/arm gnu toolchain arm-none-eabi/12.2 mpacbti-rel1/bin/../lib/gcc/arm-none-eabi/12.2.1/thumb/v7e-m+fp/hard\libc.a(libc_a-findfp.o)
__seofread                                        c:/program files (x86)/arm gnu toolchain arm-none-eabi/12.2 mpacbti-rel1/bin/../lib/gcc/arm-none-eabi/12.2.1/thumb/v7e-m+fp/hard\libc.a(libc_a-stdio.o)
__set_ctype                                       c:/program files (x86)/arm gnu toolchain arm-none-eabi/12.2 mpacbti-rel1/bin/../lib/gcc/arm-none-eabi/12.2.1/thumb/v7e-m+fp/hard\libc.a(libc_a-ctype_.o)
__sf                                              c:/program files (x86)/arm gnu toolchain arm-none-eabi/12.2 mpacbti-rel1/bin/../lib/gcc/arm-none-eabi/12.2.1/thumb/v7e-m+fp/hard\libc.a(libc_a-findfp.o)
                                                  c:/program files (x86)/arm gnu toolchain arm-none-eabi/12.2 mpacbti-rel1/bin/../lib/gcc/arm-none-eabi/12.2.1/thumb/v7e-m+fp/hard\libc.a(libc_a-impure.o)
__sflush_r                                        c:/program files (x86)/arm gnu toolchain arm-none-eabi/12.2 mpacbti-rel1/bin/../lib/gcc/arm-none-eabi/12.2.1/thumb/v7e-m+fp/hard\libc.a(libc_a-fflush.o)
                                                  c:/program files (x86)/arm gnu toolchain arm-none-eabi/12.2 mpacbti-rel1/bin/../lib/gcc/arm-none-eabi/12.2.1/thumb/v7e-m+fp/hard\libc.a(libc_a-fclose.o)
__sfp                                             c:/program files (x86)/arm gnu toolchain arm-none-eabi/12.2 mpacbti-rel1/bin/../lib/gcc/arm-none-eabi/12.2.1/thumb/v7e-m+fp/hard\libc.a(libc_a-findfp.o)
__sfp_lock_acquire                                c:/program files (x86)/arm gnu toolchain arm-none-eabi/12.2 mpacbti-rel1/bin/../lib/gcc/arm-none-eabi/12.2.1/thumb/v7e-m+fp/hard\libc.a(libc_a-findfp.o)
                                                  c:/program files (x86)/arm gnu toolchain arm-none-eabi/12.2 mpacbti-rel1/bin/../lib/gcc/arm-none-eabi/12.2.1/thumb/v7e-m+fp/hard\libc.a(libc_a-fclose.o)
__sfp_lock_release                                c:/program files (x86)/arm gnu toolchain arm-none-eabi/12.2 mpacbti-rel1/bin/../lib/gcc/arm-none-eabi/12.2.1/thumb/v7e-m+fp/hard\libc.a(libc_a-findfp.o)
                                                  c:/program files (x86)/arm gnu toolchain arm-none-eabi/12.2 mpacbti-rel1/bin/../lib/gcc/arm-none-eabi/12.2.1/thumb/v7e-m+fp/hard\libc.a(libc_a-fclose.o)
__sglue                                           c:/program files (x86)/arm gnu toolchain arm-none-eabi/12.2 mpacbti-rel1/bin/../lib/gcc/arm-none-eabi/12.2.1/thumb/v7e-m+fp/hard\libc.a(libc_a-findfp.o)
                                                  c:/program files (x86)/arm gnu toolchain arm-none-eabi/12.2 mpacbti-rel1/bin/../lib/gcc/arm-none-eabi/12.2.1/thumb/v7e-m+fp/hard\libc.a(libc_a-fflush.o)
__sigtramp                                        c:/program files (x86)/arm gnu toolchain arm-none-eabi/12.2 mpacbti-rel1/bin/../lib/gcc/arm-none-eabi/12.2.1/thumb/v7e-m+fp/hard\libc.a(libc_a-signal.o)
__sigtramp_r                                      c:/program files (x86)/arm gnu toolchain arm-none-eabi/12.2 mpacbti-rel1/bin/../lib/gcc/arm-none-eabi/12.2.1/thumb/v7e-m+fp/hard\libc.a(libc_a-signal.o)
__sinit                                           c:/program files (x86)/arm gnu toolchain arm-none-eabi/12.2 mpacbti-rel1/bin/../lib/gcc/arm-none-eabi/12.2.1/thumb/v7e-m+fp/hard\libc.a(libc_a-findfp.o)
                                                  c:/program files (x86)/arm gnu toolchain arm-none-eabi/12.2 mpacbti-rel1/bin/../lib/gcc/arm-none-eabi/12.2.1/thumb/v7e-m+fp/hard\libc.a(libc_a-fflush.o)
                                                  c:/program files (x86)/arm gnu toolchain arm-none-eabi/12.2 mpacbti-rel1/bin/../lib/gcc/arm-none-eabi/12.2.1/thumb/v7e-m+fp/hard\libc.a(libc_a-fclose.o)
__sread                                           c:/program files (x86)/arm gnu toolchain arm-none-eabi/12.2 mpacbti-rel1/bin/../lib/gcc/arm-none-eabi/12.2.1/thumb/v7e-m+fp/hard\libc.a(libc_a-stdio.o)
                                                  c:/program files (x86)/arm gnu toolchain arm-none-eabi/12.2 mpacbti-rel1/bin/../lib/gcc/arm-none-eabi/12.2.1/thumb/v7e-m+fp/hard\libc.a(libc_a-findfp.o)
__sseek                                           c:/program files (x86)/arm gnu toolchain arm-none-eabi/12.2 mpacbti-rel1/bin/../lib/gcc/arm-none-eabi/12.2.1/thumb/v7e-m+fp/hard\libc.a(libc_a-stdio.o)
                                                  c:/program files (x86)/arm gnu toolchain arm-none-eabi/12.2 mpacbti-rel1/bin/../lib/gcc/arm-none-eabi/12.2.1/thumb/v7e-m+fp/hard\libc.a(libc_a-findfp.o)
__stdio_exit_handler                              c:/program files (x86)/arm gnu toolchain arm-none-eabi/12.2 mpacbti-rel1/bin/../lib/gcc/arm-none-eabi/12.2.1/thumb/v7e-m+fp/hard\libc.a(libc_a-findfp.o)
__subdf3                                          c:/program files (x86)/arm gnu toolchain arm-none-eabi/12.2 mpacbti-rel1/bin/../lib/gcc/arm-none-eabi/12.2.1/thumb/v7e-m+fp/hard\libgcc.a(_arm_addsubdf3.o)
__swrite                                          c:/program files (x86)/arm gnu toolchain arm-none-eabi/12.2 mpacbti-rel1/bin/../lib/gcc/arm-none-eabi/12.2.1/thumb/v7e-m+fp/hard\libc.a(libc_a-stdio.o)
                                                  c:/program files (x86)/arm gnu toolchain arm-none-eabi/12.2 mpacbti-rel1/bin/../lib/gcc/arm-none-eabi/12.2.1/thumb/v7e-m+fp/hard\libc.a(libc_a-findfp.o)
__udivmoddi4                                      c:/program files (x86)/arm gnu toolchain arm-none-eabi/12.2 mpacbti-rel1/bin/../lib/gcc/arm-none-eabi/12.2.1/thumb/v7e-m+fp/hard\libgcc.a(_udivmoddi4.o)
                                                  c:/program files (x86)/arm gnu toolchain arm-none-eabi/12.2 mpacbti-rel1/bin/../lib/gcc/arm-none-eabi/12.2.1/thumb/v7e-m+fp/hard\libgcc.a(_aeabi_uldivmod.o)
                                                  c:/program files (x86)/arm gnu toolchain arm-none-eabi/12.2 mpacbti-rel1/bin/../lib/gcc/arm-none-eabi/12.2.1/thumb/v7e-m+fp/hard\libgcc.a(_aeabi_ldivmod.o)
__unorddf2                                        c:/program files (x86)/arm gnu toolchain arm-none-eabi/12.2 mpacbti-rel1/bin/../lib/gcc/arm-none-eabi/12.2.1/thumb/v7e-m+fp/hard\libgcc.a(_arm_unorddf2.o)
__vfprintf                                        FLASH_RUN/print.o
_close                                            c:/program files (x86)/arm gnu toolchain arm-none-eabi/12.2 mpacbti-rel1/bin/../lib/gcc/arm-none-eabi/12.2.1/thumb/v7e-m+fp/hard\libc.a(libc_a-closer.o)
_close_r                                          c:/program files (x86)/arm gnu toolchain arm-none-eabi/12.2 mpacbti-rel1/bin/../lib/gcc/arm-none-eabi/12.2.1/thumb/v7e-m+fp/hard\libc.a(libc_a-closer.o)
                                                  c:/program files (x86)/arm gnu toolchain arm-none-eabi/12.2 mpacbti-rel1/bin/../lib/gcc/arm-none-eabi/12.2.1/thumb/v7e-m+fp/hard\libc.a(libc_a-stdio.o)
_ctype_                                           c:/program files (x86)/arm gnu toolchain arm-none-eabi/12.2 mpacbti-rel1/bin/../lib/gcc/arm-none-eabi/12.2.1/thumb/v7e-m+fp/hard\libc.a(libc_a-ctype_.o)
                                                  c:/program files (x86)/arm gnu toolchain arm-none-eabi/12.2 mpacbti-rel1/bin/../lib/gcc/arm-none-eabi/12.2.1/thumb/v7e-m+fp/hard\libc.a(libc_a-strcasecmp.o)
_ebss                                             c:/project/stm32fx_iolib/stm32f4x_iolib/stm32f4x_iolib_168MHz_8MHz.a(startup_stm32f4xx.o)
_edata                                            c:/project/stm32fx_iolib/stm32f4x_iolib/stm32f4x_iolib_168MHz_8MHz.a(startup_stm32f4xx.o)
_end                                              FLASH_RUN/audio.o
_estack                                           c:/project/stm32fx_iolib/stm32f4x_iolib/stm32f4x_iolib_168MHz_8MHz.a(startup_stm32f4xx.o)
_exit                                             FLASH_RUN/audio.o
                                                  c:/program files (x86)/arm gnu toolchain arm-none-eabi/12.2 mpacbti-rel1/bin/../lib/gcc/arm-none-eabi/12.2.1/thumb/v7e-m+fp/hard\libc.a(libc_a-abort.o)
_fclose_r                                         c:/program files (x86)/arm gnu toolchain arm-none-eabi/12.2 mpacbti-rel1/bin/../lib/gcc/arm-none-eabi/12.2.1/thumb/v7e-m+fp/hard\libc.a(libc_a-fclose.o)
                                                  c:/program files (x86)/arm gnu toolchain arm-none-eabi/12.2 mpacbti-rel1/bin/../lib/gcc/arm-none-eabi/12.2.1/thumb/v7e-m+fp/hard\libc.a(libc_a-findfp.o)
_fflush_r                                         c:/program files (x86)/arm gnu toolchain arm-none-eabi/12.2 mpacbti-rel1/bin/../lib/gcc/arm-none-eabi/12.2.1/thumb/v7e-m+fp/hard\libc.a(libc_a-fflush.o)
_free_r                                           c:/program files (x86)/arm gnu toolchain arm-none-eabi/12.2 mpacbti-rel1/bin/../lib/gcc/arm-none-eabi/12.2.1/thumb/v7e-m+fp/hard\libc.a(libc_a-freer.o)
                                                  c:/program files (x86)/arm gnu toolchain arm-none-eabi/12.2 mpacbti-rel1/bin/../lib/gcc/arm-none-eabi/12.2.1/thumb/v7e-m+fp/hard\libc.a(libc_a-fflush.o)
                                                  c:/program files (x86)/arm gnu toolchain arm-none-eabi/12.2 mpacbti-rel1/bin/../lib/gcc/arm-none-eabi/12.2.1/thumb/v7e-m+fp/hard\libc.a(libc_a-fclose.o)
                                                  c:/program files (x86)/arm gnu toolchain arm-none-eabi/12.2 mpacbti-rel1/bin/../lib/gcc/arm-none-eabi/12.2.1/thumb/v7e-m+fp/hard\libc.a(libc_a-mallocr.o)
                                                  c:/program files (x86)/arm gnu toolchain arm-none-eabi/12.2 mpacbti-rel1/bin/../lib/gcc/arm-none-eabi/12.2.1/thumb/v7e-m+fp/hard\libc.a(libc_a-malloc.o)
_fwalk_sglue                                      c:/program files (x86)/arm gnu toolchain arm-none-eabi/12.2 mpacbti-rel1/bin/../lib/gcc/arm-none-eabi/12.2.1/thumb/v7e-m+fp/hard\libc.a(libc_a-fwalk.o)
                                                  c:/program files (x86)/arm gnu toolchain arm-none-eabi/12.2 mpacbti-rel1/bin/../lib/gcc/arm-none-eabi/12.2.1/thumb/v7e-m+fp/hard\libc.a(libc_a-fflush.o)
                                                  c:/program files (x86)/arm gnu toolchain arm-none-eabi/12.2 mpacbti-rel1/bin/../lib/gcc/arm-none-eabi/12.2.1/thumb/v7e-m+fp/hard\libc.a(libc_a-findfp.o)
_getpid                                           FLASH_RUN/audio.o
                                                  c:/program files (x86)/arm gnu toolchain arm-none-eabi/12.2 mpacbti-rel1/bin/../lib/gcc/arm-none-eabi/12.2.1/thumb/v7e-m+fp/hard\libc.a(libc_a-signalr.o)
_getpid_r                                         c:/program files (x86)/arm gnu toolchain arm-none-eabi/12.2 mpacbti-rel1/bin/../lib/gcc/arm-none-eabi/12.2.1/thumb/v7e-m+fp/hard\libc.a(libc_a-signalr.o)
                                                  c:/program files (x86)/arm gnu toolchain arm-none-eabi/12.2 mpacbti-rel1/bin/../lib/gcc/arm-none-eabi/12.2.1/thumb/v7e-m+fp/hard\libc.a(libc_a-signal.o)
_impure_data                                      c:/program files (x86)/arm gnu toolchain arm-none-eabi/12.2 mpacbti-rel1/bin/../lib/gcc/arm-none-eabi/12.2.1/thumb/v7e-m+fp/hard\libc.a(libc_a-impure.o)
                                                  c:/program files (x86)/arm gnu toolchain arm-none-eabi/12.2 mpacbti-rel1/bin/../lib/gcc/arm-none-eabi/12.2.1/thumb/v7e-m+fp/hard\libc.a(libc_a-fflush.o)
                                                  c:/program files (x86)/arm gnu toolchain arm-none-eabi/12.2 mpacbti-rel1/bin/../lib/gcc/arm-none-eabi/12.2.1/thumb/v7e-m+fp/hard\libc.a(libc_a-findfp.o)
_impure_ptr                                       c:/program files (x86)/arm gnu toolchain arm-none-eabi/12.2 mpacbti-rel1/bin/../lib/gcc/arm-none-eabi/12.2.1/thumb/v7e-m+fp/hard\libc.a(libc_a-impure.o)
                                                  c:/program files (x86)/arm gnu toolchain arm-none-eabi/12.2 mpacbti-rel1/bin/../lib/gcc/arm-none-eabi/12.2.1/thumb/v7e-m+fp/hard\libc.a(libc_a-fflush.o)
                                                  c:/program files (x86)/arm gnu toolchain arm-none-eabi/12.2 mpacbti-rel1/bin/../lib/gcc/arm-none-eabi/12.2.1/thumb/v7e-m+fp/hard\libc.a(libc_a-fclose.o)
                                                  c:/program files (x86)/arm gnu toolchain arm-none-eabi/12.2 mpacbti-rel1/bin/../lib/gcc/arm-none-eabi/12.2.1/thumb/v7e-m+fp/hard\libc.a(libc_a-errno.o)
                                                  c:/program files (x86)/arm gnu toolchain arm-none-eabi/12.2 mpacbti-rel1/bin/../lib/gcc/arm-none-eabi/12.2.1/thumb/v7e-m+fp/hard\libc.a(libc_a-signal.o)
                                                  c:/program files (x86)/arm gnu toolchain arm-none-eabi/12.2 mpacbti-rel1/bin/../lib/gcc/arm-none-eabi/12.2.1/thumb/v7e-m+fp/hard\libc.a(libc_a-rand.o)
                                                  c:/program files (x86)/arm gnu toolchain arm-none-eabi/12.2 mpacbti-rel1/bin/../lib/gcc/arm-none-eabi/12.2.1/thumb/v7e-m+fp/hard\libc.a(libc_a-malloc.o)
_init_signal                                      c:/program files (x86)/arm gnu toolchain arm-none-eabi/12.2 mpacbti-rel1/bin/../lib/gcc/arm-none-eabi/12.2.1/thumb/v7e-m+fp/hard\libc.a(libc_a-signal.o)
_init_signal_r                                    c:/program files (x86)/arm gnu toolchain arm-none-eabi/12.2 mpacbti-rel1/bin/../lib/gcc/arm-none-eabi/12.2.1/thumb/v7e-m+fp/hard\libc.a(libc_a-signal.o)
_isr_vectorsflash_offs                            FLASH_RUN/main.o
_kill                                             FLASH_RUN/audio.o
                                                  c:/program files (x86)/arm gnu toolchain arm-none-eabi/12.2 mpacbti-rel1/bin/../lib/gcc/arm-none-eabi/12.2.1/thumb/v7e-m+fp/hard\libc.a(libc_a-signalr.o)
_kill_r                                           c:/program files (x86)/arm gnu toolchain arm-none-eabi/12.2 mpacbti-rel1/bin/../lib/gcc/arm-none-eabi/12.2.1/thumb/v7e-m+fp/hard\libc.a(libc_a-signalr.o)
                                                  c:/program files (x86)/arm gnu toolchain arm-none-eabi/12.2 mpacbti-rel1/bin/../lib/gcc/arm-none-eabi/12.2.1/thumb/v7e-m+fp/hard\libc.a(libc_a-signal.o)
_lseek                                            c:/program files (x86)/arm gnu toolchain arm-none-eabi/12.2 mpacbti-rel1/bin/../lib/gcc/arm-none-eabi/12.2.1/thumb/v7e-m+fp/hard\libc.a(libc_a-lseekr.o)
_lseek_r                                          c:/program files (x86)/arm gnu toolchain arm-none-eabi/12.2 mpacbti-rel1/bin/../lib/gcc/arm-none-eabi/12.2.1/thumb/v7e-m+fp/hard\libc.a(libc_a-lseekr.o)
                                                  c:/program files (x86)/arm gnu toolchain arm-none-eabi/12.2 mpacbti-rel1/bin/../lib/gcc/arm-none-eabi/12.2.1/thumb/v7e-m+fp/hard\libc.a(libc_a-stdio.o)
_malloc_r                                         c:/program files (x86)/arm gnu toolchain arm-none-eabi/12.2 mpacbti-rel1/bin/../lib/gcc/arm-none-eabi/12.2.1/thumb/v7e-m+fp/hard\libc.a(libc_a-mallocr.o)
                                                  c:/program files (x86)/arm gnu toolchain arm-none-eabi/12.2 mpacbti-rel1/bin/../lib/gcc/arm-none-eabi/12.2.1/thumb/v7e-m+fp/hard\libc.a(libc_a-findfp.o)
                                                  c:/program files (x86)/arm gnu toolchain arm-none-eabi/12.2 mpacbti-rel1/bin/../lib/gcc/arm-none-eabi/12.2.1/thumb/v7e-m+fp/hard\libc.a(libc_a-signal.o)
                                                  c:/program files (x86)/arm gnu toolchain arm-none-eabi/12.2 mpacbti-rel1/bin/../lib/gcc/arm-none-eabi/12.2.1/thumb/v7e-m+fp/hard\libc.a(libc_a-malloc.o)
_malloc_trim_r                                    c:/program files (x86)/arm gnu toolchain arm-none-eabi/12.2 mpacbti-rel1/bin/../lib/gcc/arm-none-eabi/12.2.1/thumb/v7e-m+fp/hard\libc.a(libc_a-freer.o)
_raise_r                                          c:/program files (x86)/arm gnu toolchain arm-none-eabi/12.2 mpacbti-rel1/bin/../lib/gcc/arm-none-eabi/12.2.1/thumb/v7e-m+fp/hard\libc.a(libc_a-signal.o)
_read                                             c:/program files (x86)/arm gnu toolchain arm-none-eabi/12.2 mpacbti-rel1/bin/../lib/gcc/arm-none-eabi/12.2.1/thumb/v7e-m+fp/hard\libc.a(libc_a-readr.o)
_read_r                                           c:/program files (x86)/arm gnu toolchain arm-none-eabi/12.2 mpacbti-rel1/bin/../lib/gcc/arm-none-eabi/12.2.1/thumb/v7e-m+fp/hard\libc.a(libc_a-readr.o)
                                                  c:/program files (x86)/arm gnu toolchain arm-none-eabi/12.2 mpacbti-rel1/bin/../lib/gcc/arm-none-eabi/12.2.1/thumb/v7e-m+fp/hard\libc.a(libc_a-stdio.o)
_sbrk                                             FLASH_RUN/audio.o
                                                  c:/program files (x86)/arm gnu toolchain arm-none-eabi/12.2 mpacbti-rel1/bin/../lib/gcc/arm-none-eabi/12.2.1/thumb/v7e-m+fp/hard\libc.a(libc_a-sbrkr.o)
_sbrk_r                                           c:/program files (x86)/arm gnu toolchain arm-none-eabi/12.2 mpacbti-rel1/bin/../lib/gcc/arm-none-eabi/12.2.1/thumb/v7e-m+fp/hard\libc.a(libc_a-sbrkr.o)
                                                  c:/program files (x86)/arm gnu toolchain arm-none-eabi/12.2 mpacbti-rel1/bin/../lib/gcc/arm-none-eabi/12.2.1/thumb/v7e-m+fp/hard\libc.a(libc_a-freer.o)
                                                  c:/program files (x86)/arm gnu toolchain arm-none-eabi/12.2 mpacbti-rel1/bin/../lib/gcc/arm-none-eabi/12.2.1/thumb/v7e-m+fp/hard\libc.a(libc_a-mallocr.o)
_sbss                                             c:/project/stm32fx_iolib/stm32f4x_iolib/stm32f4x_iolib_168MHz_8MHz.a(startup_stm32f4xx.o)
_sdata                                            c:/project/stm32fx_iolib/stm32f4x_iolib/stm32f4x_iolib_168MHz_8MHz.a(startup_stm32f4xx.o)
_serror                                           FLASH_RUN/print.o
_sidata                                           c:/project/stm32fx_iolib/stm32f4x_iolib/stm32f4x_iolib_168MHz_8MHz.a(startup_stm32f4xx.o)
_signal_r                                         c:/program files (x86)/arm gnu toolchain arm-none-eabi/12.2 mpacbti-rel1/bin/../lib/gcc/arm-none-eabi/12.2.1/thumb/v7e-m+fp/hard\libc.a(libc_a-signal.o)
_sputc                                            FLASH_RUN/print.o
_sputc1                                           FLASH_RUN/print.o
_write                                            c:/program files (x86)/arm gnu toolchain arm-none-eabi/12.2 mpacbti-rel1/bin/../lib/gcc/arm-none-eabi/12.2.1/thumb/v7e-m+fp/hard\libc.a(libc_a-writer.o)
_write_r                                          c:/program files (x86)/arm gnu toolchain arm-none-eabi/12.2 mpacbti-rel1/bin/../lib/gcc/arm-none-eabi/12.2.1/thumb/v7e-m+fp/hard\libc.a(libc_a-writer.o)
                                                  c:/program files (x86)/arm gnu toolchain arm-none-eabi/12.2 mpacbti-rel1/bin/../lib/gcc/arm-none-eabi/12.2.1/thumb/v7e-m+fp/hard\libc.a(libc_a-stdio.o)
abort                                             c:/program files (x86)/arm gnu toolchain arm-none-eabi/12.2 mpacbti-rel1/bin/../lib/gcc/arm-none-eabi/12.2.1/thumb/v7e-m+fp/hard\libc.a(libc_a-abort.o)
                                                  FLASH_RUN/audio.o
adc_count                                         FLASH_RUN/adc.o
adc_process                                       FLASH_RUN/adc.o
                                                  FLASH_RUN/main.o
adc_tcount                                        FLASH_RUN/adc.o
adc_temperature                                   FLASH_RUN/adc.o
adc_tsum                                          FLASH_RUN/adc.o
adc_voltage                                       FLASH_RUN/adc.o
adc_vsum                                          FLASH_RUN/adc.o
align_get_bits                                    source/audio_codec/flac/flac.a(bitstreamf.o)
                                                  source/audio_codec/flac/flac.a(flacdecoder.o)
ape_buffer                                        FLASH_RUN/apeplay.o
ape_bytesconsumed                                 FLASH_RUN/apeplay.o
ape_bytesinbuffer                                 FLASH_RUN/apeplay.o
ape_currentframe                                  FLASH_RUN/apeplay.o
ape_decoded0                                      FLASH_RUN/apeplay.o
ape_decoded1                                      FLASH_RUN/apeplay.o
ape_dumpinfo                                      source/audio_codec/ape/ape.a(parser.o)
ape_file_seek                                     FLASH_RUN/apeplay.o
ape_fill_buffer                                   FLASH_RUN/apeplay.o
ape_firstbyte                                     FLASH_RUN/apeplay.o
ape_get_curtime                                   FLASH_RUN/apeplay.o
ape_i2s_dma_tx_callback                           FLASH_RUN/apeplay.o
ape_nblocks                                       FLASH_RUN/apeplay.o
ape_parseheader                                   source/audio_codec/ape/ape.a(parser.o)
                                                  FLASH_RUN/apeplay.o
ape_parseheaderbuf                                source/audio_codec/ape/ape.a(parser.o)
ape_play                                          FLASH_RUN/apeplay.o
                                                  FLASH_RUN/audio.o
ape_play_song                                     FLASH_RUN/apeplay.o
                                                  FLASH_RUN/audio.o
ape_readptr                                       FLASH_RUN/apeplay.o
ape_res                                           FLASH_RUN/apeplay.o
ape_seek_frame                                    source/audio_codec/ape/ape.a(apedecoder.o)
ape_stop                                          FLASH_RUN/apeplay.o
                                                  FLASH_RUN/audio.o
apectrl                                           FLASH_RUN/apeplay.o
apetransferend                                    FLASH_RUN/apeplay.o
apewitchbuf                                       FLASH_RUN/apeplay.o
apex                                              FLASH_RUN/apeplay.o
apply_filter_16_11                                source/audio_codec/ape/ape.a(filter_16_11.o)
                                                  source/audio_codec/ape/ape.a(apedecoder.o)
apply_filter_64_11                                source/audio_codec/ape/ape.a(filter_64_11.o)
                                                  source/audio_codec/ape/ape.a(apedecoder.o)
audio_br                                          FLASH_RUN/audio.o
                                                  FLASH_RUN/mp3play.o
audio_decode_flag                                 FLASH_RUN/audio.o
                                                  FLASH_RUN/apeplay.o
                                                  FLASH_RUN/mp3play.o
audio_delay                                       FLASH_RUN/audio.o
                                                  FLASH_RUN/apeplay.o
                                                  FLASH_RUN/flacplay.o
                                                  FLASH_RUN/wavplay.o
                                                  FLASH_RUN/mp3play.o
                                                  FLASH_RUN/main.o
audio_file                                        FLASH_RUN/audio.o
audio_file_list                                   FLASH_RUN/audio.o
                                                  FLASH_RUN/main.o
audio_init                                        FLASH_RUN/audio.o
                                                  FLASH_RUN/main.o
audio_old_sec                                     FLASH_RUN/audio.o
                                                  FLASH_RUN/flacplay.o
                                                  FLASH_RUN/wavplay.o
                                                  FLASH_RUN/mp3play.o
audio_pause                                       FLASH_RUN/audio.o
                                                  FLASH_RUN/apeplay.o
                                                  FLASH_RUN/flacplay.o
                                                  FLASH_RUN/wavplay.o
                                                  FLASH_RUN/mp3play.o
audio_play_function                               FLASH_RUN/audio.o
                                                  FLASH_RUN/apeplay.o
                                                  FLASH_RUN/flacplay.o
                                                  FLASH_RUN/wavplay.o
                                                  FLASH_RUN/mp3play.o
                                                  FLASH_RUN/main.o
audio_process                                     FLASH_RUN/audio.o
                                                  FLASH_RUN/main.o
audio_read_flag                                   FLASH_RUN/audio.o
                                                  FLASH_RUN/apeplay.o
                                                  FLASH_RUN/flacplay.o
                                                  FLASH_RUN/wavplay.o
                                                  FLASH_RUN/mp3play.o
audio_repeat                                      FLASH_RUN/audio.o
                                                  FLASH_RUN/ir_remocon.o
audio_run                                         FLASH_RUN/audio.o
                                                  FLASH_RUN/apeplay.o
                                                  FLASH_RUN/flacplay.o
                                                  FLASH_RUN/wavplay.o
                                                  FLASH_RUN/mp3play.o
                                                  FLASH_RUN/main.o
audio_start                                       FLASH_RUN/audio.o
                                                  FLASH_RUN/apeplay.o
                                                  FLASH_RUN/flacplay.o
                                                  FLASH_RUN/wavplay.o
                                                  FLASH_RUN/mp3play.o
audio_stop                                        FLASH_RUN/audio.o
                                                  FLASH_RUN/apeplay.o
                                                  FLASH_RUN/flacplay.o
                                                  FLASH_RUN/wavplay.o
                                                  FLASH_RUN/mp3play.o
audio_stop_function                               FLASH_RUN/audio.o
                                                  FLASH_RUN/apeplay.o
                                                  FLASH_RUN/flacplay.o
                                                  FLASH_RUN/wavplay.o
                                                  FLASH_RUN/mp3play.o
                                                  FLASH_RUN/ir_remocon.o
audiodev                                          FLASH_RUN/audio.o
                                                  FLASH_RUN/apeplay.o
                                                  FLASH_RUN/flacplay.o
                                                  FLASH_RUN/wavplay.o
                                                  FLASH_RUN/mp3play.o
ax                                                FLASH_RUN/lcd.o
ay                                                FLASH_RUN/lcd.o
background_color                                  FLASH_RUN/lcd.o
                                                  FLASH_RUN/audio.o
                                                  FLASH_RUN/touch_panel.o
beep_check                                        FLASH_RUN/key.o
beep_cnt                                          FLASH_RUN/key.o
beep_control                                      FLASH_RUN/key.o
beep_max                                          FLASH_RUN/key.o
beep_on                                           FLASH_RUN/key.o
br                                                FLASH_RUN/audio.o
buff                                              FLASH_RUN/lcd.o
bw                                                FLASH_RUN/audio.o
cal_temperature                                   FLASH_RUN/adc.o
char_upper                                        FLASH_RUN/audio.o
clust2sect                                        FLASH_RUN/ff.o
cnt0                                              FLASH_RUN/diskio.o
cnt1                                              FLASH_RUN/diskio.o
convert_from_bytes_to_power_of_two                FLASH_RUN/sdio_sdcard.o
convert_voltage                                   FLASH_RUN/adc.o
dec2hex                                           FLASH_RUN/main.o
decode_chunk                                      source/audio_codec/ape/ape.a(apedecoder.o)
                                                  FLASH_RUN/apeplay.o
decode_subframe_lpc                               source/audio_codec/flac/flac.a(flacdecoder.o)
delay_count                                       FLASH_RUN/lcd.o
delay_tick                                        FLASH_RUN/lcd.o
delay_us                                          FLASH_RUN/lcd.o
                                                  FLASH_RUN/touch_pad.o
                                                  FLASH_RUN/touch_panel.o
dir                                               FLASH_RUN/audio.o
disk_initialize                                   FLASH_RUN/diskio.o
                                                  FLASH_RUN/ff.o
disk_ioctl                                        FLASH_RUN/diskio.o
                                                  FLASH_RUN/ff.o
disk_read                                         FLASH_RUN/diskio.o
                                                  FLASH_RUN/ff.o
disk_status                                       FLASH_RUN/diskio.o
                                                  FLASH_RUN/ff.o
disk_write                                        FLASH_RUN/diskio.o
                                                  FLASH_RUN/ff.o
display_line                                      FLASH_RUN/audio.o
display_line_flag                                 FLASH_RUN/audio.o
                                                  FLASH_RUN/main.o
dp_page                                           FLASH_RUN/audio.o
dumy_data                                         FLASH_RUN/lcd.o
eeprom_read                                       FLASH_RUN/i2c_app.o
                                                  FLASH_RUN/wm8978.o
                                                  FLASH_RUN/touch_panel.o
eeprom_write                                      FLASH_RUN/i2c_app.o
                                                  FLASH_RUN/wm8978.o
                                                  FLASH_RUN/touch_panel.o
eng_font                                          FLASH_RUN/lcd.o
eng_mode                                          FLASH_RUN/lcd.o
entropy_decode                                    source/audio_codec/ape/ape.a(entropy.o)
                                                  source/audio_codec/ape/ape.a(apedecoder.o)
errno                                             FLASH_RUN/print.o
                                                  c:/program files (x86)/arm gnu toolchain arm-none-eabi/12.2 mpacbti-rel1/bin/../lib/gcc/arm-none-eabi/12.2.1/thumb/v7e-m+fp/hard\libc.a(libc_a-writer.o)
                                                  c:/program files (x86)/arm gnu toolchain arm-none-eabi/12.2 mpacbti-rel1/bin/../lib/gcc/arm-none-eabi/12.2.1/thumb/v7e-m+fp/hard\libc.a(libc_a-readr.o)
                                                  c:/program files (x86)/arm gnu toolchain arm-none-eabi/12.2 mpacbti-rel1/bin/../lib/gcc/arm-none-eabi/12.2.1/thumb/v7e-m+fp/hard\libc.a(libc_a-lseekr.o)
                                                  c:/program files (x86)/arm gnu toolchain arm-none-eabi/12.2 mpacbti-rel1/bin/../lib/gcc/arm-none-eabi/12.2.1/thumb/v7e-m+fp/hard\libc.a(libc_a-closer.o)
                                                  c:/program files (x86)/arm gnu toolchain arm-none-eabi/12.2 mpacbti-rel1/bin/../lib/gcc/arm-none-eabi/12.2.1/thumb/v7e-m+fp/hard\libc.a(libc_a-sbrkr.o)
                                                  c:/program files (x86)/arm gnu toolchain arm-none-eabi/12.2 mpacbti-rel1/bin/../lib/gcc/arm-none-eabi/12.2.1/thumb/v7e-m+fp/hard\libc.a(libc_a-signalr.o)
f_chmod                                           FLASH_RUN/ff.o
f_close                                           FLASH_RUN/ff.o
                                                  FLASH_RUN/apeplay.o
                                                  FLASH_RUN/flacplay.o
                                                  FLASH_RUN/wavplay.o
                                                  FLASH_RUN/mp3play.o
                                                  FLASH_RUN/audio.o
f_closedir                                        FLASH_RUN/ff.o
f_getfree                                         FLASH_RUN/ff.o
f_gets                                            FLASH_RUN/ff.o
f_lseek                                           FLASH_RUN/ff.o
                                                  source/audio_codec/ape/ape.a(parser.o)
                                                  FLASH_RUN/apeplay.o
                                                  FLASH_RUN/flacplay.o
                                                  FLASH_RUN/wavplay.o
                                                  FLASH_RUN/mp3play.o
f_mkdir                                           FLASH_RUN/ff.o
f_mkfs                                            FLASH_RUN/ff.o
f_mount                                           FLASH_RUN/ff.o
                                                  FLASH_RUN/audio.o
f_open                                            FLASH_RUN/ff.o
                                                  FLASH_RUN/apeplay.o
                                                  FLASH_RUN/flacplay.o
                                                  FLASH_RUN/wavplay.o
                                                  FLASH_RUN/mp3play.o
f_opendir                                         FLASH_RUN/ff.o
                                                  FLASH_RUN/audio.o
f_printf                                          FLASH_RUN/ff.o
f_putc                                            FLASH_RUN/ff.o
f_puts                                            FLASH_RUN/ff.o
f_read                                            FLASH_RUN/ff.o
                                                  source/audio_codec/ape/ape.a(parser.o)
                                                  FLASH_RUN/apeplay.o
                                                  FLASH_RUN/flacplay.o
                                                  FLASH_RUN/wavplay.o
                                                  FLASH_RUN/mp3play.o
f_readdir                                         FLASH_RUN/ff.o
                                                  FLASH_RUN/audio.o
f_rename                                          FLASH_RUN/ff.o
f_stat                                            FLASH_RUN/ff.o
f_sync                                            FLASH_RUN/ff.o
f_truncate                                        FLASH_RUN/ff.o
f_unlink                                          FLASH_RUN/ff.o
f_utime                                           FLASH_RUN/ff.o
f_write                                           FLASH_RUN/ff.o
fatbuf                                            FLASH_RUN/audio.o
fclose                                            c:/program files (x86)/arm gnu toolchain arm-none-eabi/12.2 mpacbti-rel1/bin/../lib/gcc/arm-none-eabi/12.2.1/thumb/v7e-m+fp/hard\libc.a(libc_a-fclose.o)
ff_convert                                        FLASH_RUN/cc949.o
                                                  FLASH_RUN/ff.o
ff_enter                                          FLASH_RUN/diskio.o
ff_leave                                          FLASH_RUN/diskio.o
ff_log2_tab                                       source/audio_codec/flac/flac.a(tables.o)
                                                  source/audio_codec/flac/flac.a(flacdecoder.o)
ff_memalloc                                       FLASH_RUN/diskio.o
                                                  FLASH_RUN/ff.o
ff_memfree                                        FLASH_RUN/diskio.o
                                                  FLASH_RUN/ff.o
ff_wtoupper                                       FLASH_RUN/cc949.o
                                                  FLASH_RUN/ff.o
fflush                                            c:/program files (x86)/arm gnu toolchain arm-none-eabi/12.2 mpacbti-rel1/bin/../lib/gcc/arm-none-eabi/12.2.1/thumb/v7e-m+fp/hard\libc.a(libc_a-fflush.o)
file                                              FLASH_RUN/audio.o
fileinfo                                          FLASH_RUN/audio.o
fillnum                                           FLASH_RUN/wavplay.o
filterbuf1280                                     source/audio_codec/ape/ape.a(apedecoder.o)
filterbuf256                                      source/audio_codec/ape/ape.a(apedecoder.o)
filterbuf64                                       source/audio_codec/ape/ape.a(apedecoder.o)
                                                  FLASH_RUN/apeplay.o
find_music                                        FLASH_RUN/audio.o
flac_buffer                                       FLASH_RUN/flacplay.o
flac_bytesleft                                    FLASH_RUN/flacplay.o
flac_decbuf0                                      FLASH_RUN/flacplay.o
flac_decbuf1                                      FLASH_RUN/flacplay.o
flac_decode_frame16                               source/audio_codec/flac/flac.a(flacdecoder.o)
                                                  FLASH_RUN/flacplay.o
flac_decode_frame24                               source/audio_codec/flac/flac.a(flacdecoder.o)
                                                  FLASH_RUN/flacplay.o
flac_fc                                           FLASH_RUN/flacplay.o
flac_file_seek                                    FLASH_RUN/flacplay.o
flac_fptr                                         FLASH_RUN/flacplay.o
flac_get_curtime                                  FLASH_RUN/flacplay.o
flac_i2s_dma_tx_callback                          FLASH_RUN/flacplay.o
flac_init                                         FLASH_RUN/flacplay.o
flac_play                                         FLASH_RUN/flacplay.o
                                                  FLASH_RUN/audio.o
flac_play_song                                    FLASH_RUN/flacplay.o
                                                  FLASH_RUN/audio.o
flac_seek_frame                                   source/audio_codec/flac/flac.a(flacdecoder.o)
                                                  FLASH_RUN/flacplay.o
flac_stop                                         FLASH_RUN/flacplay.o
                                                  FLASH_RUN/audio.o
flacctrl                                          FLASH_RUN/flacplay.o
flactransferend                                   FLASH_RUN/flacplay.o
flacwitchbuf                                      FLASH_RUN/flacplay.o
flash_address                                     FLASH_RUN/serial.o
flash_para                                        FLASH_RUN/serial.o
flash_read                                        FLASH_RUN/serial.o
fnum                                              FLASH_RUN/audio.o
foreground_color                                  FLASH_RUN/lcd.o
                                                  FLASH_RUN/audio.o
                                                  FLASH_RUN/random_disp.o
                                                  FLASH_RUN/main.o
free                                              c:/program files (x86)/arm gnu toolchain arm-none-eabi/12.2 mpacbti-rel1/bin/../lib/gcc/arm-none-eabi/12.2.1/thumb/v7e-m+fp/hard\libc.a(libc_a-malloc.o)
                                                  source/audio_codec/ape/ape.a(parser.o)
                                                  source/audio_codec/mp3/mp3.a(buffers.o)
                                                  FLASH_RUN/apeplay.o
                                                  FLASH_RUN/flacplay.o
                                                  FLASH_RUN/wavplay.o
                                                  FLASH_RUN/mp3play.o
                                                  FLASH_RUN/audio.o
                                                  FLASH_RUN/diskio.o
fs                                                FLASH_RUN/audio.o
fs_disk_status                                    FLASH_RUN/diskio.o
fsmc_sram_test_read                               FLASH_RUN/ext_sram.o
fsmc_sram_test_write                              FLASH_RUN/ext_sram.o
fstype                                            FLASH_RUN/diskio.o
ftemp                                             FLASH_RUN/audio.o
g_pfnVectors                                      c:/project/stm32fx_iolib/stm32f4x_iolib/stm32f4x_iolib_168MHz_8MHz.a(startup_stm32f4xx.o)
get_bits_long                                     source/audio_codec/flac/flac.a(bitstreamf.o)
get_fat                                           FLASH_RUN/ff.o
get_fattime                                       FLASH_RUN/diskio.o
                                                  FLASH_RUN/ff.o
get_heap_end                                      FLASH_RUN/audio.o
get_stack_top                                     FLASH_RUN/audio.o
han_tbl                                           FLASH_RUN/lcd.o
hangul_chosung_tbl                                FLASH_RUN/lcd.o
hangul_jongsung_tbl                               FLASH_RUN/lcd.o
hangul_jungsung_tbl                               FLASH_RUN/lcd.o
hangul_mode                                       FLASH_RUN/lcd.o
hex2dec                                           FLASH_RUN/main.o
hl2irw                                            c:/project/stm32fx_iolib/stm32f4x_iolib/stm32f4x_iolib_168MHz_8MHz.a(startup_stm32f4xx.o)
i2c_error                                         FLASH_RUN/i2c_app.o
i2c_read                                          FLASH_RUN/i2c_app.o
i2c_temp                                          FLASH_RUN/i2c_app.o
i2c_write                                         FLASH_RUN/i2c_app.o
                                                  FLASH_RUN/wm8978.o
i2s_rx_callback                                   FLASH_RUN/i2s.o
i2s_tx_callback                                   FLASH_RUN/i2s.o
                                                  FLASH_RUN/apeplay.o
                                                  FLASH_RUN/flacplay.o
                                                  FLASH_RUN/wavplay.o
                                                  FLASH_RUN/mp3play.o
init_entropy_decoder                              source/audio_codec/ape/ape.a(entropy.o)
                                                  source/audio_codec/ape/ape.a(apedecoder.o)
init_filter_16_11                                 source/audio_codec/ape/ape.a(filter_16_11.o)
                                                  source/audio_codec/ape/ape.a(apedecoder.o)
init_filter_64_11                                 source/audio_codec/ape/ape.a(filter_64_11.o)
                                                  source/audio_codec/ape/ape.a(apedecoder.o)
init_frame_decoder                                source/audio_codec/ape/ape.a(apedecoder.o)
                                                  FLASH_RUN/apeplay.o
init_i2c_24xx                                     FLASH_RUN/i2c_app.o
                                                  FLASH_RUN/main.o
init_predictor_decoder                            source/audio_codec/ape/ape.a(predictor.o)
                                                  source/audio_codec/ape/ape.a(apedecoder.o)
ir_process                                        FLASH_RUN/ir_remocon.o
                                                  FLASH_RUN/main.o
ir_remocon_init                                   FLASH_RUN/ir_remocon.o
                                                  FLASH_RUN/main.o
ir_ret                                            FLASH_RUN/ir_remocon.o
ir_time                                           FLASH_RUN/ir_remocon.o
is_digit                                          FLASH_RUN/print.o
jiffes                                            FLASH_RUN/main.o
key_cnt1                                          FLASH_RUN/key.o
key_cnt2                                          FLASH_RUN/key.o
key_cnt3                                          FLASH_RUN/key.o
key_cnt4                                          FLASH_RUN/key.o
key_init                                          FLASH_RUN/key.o
                                                  FLASH_RUN/main.o
key_read                                          FLASH_RUN/key.o
                                                  FLASH_RUN/main.o
key_value                                         FLASH_RUN/key.o
kor_font                                          FLASH_RUN/lcd.o
ks5601_to_kssm                                    FLASH_RUN/lcd.o
lcd_printf                                        FLASH_RUN/lcd.o
                                                  FLASH_RUN/apeplay.o
                                                  FLASH_RUN/flacplay.o
                                                  FLASH_RUN/wavplay.o
                                                  FLASH_RUN/mp3play.o
                                                  FLASH_RUN/audio.o
                                                  FLASH_RUN/ir_remocon.o
                                                  FLASH_RUN/touch_pad.o
                                                  FLASH_RUN/touch_panel.o
                                                  FLASH_RUN/main.o
lcddev                                            FLASH_RUN/lcd.o
                                                  FLASH_RUN/touch_panel.o
loc1                                              FLASH_RUN/lcd.o
loc2                                              FLASH_RUN/lcd.o
loc3                                              FLASH_RUN/lcd.o
lput_char                                         FLASH_RUN/lcd.o
lput_char_xy                                      FLASH_RUN/lcd.o
m_tempbuff                                        FLASH_RUN/sdio_sdcard.o
main                                              FLASH_RUN/main.o
                                                  c:/project/stm32fx_iolib/stm32f4x_iolib/stm32f4x_iolib_168MHz_8MHz.a(startup_stm32f4xx.o)
malloc                                            c:/program files (x86)/arm gnu toolchain arm-none-eabi/12.2 mpacbti-rel1/bin/../lib/gcc/arm-none-eabi/12.2.1/thumb/v7e-m+fp/hard\libc.a(libc_a-malloc.o)
                                                  source/audio_codec/ape/ape.a(parser.o)
                                                  source/audio_codec/mp3/mp3.a(buffers.o)
                                                  FLASH_RUN/apeplay.o
                                                  FLASH_RUN/flacplay.o
                                                  FLASH_RUN/wavplay.o
                                                  FLASH_RUN/mp3play.o
                                                  FLASH_RUN/audio.o
                                                  FLASH_RUN/diskio.o
max_col                                           FLASH_RUN/lcd.o
max_row                                           FLASH_RUN/lcd.o
maxtx1                                            FLASH_RUN/serial.o
maxtx2                                            FLASH_RUN/serial.o
maxtx3                                            FLASH_RUN/serial.o
maxx                                              FLASH_RUN/lcd.o
                                                  FLASH_RUN/random_disp.o
                                                  FLASH_RUN/main.o
maxy                                              FLASH_RUN/lcd.o
                                                  FLASH_RUN/random_disp.o
                                                  FLASH_RUN/main.o
memcmp                                            c:/program files (x86)/arm gnu toolchain arm-none-eabi/12.2 mpacbti-rel1/bin/../lib/gcc/arm-none-eabi/12.2.1/thumb/v7e-m+fp/hard\libc.a(libc_a-memcmp.o)
                                                  source/audio_codec/ape/ape.a(parser.o)
memcpy                                            c:/program files (x86)/arm gnu toolchain arm-none-eabi/12.2 mpacbti-rel1/bin/../lib/gcc/arm-none-eabi/12.2.1/thumb/v7e-m+fp/hard\libc.a(libc_a-memcpy.o)
                                                  source/audio_codec/mp3/mp3.a(mp3dec.o)
                                                  c:/project/stm32fx_iolib/stm32f4x_iolib/stm32f4x_iolib_168MHz_8MHz.a(startup_stm32f4xx.o)
                                                  FLASH_RUN/sdio_sdcard.o
memmove                                           c:/program files (x86)/arm gnu toolchain arm-none-eabi/12.2 mpacbti-rel1/bin/../lib/gcc/arm-none-eabi/12.2.1/thumb/v7e-m+fp/hard\libc.a(libc_a-memmove.o)
                                                  source/audio_codec/ape/ape.a(filter_64_11.o)
                                                  source/audio_codec/ape/ape.a(filter_16_11.o)
                                                  source/audio_codec/mp3/mp3.a(mp3dec.o)
                                                  FLASH_RUN/apeplay.o
                                                  FLASH_RUN/flacplay.o
                                                  FLASH_RUN/mp3play.o
memo_process                                      FLASH_RUN/main.o
memset                                            c:/program files (x86)/arm gnu toolchain arm-none-eabi/12.2 mpacbti-rel1/bin/../lib/gcc/arm-none-eabi/12.2.1/thumb/v7e-m+fp/hard\libc.a(libc_a-memset.o)
                                                  c:/program files (x86)/arm gnu toolchain arm-none-eabi/12.2 mpacbti-rel1/bin/../lib/gcc/arm-none-eabi/12.2.1/thumb/v7e-m+fp/hard\libc.a(libc_a-findfp.o)
                                                  source/audio_codec/ape/ape.a(predictor.o)
                                                  source/audio_codec/ape/ape.a(parser.o)
                                                  source/audio_codec/ape/ape.a(filter_64_11.o)
                                                  source/audio_codec/ape/ape.a(filter_16_11.o)
                                                  source/audio_codec/ape/ape.a(entropy.o)
                                                  source/audio_codec/mp3/mp3.a(buffers.o)
                                                  c:/project/stm32fx_iolib/stm32f4x_iolib/stm32f4x_iolib_168MHz_8MHz.a(startup_stm32f4xx.o)
                                                  FLASH_RUN/apeplay.o
                                                  FLASH_RUN/flacplay.o
                                                  FLASH_RUN/mp3play.o
                                                  FLASH_RUN/audio.o
                                                  FLASH_RUN/serial.o
mp3_buffer                                        FLASH_RUN/mp3play.o
mp3_bytesleft                                     FLASH_RUN/mp3play.o
mp3_file_seek                                     FLASH_RUN/mp3play.o
mp3_fill_buffer                                   FLASH_RUN/mp3play.o
mp3_get_curtime                                   FLASH_RUN/mp3play.o
mp3_get_info                                      FLASH_RUN/mp3play.o
mp3_i2s_dma_tx_callback                           FLASH_RUN/mp3play.o
mp3_id3v1_decode                                  FLASH_RUN/mp3play.o
mp3_id3v2_decode                                  FLASH_RUN/mp3play.o
mp3_offset                                        FLASH_RUN/mp3play.o
mp3_outofdata                                     FLASH_RUN/mp3play.o
mp3_play                                          FLASH_RUN/mp3play.o
                                                  FLASH_RUN/audio.o
mp3_play_song                                     FLASH_RUN/mp3play.o
                                                  FLASH_RUN/audio.o
mp3_readptr                                       FLASH_RUN/mp3play.o
mp3_stop                                          FLASH_RUN/mp3play.o
                                                  FLASH_RUN/audio.o
mp3ctrl                                           FLASH_RUN/mp3play.o
mp3decoder                                        FLASH_RUN/mp3play.o
mp3frameinfo                                      FLASH_RUN/mp3play.o
mp3transferend                                    FLASH_RUN/mp3play.o
mp3witchbuf                                       FLASH_RUN/mp3play.o
music_extend                                      FLASH_RUN/audio.o
music_number                                      FLASH_RUN/audio.o
music_play                                        FLASH_RUN/audio.o
                                                  FLASH_RUN/apeplay.o
                                                  FLASH_RUN/flacplay.o
                                                  FLASH_RUN/wavplay.o
                                                  FLASH_RUN/mp3play.o
music_start                                       FLASH_RUN/audio.o
mx                                                FLASH_RUN/main.o
my                                                FLASH_RUN/main.o
old_ir                                            FLASH_RUN/ir_remocon.o
old_key                                           FLASH_RUN/main.o
old_volume                                        FLASH_RUN/audio.o
old_x                                             FLASH_RUN/main.o
old_y                                             FLASH_RUN/main.o
opt_delay                                         FLASH_RUN/lcd.o
out_lcd                                           FLASH_RUN/lcd.o
page                                              FLASH_RUN/lcd.o
pen_x                                             FLASH_RUN/main.o
pen_x2                                            FLASH_RUN/main.o
pen_y                                             FLASH_RUN/main.o
pen_y2                                            FLASH_RUN/main.o
play_audio                                        FLASH_RUN/audio.o
                                                  FLASH_RUN/ir_remocon.o
                                                  FLASH_RUN/main.o
play_key                                          FLASH_RUN/audio.o
                                                  FLASH_RUN/ir_remocon.o
                                                  FLASH_RUN/main.o
play_key_count                                    FLASH_RUN/audio.o
predictor_decode_mono                             source/audio_codec/ape/ape.a(predictor-arm.o)
                                                  source/audio_codec/ape/ape.a(apedecoder.o)
predictor_decode_stereo                           source/audio_codec/ape/ape.a(predictor-arm.o)
                                                  source/audio_codec/ape/ape.a(apedecoder.o)
put_eng                                           FLASH_RUN/lcd.o
put_engxy                                         FLASH_RUN/lcd.o
put_fat                                           FLASH_RUN/ff.o
put_han                                           FLASH_RUN/lcd.o
put_hanxy                                         FLASH_RUN/lcd.o
raise                                             c:/program files (x86)/arm gnu toolchain arm-none-eabi/12.2 mpacbti-rel1/bin/../lib/gcc/arm-none-eabi/12.2.1/thumb/v7e-m+fp/hard\libc.a(libc_a-signal.o)
                                                  c:/program files (x86)/arm gnu toolchain arm-none-eabi/12.2 mpacbti-rel1/bin/../lib/gcc/arm-none-eabi/12.2.1/thumb/v7e-m+fp/hard\libc.a(libc_a-abort.o)
rand                                              c:/program files (x86)/arm gnu toolchain arm-none-eabi/12.2 mpacbti-rel1/bin/../lib/gcc/arm-none-eabi/12.2.1/thumb/v7e-m+fp/hard\libc.a(libc_a-rand.o)
                                                  FLASH_RUN/audio.o
                                                  FLASH_RUN/random_disp.o
random_display                                    FLASH_RUN/random_disp.o
                                                  FLASH_RUN/lcd.o
re_ir_enable                                      FLASH_RUN/ir_remocon.o
read_id                                           FLASH_RUN/ir_remocon.o
read_key                                          FLASH_RUN/main.o
receive_check1                                    FLASH_RUN/serial.o
receive_check2                                    FLASH_RUN/serial.o
receive_check3                                    FLASH_RUN/serial.o
remocon_recv                                      FLASH_RUN/ir_remocon.o
remocon_scan                                      FLASH_RUN/ir_remocon.o
remocon_status                                    FLASH_RUN/ir_remocon.o
remocon_time                                      FLASH_RUN/ir_remocon.o
remote_count                                      FLASH_RUN/ir_remocon.o
rflag                                             FLASH_RUN/audio.o
rtc_alarm                                         FLASH_RUN/rtc.o
rtc_init                                          FLASH_RUN/rtc.o
                                                  FLASH_RUN/audio.o
                                                  FLASH_RUN/ir_remocon.o
                                                  FLASH_RUN/main.o
rtc_wkup                                          FLASH_RUN/rtc.o
rx_led                                            FLASH_RUN/serial.o
                                                  FLASH_RUN/touch_panel.o
rxbuff1                                           FLASH_RUN/serial.o
rxbuff2                                           FLASH_RUN/serial.o
rxbuff3                                           FLASH_RUN/serial.o
rxck1                                             FLASH_RUN/serial.o
                                                  FLASH_RUN/main.o
rxck2                                             FLASH_RUN/serial.o
                                                  FLASH_RUN/main.o
rxck3                                             FLASH_RUN/serial.o
                                                  FLASH_RUN/main.o
rxcnt1                                            FLASH_RUN/serial.o
                                                  FLASH_RUN/main.o
rxcnt2                                            FLASH_RUN/serial.o
                                                  FLASH_RUN/main.o
rxcnt3                                            FLASH_RUN/serial.o
                                                  FLASH_RUN/main.o
s_bit                                             FLASH_RUN/lcd.o
serial_check                                      FLASH_RUN/serial.o
                                                  FLASH_RUN/touch_panel.o
                                                  FLASH_RUN/main.o
serial_init                                       FLASH_RUN/serial.o
                                                  FLASH_RUN/main.o
set_background_color                              FLASH_RUN/lcd.o
                                                  FLASH_RUN/touch_panel.o
set_color                                         FLASH_RUN/lcd.o
                                                  FLASH_RUN/touch_panel.o
                                                  FLASH_RUN/random_disp.o
                                                  FLASH_RUN/main.o
set_pixel                                         FLASH_RUN/lcd.o
show_bits_long                                    source/audio_codec/flac/flac.a(bitstreamf.o)
signal                                            c:/program files (x86)/arm gnu toolchain arm-none-eabi/12.2 mpacbti-rel1/bin/../lib/gcc/arm-none-eabi/12.2.1/thumb/v7e-m+fp/hard\libc.a(libc_a-signal.o)
sprintf                                           FLASH_RUN/print.o
sqrt                                              c:/program files (x86)/arm gnu toolchain arm-none-eabi/12.2 mpacbti-rel1/bin/../lib/gcc/arm-none-eabi/12.2.1/thumb/v7e-m+fp/hard\libm.a(libm_a-w_sqrt.o)
                                                  FLASH_RUN/touch_panel.o
srand                                             c:/program files (x86)/arm gnu toolchain arm-none-eabi/12.2 mpacbti-rel1/bin/../lib/gcc/arm-none-eabi/12.2.1/thumb/v7e-m+fp/hard\libc.a(libc_a-rand.o)
strcasecmp                                        c:/program files (x86)/arm gnu toolchain arm-none-eabi/12.2 mpacbti-rel1/bin/../lib/gcc/arm-none-eabi/12.2.1/thumb/v7e-m+fp/hard\libc.a(libc_a-strcasecmp.o)
                                                  FLASH_RUN/audio.o
strcat                                            c:/program files (x86)/arm gnu toolchain arm-none-eabi/12.2 mpacbti-rel1/bin/../lib/gcc/arm-none-eabi/12.2.1/thumb/v7e-m+fp/hard\libc.a(libc_a-strcat.o)
                                                  FLASH_RUN/audio.o
strcpy                                            c:/program files (x86)/arm gnu toolchain arm-none-eabi/12.2 mpacbti-rel1/bin/../lib/gcc/arm-none-eabi/12.2.1/thumb/v7e-m+fp/hard\libc.a(libc_a-strcpy.o)
                                                  c:/program files (x86)/arm gnu toolchain arm-none-eabi/12.2 mpacbti-rel1/bin/../lib/gcc/arm-none-eabi/12.2.1/thumb/v7e-m+fp/hard\libc.a(libc_a-strcat.o)
                                                  FLASH_RUN/audio.o
strlen                                            c:/program files (x86)/arm gnu toolchain arm-none-eabi/12.2 mpacbti-rel1/bin/../lib/gcc/arm-none-eabi/12.2.1/thumb/v7e-m+fp/hard\libc.a(libc_a-strlen.o)
                                                  FLASH_RUN/audio.o
                                                  FLASH_RUN/ff.o
                                                  FLASH_RUN/print.o
                                                  FLASH_RUN/lcd.o
strncmp                                           c:/program files (x86)/arm gnu toolchain arm-none-eabi/12.2 mpacbti-rel1/bin/../lib/gcc/arm-none-eabi/12.2.1/thumb/v7e-m+fp/hard\libc.a(libc_a-strncmp.o)
                                                  FLASH_RUN/flacplay.o
                                                  FLASH_RUN/mp3play.o
strncpy                                           c:/program files (x86)/arm gnu toolchain arm-none-eabi/12.2 mpacbti-rel1/bin/../lib/gcc/arm-none-eabi/12.2.1/thumb/v7e-m+fp/hard\libc.a(libc_a-strncpy.o)
                                                  FLASH_RUN/mp3play.o
sysconf                                           c:/program files (x86)/arm gnu toolchain arm-none-eabi/12.2 mpacbti-rel1/bin/../lib/gcc/arm-none-eabi/12.2.1/thumb/v7e-m+fp/hard\libc.a(libc_a-sysconf.o)
                                                  c:/program files (x86)/arm gnu toolchain arm-none-eabi/12.2 mpacbti-rel1/bin/../lib/gcc/arm-none-eabi/12.2.1/thumb/v7e-m+fp/hard\libc.a(libc_a-freer.o)
                                                  c:/program files (x86)/arm gnu toolchain arm-none-eabi/12.2 mpacbti-rel1/bin/../lib/gcc/arm-none-eabi/12.2.1/thumb/v7e-m+fp/hard\libc.a(libc_a-mallocr.o)
table_week                                        FLASH_RUN/rtc.o
this_id                                           FLASH_RUN/serial.o
tick                                              FLASH_RUN/main.o
                                                  FLASH_RUN/apeplay.o
                                                  FLASH_RUN/mp3play.o
                                                  FLASH_RUN/touch_panel.o
tick_process                                      FLASH_RUN/main.o
                                                  FLASH_RUN/apeplay.o
                                                  FLASH_RUN/mp3play.o
time_led                                          FLASH_RUN/main.o
                                                  FLASH_RUN/touch_panel.o
time_out                                          FLASH_RUN/i2c_app.o
tp_dev                                            FLASH_RUN/touch_panel.o
                                                  FLASH_RUN/main.o
tpad_default_val                                  FLASH_RUN/touch_pad.o
tpad_press                                        FLASH_RUN/main.o
tx                                                FLASH_RUN/lcd.o
tx_enable1                                        FLASH_RUN/serial.o
tx_enable2                                        FLASH_RUN/serial.o
tx_enable3                                        FLASH_RUN/serial.o
tx_led                                            FLASH_RUN/serial.o
                                                  FLASH_RUN/touch_panel.o
txbuff1                                           FLASH_RUN/serial.o
txbuff2                                           FLASH_RUN/serial.o
txbuff3                                           FLASH_RUN/serial.o
txcnt1                                            FLASH_RUN/serial.o
txcnt2                                            FLASH_RUN/serial.o
txcnt3                                            FLASH_RUN/serial.o
ty                                                FLASH_RUN/lcd.o
u8_read                                           FLASH_RUN/i2c_app.o
u8_write                                          FLASH_RUN/i2c_app.o
uni_to_kssm                                       FLASH_RUN/lcd.o
uni_to_kssm2                                      FLASH_RUN/lcd.o
volume                                            FLASH_RUN/main.o
                                                  FLASH_RUN/apeplay.o
                                                  FLASH_RUN/flacplay.o
                                                  FLASH_RUN/wavplay.o
                                                  FLASH_RUN/mp3play.o
                                                  FLASH_RUN/audio.o
volume_flag                                       FLASH_RUN/main.o
                                                  FLASH_RUN/audio.o
                                                  FLASH_RUN/ir_remocon.o
vsprintf                                          FLASH_RUN/print.o
                                                  FLASH_RUN/lcd.o
wait_count                                        FLASH_RUN/audio.o
wait_ms                                           FLASH_RUN/main.o
                                                  FLASH_RUN/rtc.o
                                                  FLASH_RUN/touch_pad.o
                                                  FLASH_RUN/touch_panel.o
                                                  FLASH_RUN/lcd.o
                                                  FLASH_RUN/i2c_app.o
watch_dog_init                                    FLASH_RUN/main.o
wav_buffill                                       FLASH_RUN/wavplay.o
wav_decode_init                                   FLASH_RUN/wavplay.o
wav_file_seek                                     FLASH_RUN/wavplay.o
wav_get_curtime                                   FLASH_RUN/wavplay.o
wav_i2s_dma_tx_callback                           FLASH_RUN/wavplay.o
wav_play_song                                     FLASH_RUN/wavplay.o
                                                  FLASH_RUN/audio.o
wavctrl                                           FLASH_RUN/wavplay.o
wave_play                                         FLASH_RUN/wavplay.o
                                                  FLASH_RUN/audio.o
wave_stop                                         FLASH_RUN/wavplay.o
                                                  FLASH_RUN/audio.o
wavtransferend                                    FLASH_RUN/wavplay.o
wavwitchbuf                                       FLASH_RUN/wavplay.o
wm8978_eqset                                      FLASH_RUN/audio.o
wm8978_read_para                                  FLASH_RUN/wm8978.o
                                                  FLASH_RUN/audio.o
wm8978_save_para                                  FLASH_RUN/wm8978.o
                                                  FLASH_RUN/audio.o
wm8978_volset                                     FLASH_RUN/audio.o
                                                  FLASH_RUN/serial.o
wm8978set                                         FLASH_RUN/wm8978.o
                                                  FLASH_RUN/audio.o
                                                  FLASH_RUN/ir_remocon.o
xmp3_AllocateBuffers                              source/audio_codec/mp3/mp3.a(buffers.o)
                                                  source/audio_codec/mp3/mp3.a(mp3dec.o)
xmp3_CalcBitsUsed                                 source/audio_codec/mp3/mp3.a(bitstream.o)
                                                  source/audio_codec/mp3/mp3.a(scalfact.o)
xmp3_CheckPadBit                                  source/audio_codec/mp3/mp3.a(bitstream.o)
                                                  source/audio_codec/mp3/mp3.a(mp3dec.o)
xmp3_DecodeHuffman                                source/audio_codec/mp3/mp3.a(huffman.o)
                                                  source/audio_codec/mp3/mp3.a(mp3dec.o)
xmp3_DequantChannel                               source/audio_codec/mp3/mp3.a(dqchan.o)
                                                  source/audio_codec/mp3/mp3.a(dequant.o)
xmp3_Dequantize                                   source/audio_codec/mp3/mp3.a(dequant.o)
                                                  source/audio_codec/mp3/mp3.a(mp3dec.o)
xmp3_FASTABS                                      source/audio_codec/mp3/mp3.a(asmmisc.o)
                                                  source/audio_codec/mp3/mp3.a(stproc.o)
                                                  source/audio_codec/mp3/mp3.a(imdct.o)
xmp3_FDCT32                                       source/audio_codec/mp3/mp3.a(dct32.o)
                                                  source/audio_codec/mp3/mp3.a(subband.o)
xmp3_FreeBuffers                                  source/audio_codec/mp3/mp3.a(buffers.o)
                                                  source/audio_codec/mp3/mp3.a(mp3dec.o)
xmp3_GetBits                                      source/audio_codec/mp3/mp3.a(bitstream.o)
                                                  source/audio_codec/mp3/mp3.a(scalfact.o)
xmp3_IMDCT                                        source/audio_codec/mp3/mp3.a(imdct.o)
                                                  source/audio_codec/mp3/mp3.a(mp3dec.o)
xmp3_ISFIIP                                       source/audio_codec/mp3/mp3.a(trigtabs.o)
                                                  source/audio_codec/mp3/mp3.a(stproc.o)
xmp3_ISFMpeg1                                     source/audio_codec/mp3/mp3.a(trigtabs.o)
                                                  source/audio_codec/mp3/mp3.a(stproc.o)
xmp3_ISFMpeg2                                     source/audio_codec/mp3/mp3.a(trigtabs.o)
                                                  source/audio_codec/mp3/mp3.a(stproc.o)
xmp3_IntensityProcMPEG1                           source/audio_codec/mp3/mp3.a(stproc.o)
                                                  source/audio_codec/mp3/mp3.a(dequant.o)
xmp3_IntensityProcMPEG2                           source/audio_codec/mp3/mp3.a(stproc.o)
                                                  source/audio_codec/mp3/mp3.a(dequant.o)
xmp3_MULSHIFT32                                   source/audio_codec/mp3/mp3.a(asmmisc.o)
                                                  source/audio_codec/mp3/mp3.a(stproc.o)
                                                  source/audio_codec/mp3/mp3.a(imdct.o)
                                                  source/audio_codec/mp3/mp3.a(dqchan.o)
                                                  source/audio_codec/mp3/mp3.a(dct32.o)
xmp3_MidSideProc                                  source/audio_codec/mp3/mp3.a(stproc.o)
                                                  source/audio_codec/mp3/mp3.a(dequant.o)
xmp3_PolyphaseMono                                source/audio_codec/mp3/mp3.a(asmpoly_thumb2.o)
                                                  source/audio_codec/mp3/mp3.a(subband.o)
xmp3_PolyphaseStereo                              source/audio_codec/mp3/mp3.a(asmpoly_thumb2.o)
                                                  source/audio_codec/mp3/mp3.a(subband.o)
xmp3_SetBitstreamPointer                          source/audio_codec/mp3/mp3.a(bitstream.o)
                                                  source/audio_codec/mp3/mp3.a(scalfact.o)
xmp3_Subband                                      source/audio_codec/mp3/mp3.a(subband.o)
                                                  source/audio_codec/mp3/mp3.a(mp3dec.o)
xmp3_UnpackFrameHeader                            source/audio_codec/mp3/mp3.a(bitstream.o)
                                                  source/audio_codec/mp3/mp3.a(mp3dec.o)
xmp3_UnpackScaleFactors                           source/audio_codec/mp3/mp3.a(scalfact.o)
                                                  source/audio_codec/mp3/mp3.a(mp3dec.o)
xmp3_UnpackSideInfo                               source/audio_codec/mp3/mp3.a(bitstream.o)
                                                  source/audio_codec/mp3/mp3.a(mp3dec.o)
xmp3_bitrateTab                                   source/audio_codec/mp3/mp3.a(mp3tabs.o)
                                                  source/audio_codec/mp3/mp3.a(bitstream.o)
xmp3_bitsPerSlotTab                               source/audio_codec/mp3/mp3.a(mp3tabs.o)
xmp3_coef32                                       source/audio_codec/mp3/mp3.a(trigtabs.o)
xmp3_csa                                          source/audio_codec/mp3/mp3.a(trigtabs.o)
                                                  source/audio_codec/mp3/mp3.a(imdct.o)
xmp3_huffTabLookup                                source/audio_codec/mp3/mp3.a(hufftabs.o)
                                                  source/audio_codec/mp3/mp3.a(huffman.o)
xmp3_huffTabOffset                                source/audio_codec/mp3/mp3.a(hufftabs.o)
                                                  source/audio_codec/mp3/mp3.a(huffman.o)
xmp3_huffTable                                    source/audio_codec/mp3/mp3.a(hufftabs.o)
                                                  source/audio_codec/mp3/mp3.a(huffman.o)
xmp3_imdctWin                                     source/audio_codec/mp3/mp3.a(trigtabs.o)
                                                  source/audio_codec/mp3/mp3.a(imdct.o)
xmp3_polyCoef                                     source/audio_codec/mp3/mp3.a(trigtabs.o)
                                                  source/audio_codec/mp3/mp3.a(subband.o)
xmp3_quadTabMaxBits                               source/audio_codec/mp3/mp3.a(hufftabs.o)
                                                  source/audio_codec/mp3/mp3.a(huffman.o)
xmp3_quadTabOffset                                source/audio_codec/mp3/mp3.a(hufftabs.o)
                                                  source/audio_codec/mp3/mp3.a(huffman.o)
xmp3_quadTable                                    source/audio_codec/mp3/mp3.a(hufftabs.o)
                                                  source/audio_codec/mp3/mp3.a(huffman.o)
xmp3_samplerateTab                                source/audio_codec/mp3/mp3.a(mp3tabs.o)
                                                  source/audio_codec/mp3/mp3.a(bitstream.o)
xmp3_samplesPerFrameTab                           source/audio_codec/mp3/mp3.a(mp3tabs.o)
                                                  source/audio_codec/mp3/mp3.a(bitstream.o)
                                                  source/audio_codec/mp3/mp3.a(mp3dec.o)
xmp3_sfBandTable                                  source/audio_codec/mp3/mp3.a(mp3tabs.o)
                                                  source/audio_codec/mp3/mp3.a(bitstream.o)
xmp3_sideBytesTab                                 source/audio_codec/mp3/mp3.a(mp3tabs.o)
                                                  source/audio_codec/mp3/mp3.a(bitstream.o)
xmp3_slotTab                                      source/audio_codec/mp3/mp3.a(mp3tabs.o)
                                                  source/audio_codec/mp3/mp3.a(bitstream.o)
xmp3_uniqueIDTab                                  source/audio_codec/mp3/mp3.a(trigtabs.o)
